Archive member included to satisfy reference by file (symbol)

D:\programming\ada_projects\ravenscar_test\Ada_Drivers_Library\obj_lib_Debug\libada_drivers_library.a(cortex_m-nvic.o)
                              b__main.o (cortex_m__nvic_E)
D:\programming\ada_projects\ravenscar_test\Ada_Drivers_Library\obj_lib_Debug\libada_drivers_library.a(microbit-ios.o)
                              b__main.o (microbit__ios___elabb)
D:\programming\ada_projects\ravenscar_test\Ada_Drivers_Library\obj_lib_Debug\libada_drivers_library.a(nrf51-adc.o)
                              D:\programming\ada_projects\ravenscar_test\Ada_Drivers_Library\obj_lib_Debug\libada_drivers_library.a(microbit-ios.o) (nrf51__adc__start_pin_conversion)
D:\programming\ada_projects\ravenscar_test\Ada_Drivers_Library\obj_lib_Debug\libada_drivers_library.a(nrf51-device.o)
                              b__main.o (nrf51__device___elabs)
D:\programming\ada_projects\ravenscar_test\Ada_Drivers_Library\obj_lib_Debug\libada_drivers_library.a(nrf51-events.o)
                              D:\programming\ada_projects\ravenscar_test\Ada_Drivers_Library\obj_lib_Debug\libada_drivers_library.a(microbit-ios.o) (nrf51__events__enable_interrupt)
D:\programming\ada_projects\ravenscar_test\Ada_Drivers_Library\obj_lib_Debug\libada_drivers_library.a(nrf51-gpio-tasks_and_events.o)
                              D:\programming\ada_projects\ravenscar_test\Ada_Drivers_Library\obj_lib_Debug\libada_drivers_library.a(microbit-ios.o) (nrf51__gpio__tasks_and_events__disable)
D:\programming\ada_projects\ravenscar_test\Ada_Drivers_Library\obj_lib_Debug\libada_drivers_library.a(nrf51-gpio.o)
                              D:\programming\ada_projects\ravenscar_test\Ada_Drivers_Library\obj_lib_Debug\libada_drivers_library.a(microbit-ios.o) (nrf51__gpio__gpio_configurationIP)
D:\programming\ada_projects\ravenscar_test\Ada_Drivers_Library\obj_lib_Debug\libada_drivers_library.a(nrf51-interrupts.o)
                              D:\programming\ada_projects\ravenscar_test\Ada_Drivers_Library\obj_lib_Debug\libada_drivers_library.a(microbit-ios.o) (nrf51__interrupts__enable)
D:\programming\ada_projects\ravenscar_test\Ada_Drivers_Library\obj_lib_Debug\libada_drivers_library.a(nrf51-ppi.o)
                              D:\programming\ada_projects\ravenscar_test\Ada_Drivers_Library\obj_lib_Debug\libada_drivers_library.a(microbit-ios.o) (nrf51__ppi__configure)
D:\programming\ada_projects\ravenscar_test\Ada_Drivers_Library\obj_lib_Debug\libada_drivers_library.a(nrf51-rtc.o)
                              D:\programming\ada_projects\ravenscar_test\Ada_Drivers_Library\obj_lib_Debug\libada_drivers_library.a(nrf51-device.o) (nrf51__rtc__real_time_counterIP)
D:\programming\ada_projects\ravenscar_test\Ada_Drivers_Library\obj_lib_Debug\libada_drivers_library.a(nrf51-tasks.o)
                              D:\programming\ada_projects\ravenscar_test\Ada_Drivers_Library\obj_lib_Debug\libada_drivers_library.a(nrf51-adc.o) (nrf51__tasks__trigger)
D:\programming\ada_projects\ravenscar_test\Ada_Drivers_Library\obj_lib_Debug\libada_drivers_library.a(nrf51-timers.o)
                              D:\programming\ada_projects\ravenscar_test\Ada_Drivers_Library\obj_lib_Debug\libada_drivers_library.a(nrf51-device.o) (nrf51__timers__timerIP)
D:\programming\ada_projects\ravenscar_test\Ada_Drivers_Library\obj_lib_Debug\libada_drivers_library.a(nrf51-twi.o)
                              D:\programming\ada_projects\ravenscar_test\Ada_Drivers_Library\obj_lib_Debug\libada_drivers_library.a(nrf51-device.o) (nrf51__twi__twi_masterIP)
D:\programming\ada_projects\ravenscar_test\Ada_Drivers_Library\obj_lib_Debug\libada_drivers_library.a(nrf51_svd-gpio.o)
                              D:\programming\ada_projects\ravenscar_test\Ada_Drivers_Library\obj_lib_Debug\libada_drivers_library.a(nrf51-gpio.o) (nrf51_svd__gpio__pin_cnf_pull_fieldRP)
D:\programming\ada_projects\ravenscar_test\Ada_Drivers_Library\obj_lib_Debug\libada_drivers_library.a(nrf51_svd-twi.o)
                              D:\programming\ada_projects\ravenscar_test\Ada_Drivers_Library\obj_lib_Debug\libada_drivers_library.a(nrf51-twi.o) (nrf51_svd__twi__errorsrc_registerIP)
D:\programming\ada_projects\ravenscar_test\Ada_Drivers_Library\obj_lib_Debug\libada_drivers_library.a(hal-gpio.o)
                              D:\programming\ada_projects\ravenscar_test\Ada_Drivers_Library\obj_lib_Debug\libada_drivers_library.a(nrf51-gpio.o) (hal__gpio__gpio_pointT)
D:\programming\ada_projects\ravenscar_test\Ada_Drivers_Library\obj_lib_Debug\libada_drivers_library.a(hal-i2c.o)
                              D:\programming\ada_projects\ravenscar_test\Ada_Drivers_Library\obj_lib_Debug\libada_drivers_library.a(nrf51-twi.o) (hal__i2c__i2c_portT)
D:\gnat\2018-arm-elf\arm-eabi\lib\gnat\ravenscar-sfp-microbit\adalib\libgnarl.a(a-reatim.o)
                              b__main.o (ada__real_time___elabb)
D:\gnat\2018-arm-elf\arm-eabi\lib\gnat\ravenscar-sfp-microbit\adalib\libgnarl.a(s-bbbosu.o)
                              D:\gnat\2018-arm-elf\arm-eabi\lib\gnat\ravenscar-sfp-microbit\adalib\libgnarl.a(a-reatim.o) (system__bb__board_support__time__read_clock)
D:\gnat\2018-arm-elf\arm-eabi\lib\gnat\ravenscar-sfp-microbit\adalib\libgnarl.a(s-bbcppr.o)
                              D:\gnat\2018-arm-elf\arm-eabi\lib\gnat\ravenscar-sfp-microbit\adalib\libgnarl.a(s-bbbosu.o) (system__bb__cpu_primitives__install_trap_handler)
D:\gnat\2018-arm-elf\arm-eabi\lib\gnat\ravenscar-sfp-microbit\adalib\libgnarl.a(s-bbinte.o)
                              D:\gnat\2018-arm-elf\arm-eabi\lib\gnat\ravenscar-sfp-microbit\adalib\libgnarl.a(s-bbbosu.o) (system__bb__interrupts__interrupt_wrapper)
D:\gnat\2018-arm-elf\arm-eabi\lib\gnat\ravenscar-sfp-microbit\adalib\libgnarl.a(s-bbthqu.o)
                              D:\gnat\2018-arm-elf\arm-eabi\lib\gnat\ravenscar-sfp-microbit\adalib\libgnarl.a(s-bbinte.o) (system__bb__threads__queues__change_priority)
D:\gnat\2018-arm-elf\arm-eabi\lib\gnat\ravenscar-sfp-microbit\adalib\libgnarl.a(s-bbtime.o)
                              D:\gnat\2018-arm-elf\arm-eabi\lib\gnat\ravenscar-sfp-microbit\adalib\libgnarl.a(a-reatim.o) (system__bb__time__software_clock)
D:\gnat\2018-arm-elf\arm-eabi\lib\gnat\ravenscar-sfp-microbit\adalib\libgnarl.a(s-bcpcst.o)
                              D:\gnat\2018-arm-elf\arm-eabi\lib\gnat\ravenscar-sfp-microbit\adalib\libgnarl.a(s-bbcppr.o) (system__bb__cpu_primitives__context_switch_trigger__initialize_context_switch)
D:\gnat\2018-arm-elf\arm-eabi\lib\gnat\ravenscar-sfp-microbit\adalib\libgnarl.a(s-taskin.o)
                              D:\gnat\2018-arm-elf\arm-eabi\lib\gnat\ravenscar-sfp-microbit\adalib\libgnarl.a(a-reatim.o) (system__tasking__initialize)
D:\gnat\2018-arm-elf\arm-eabi\lib\gnat\ravenscar-sfp-microbit\adalib\libgnarl.a(s-bbprot.o)
                              D:\gnat\2018-arm-elf\arm-eabi\lib\gnat\ravenscar-sfp-microbit\adalib\libgnarl.a(s-bbtime.o) (system__bb__protection__leave_kernel)
D:\gnat\2018-arm-elf\arm-eabi\lib\gnat\ravenscar-sfp-microbit\adalib\libgnarl.a(s-bbthre.o)
                              D:\gnat\2018-arm-elf\arm-eabi\lib\gnat\ravenscar-sfp-microbit\adalib\libgnarl.a(s-taskin.o) (system__bb__threads__initialize)
D:\gnat\2018-arm-elf\arm-eabi\lib\gnat\ravenscar-sfp-microbit\adalib\libgnarl.a(s-bbtiev.o)
                              D:\gnat\2018-arm-elf\arm-eabi\lib\gnat\ravenscar-sfp-microbit\adalib\libgnarl.a(s-bbtime.o) (system__bb__timing_events__execute_expired_timing_events)
D:\gnat\2018-arm-elf\arm-eabi\lib\gnat\ravenscar-sfp-microbit\adalib\libgnarl.a(s-taprop.o)
                              D:\gnat\2018-arm-elf\arm-eabi\lib\gnat\ravenscar-sfp-microbit\adalib\libgnarl.a(s-taskin.o) (system__task_primitives__operations(int, double, long,...))
D:\gnat\2018-arm-elf\arm-eabi\lib\gnat\ravenscar-sfp-microbit\adalib\libgnarl.a(s-tasdeb.o)
                              D:\gnat\2018-arm-elf\arm-eabi\lib\gnat\ravenscar-sfp-microbit\adalib\libgnarl.a(s-taskin.o) (system__tasking__debug__last_task)
D:\gnat\2018-arm-elf\arm-eabi\lib\gnat\ravenscar-sfp-microbit\adalib\libgnat.a(a-elchha.o)
                              D:\programming\ada_projects\ravenscar_test\Ada_Drivers_Library\obj_lib_Debug\libada_drivers_library.a(cortex_m-nvic.o) (__gnat_last_chance_handler)
D:\gnat\2018-arm-elf\arm-eabi\lib\gnat\ravenscar-sfp-microbit\adalib\libgnat.a(a-except.o)
                              D:\programming\ada_projects\ravenscar_test\Ada_Drivers_Library\obj_lib_Debug\libada_drivers_library.a(microbit-ios.o) (ada__exceptions__empty_c_string___UNC)
D:\gnat\2018-arm-elf\arm-eabi\lib\gnat\ravenscar-sfp-microbit\adalib\libgnat.a(g-io.o)
                              D:\gnat\2018-arm-elf\arm-eabi\lib\gnat\ravenscar-sfp-microbit\adalib\libgnat.a(a-elchha.o) (gnat__io__put__2)
D:\gnat\2018-arm-elf\arm-eabi\lib\gnat\ravenscar-sfp-microbit\adalib\libgnat.a(s-assert.o)
                              D:\programming\ada_projects\ravenscar_test\Ada_Drivers_Library\obj_lib_Debug\libada_drivers_library.a(microbit-ios.o) (system__assertions__raise_assert_failure)
D:\gnat\2018-arm-elf\arm-eabi\lib\gnat\ravenscar-sfp-microbit\adalib\libgnat.a(s-macres.o)
                              D:\gnat\2018-arm-elf\arm-eabi\lib\gnat\ravenscar-sfp-microbit\adalib\libgnat.a(a-elchha.o) (system__machine_reset__stop)
D:\gnat\2018-arm-elf\arm-eabi\lib\gnat\ravenscar-sfp-microbit\adalib\libgnat.a(s-memcop.o)
                              D:\programming\ada_projects\ravenscar_test\Ada_Drivers_Library\obj_lib_Debug\libada_drivers_library.a(microbit-ios.o) (memcpy)
D:\gnat\2018-arm-elf\arm-eabi\lib\gnat\ravenscar-sfp-microbit\adalib\libgnat.a(s-memset.o)
                              D:\gnat\2018-arm-elf\arm-eabi\lib\gnat\ravenscar-sfp-microbit\adalib\libgnarl.a(s-bbcppr.o) (memset)
D:\gnat\2018-arm-elf\arm-eabi\lib\gnat\ravenscar-sfp-microbit\adalib\libgnat.a(s-parame.o)
                              D:\gnat\2018-arm-elf\arm-eabi\lib\gnat\ravenscar-sfp-microbit\adalib\libgnarl.a(s-taskin.o) (system__parameters__adjust_storage_size)
D:\gnat\2018-arm-elf\arm-eabi\lib\gnat\ravenscar-sfp-microbit\adalib\libgnat.a(s-secsta.o)
                              b__main.o (system__secondary_stack__ss_stackIP)
D:\gnat\2018-arm-elf\arm-eabi\lib\gnat\ravenscar-sfp-microbit\adalib\libgnat.a(s-textio.o)
                              D:\gnat\2018-arm-elf\arm-eabi\lib\gnat\ravenscar-sfp-microbit\adalib\libgnat.a(g-io.o) (system__text_io__is_tx_ready)
D:\gnat\2018-arm-elf\arm-eabi\lib\gnat\ravenscar-sfp-microbit\adalib\libgnat.a(start-rom.o)
                              (_start_rom)
D:\gnat\2018-arm-elf\arm-eabi\lib\gnat\ravenscar-sfp-microbit\adalib\libgnat.a(handler.o)
                              D:\gnat\2018-arm-elf\arm-eabi\lib\gnat\ravenscar-sfp-microbit\adalib\libgnat.a(start-rom.o) (__vectors)
D:\gnat\2018-arm-elf\arm-eabi\lib\gnat\ravenscar-sfp-microbit\adalib\libgnat.a(breakpoint_handler-cortexm.o)
                              D:\gnat\2018-arm-elf\arm-eabi\lib\gnat\ravenscar-sfp-microbit\adalib\libgnat.a(handler.o) (__gnat_bkpt_trap)
d:/gnat/2018-arm-elf/bin/../lib/gcc/arm-eabi/7.3.1/thumb/v6-m\libgcc.a(_divsi3.o)
                              D:\gnat\2018-arm-elf\arm-eabi\lib\gnat\ravenscar-sfp-microbit\adalib\libgnat.a(g-io.o) (__aeabi_idiv)
d:/gnat/2018-arm-elf/bin/../lib/gcc/arm-eabi/7.3.1/thumb/v6-m\libgcc.a(_dvmd_tls.o)
                              d:/gnat/2018-arm-elf/bin/../lib/gcc/arm-eabi/7.3.1/thumb/v6-m\libgcc.a(_divsi3.o) (__aeabi_idiv0)
d:/gnat/2018-arm-elf/bin/../lib/gcc/arm-eabi/7.3.1/thumb/v6-m\libgcc.a(_arm_cmpsf2.o)
                              D:\programming\ada_projects\ravenscar_test\Ada_Drivers_Library\obj_lib_Debug\libada_drivers_library.a(microbit-ios.o) (__aeabi_fcmple)
d:/gnat/2018-arm-elf/bin/../lib/gcc/arm-eabi/7.3.1/thumb/v6-m\libgcc.a(_aeabi_ldivmod.o)
                              D:\gnat\2018-arm-elf\arm-eabi\lib\gnat\ravenscar-sfp-microbit\adalib\libgnarl.a(a-reatim.o) (__aeabi_ldivmod)
d:/gnat/2018-arm-elf/bin/../lib/gcc/arm-eabi/7.3.1/thumb/v6-m\libgcc.a(_aeabi_uldivmod.o)
                              D:\gnat\2018-arm-elf\arm-eabi\lib\gnat\ravenscar-sfp-microbit\adalib\libgnarl.a(a-reatim.o) (__aeabi_uldivmod)
d:/gnat/2018-arm-elf/bin/../lib/gcc/arm-eabi/7.3.1/thumb/v6-m\libgcc.a(_muldi3.o)
                              D:\gnat\2018-arm-elf\arm-eabi\lib\gnat\ravenscar-sfp-microbit\adalib\libgnarl.a(a-reatim.o) (__aeabi_lmul)
d:/gnat/2018-arm-elf/bin/../lib/gcc/arm-eabi/7.3.1/thumb/v6-m\libgcc.a(_fixunssfsi.o)
                              D:\programming\ada_projects\ravenscar_test\Ada_Drivers_Library\obj_lib_Debug\libada_drivers_library.a(microbit-ios.o) (__aeabi_f2uiz)
d:/gnat/2018-arm-elf/bin/../lib/gcc/arm-eabi/7.3.1/thumb/v6-m\libgcc.a(_udivmoddi4.o)
                              d:/gnat/2018-arm-elf/bin/../lib/gcc/arm-eabi/7.3.1/thumb/v6-m\libgcc.a(_aeabi_uldivmod.o) (__udivmoddi4)
d:/gnat/2018-arm-elf/bin/../lib/gcc/arm-eabi/7.3.1/thumb/v6-m\libgcc.a(bpabi.o)
                              d:/gnat/2018-arm-elf/bin/../lib/gcc/arm-eabi/7.3.1/thumb/v6-m\libgcc.a(_aeabi_ldivmod.o) (__gnu_ldivmod_helper)
d:/gnat/2018-arm-elf/bin/../lib/gcc/arm-eabi/7.3.1/thumb/v6-m\libgcc.a(addsf3.o)
                              D:\programming\ada_projects\ravenscar_test\Ada_Drivers_Library\obj_lib_Debug\libada_drivers_library.a(microbit-ios.o) (__aeabi_fadd)
d:/gnat/2018-arm-elf/bin/../lib/gcc/arm-eabi/7.3.1/thumb/v6-m\libgcc.a(divsf3.o)
                              D:\programming\ada_projects\ravenscar_test\Ada_Drivers_Library\obj_lib_Debug\libada_drivers_library.a(microbit-ios.o) (__aeabi_fdiv)
d:/gnat/2018-arm-elf/bin/../lib/gcc/arm-eabi/7.3.1/thumb/v6-m\libgcc.a(eqsf2.o)
                              d:/gnat/2018-arm-elf/bin/../lib/gcc/arm-eabi/7.3.1/thumb/v6-m\libgcc.a(_arm_cmpsf2.o) (__eqsf2)
d:/gnat/2018-arm-elf/bin/../lib/gcc/arm-eabi/7.3.1/thumb/v6-m\libgcc.a(gesf2.o)
                              d:/gnat/2018-arm-elf/bin/../lib/gcc/arm-eabi/7.3.1/thumb/v6-m\libgcc.a(_arm_cmpsf2.o) (__gesf2)
d:/gnat/2018-arm-elf/bin/../lib/gcc/arm-eabi/7.3.1/thumb/v6-m\libgcc.a(lesf2.o)
                              d:/gnat/2018-arm-elf/bin/../lib/gcc/arm-eabi/7.3.1/thumb/v6-m\libgcc.a(_arm_cmpsf2.o) (__lesf2)
d:/gnat/2018-arm-elf/bin/../lib/gcc/arm-eabi/7.3.1/thumb/v6-m\libgcc.a(mulsf3.o)
                              D:\programming\ada_projects\ravenscar_test\Ada_Drivers_Library\obj_lib_Debug\libada_drivers_library.a(microbit-ios.o) (__aeabi_fmul)
d:/gnat/2018-arm-elf/bin/../lib/gcc/arm-eabi/7.3.1/thumb/v6-m\libgcc.a(subsf3.o)
                              D:\programming\ada_projects\ravenscar_test\Ada_Drivers_Library\obj_lib_Debug\libada_drivers_library.a(microbit-ios.o) (__aeabi_fsub)
d:/gnat/2018-arm-elf/bin/../lib/gcc/arm-eabi/7.3.1/thumb/v6-m\libgcc.a(unordsf2.o)
                              D:\programming\ada_projects\ravenscar_test\Ada_Drivers_Library\obj_lib_Debug\libada_drivers_library.a(microbit-ios.o) (__aeabi_fcmpun)
d:/gnat/2018-arm-elf/bin/../lib/gcc/arm-eabi/7.3.1/thumb/v6-m\libgcc.a(fixsfsi.o)
                              d:/gnat/2018-arm-elf/bin/../lib/gcc/arm-eabi/7.3.1/thumb/v6-m\libgcc.a(_fixunssfsi.o) (__aeabi_f2iz)
d:/gnat/2018-arm-elf/bin/../lib/gcc/arm-eabi/7.3.1/thumb/v6-m\libgcc.a(floatsisf.o)
                              D:\programming\ada_projects\ravenscar_test\Ada_Drivers_Library\obj_lib_Debug\libada_drivers_library.a(microbit-ios.o) (__aeabi_i2f)
d:/gnat/2018-arm-elf/bin/../lib/gcc/arm-eabi/7.3.1/thumb/v6-m\libgcc.a(floatunsisf.o)
                              D:\programming\ada_projects\ravenscar_test\Ada_Drivers_Library\obj_lib_Debug\libada_drivers_library.a(microbit-ios.o) (__aeabi_ui2f)
d:/gnat/2018-arm-elf/bin/../lib/gcc/arm-eabi/7.3.1/thumb/v6-m\libgcc.a(_clzsi2.o)
                              d:/gnat/2018-arm-elf/bin/../lib/gcc/arm-eabi/7.3.1/thumb/v6-m\libgcc.a(addsf3.o) (__clzsi2)
d:/gnat/2018-arm-elf/bin/../lib/gcc/arm-eabi/7.3.1/thumb/v6-m\libgcc.a(_clzdi2.o)
                              d:/gnat/2018-arm-elf/bin/../lib/gcc/arm-eabi/7.3.1/thumb/v6-m\libgcc.a(_udivmoddi4.o) (__clzdi2)
d:/gnat/2018-arm-elf/bin/../lib/gcc/arm-eabi/7.3.1/thumb/v6-m\libgcc.a(_divdi3.o)
                              d:/gnat/2018-arm-elf/bin/../lib/gcc/arm-eabi/7.3.1/thumb/v6-m\libgcc.a(bpabi.o) (__divdi3)

Memory Configuration

Name             Origin             Length             Attributes
flash            0x0000000000000000 0x0000000000040000 xr
ram              0x0000000020000000 0x0000000000004000 xrw
*default*        0x0000000000000000 0xffffffffffffffff

Linker script and memory map

LOAD main.o
LOAD b__main.o
LOAD D:\programming\ada_projects\ravenscar_test\Ada_Drivers_Library\obj_lib_Debug\libada_drivers_library.a
LOAD D:\gnat\2018-arm-elf\arm-eabi\lib\gnat\ravenscar-sfp-microbit\adalib\libgnarl.a
LOAD D:\gnat\2018-arm-elf\arm-eabi\lib\gnat\ravenscar-sfp-microbit\adalib\libgnat.a
START GROUP
LOAD d:/gnat/2018-arm-elf/bin/../lib/gcc/arm-eabi/7.3.1/thumb/v6-m\libgcc.a
END GROUP
                0x0000000000000000                __DYNAMIC = 0x0
                0x0000000000000400                _DEFAULT_STACK_SIZE = 0x400

.text           0x0000000000000000     0x921c
 *(.vectors)
 .vectors       0x0000000000000000       0xa8 D:\gnat\2018-arm-elf\arm-eabi\lib\gnat\ravenscar-sfp-microbit\adalib\libgnat.a(handler.o)
                0x0000000000000000                __vectors
 *(.text .text.* .gnu.linkonce.t*)
 .text          0x00000000000000a8        0xc main.o
                0x00000000000000a8                _ada_main
 .text          0x00000000000000b4      0x1cc b__main.o
                0x00000000000000b4                ada_main__Tsec_default_sized_stacksBIP
                0x00000000000000fc                adainit
                0x0000000000000244                main
                0x0000000000000260                ada_main___elabb
 .text          0x0000000000000280        0x0 D:\programming\ada_projects\ravenscar_test\Ada_Drivers_Library\obj_lib_Debug\libada_drivers_library.a(cortex_m-nvic.o)
 .text.cortex_m__nvic__set_priority
                0x0000000000000280       0xbc D:\programming\ada_projects\ravenscar_test\Ada_Drivers_Library\obj_lib_Debug\libada_drivers_library.a(cortex_m-nvic.o)
                0x0000000000000280                cortex_m__nvic__set_priority
 .text.cortex_m__nvic__set_priority__as_arrayIP.4241
                0x000000000000033c       0x68 D:\programming\ada_projects\ravenscar_test\Ada_Drivers_Library\obj_lib_Debug\libada_drivers_library.a(cortex_m-nvic.o)
 .text.cortex_m__nvic__enable
                0x00000000000003a4       0x20 D:\programming\ada_projects\ravenscar_test\Ada_Drivers_Library\obj_lib_Debug\libada_drivers_library.a(cortex_m-nvic.o)
                0x00000000000003a4                cortex_m__nvic__enable
 .text.cortex_m__nvic__disable
                0x00000000000003c4       0x20 D:\programming\ada_projects\ravenscar_test\Ada_Drivers_Library\obj_lib_Debug\libada_drivers_library.a(cortex_m-nvic.o)
                0x00000000000003c4                cortex_m__nvic__disable
 .text.cortex_m__nvic__enabled
                0x00000000000003e4       0x2c D:\programming\ada_projects\ravenscar_test\Ada_Drivers_Library\obj_lib_Debug\libada_drivers_library.a(cortex_m-nvic.o)
                0x00000000000003e4                cortex_m__nvic__enabled
 .text.cortex_m__nvic__pending
                0x0000000000000410       0x30 D:\programming\ada_projects\ravenscar_test\Ada_Drivers_Library\obj_lib_Debug\libada_drivers_library.a(cortex_m-nvic.o)
                0x0000000000000410                cortex_m__nvic__pending
 .text.cortex_m__nvic__set_pending
                0x0000000000000440       0x20 D:\programming\ada_projects\ravenscar_test\Ada_Drivers_Library\obj_lib_Debug\libada_drivers_library.a(cortex_m-nvic.o)
                0x0000000000000440                cortex_m__nvic__set_pending
 .text.cortex_m__nvic__clear_pending
                0x0000000000000460       0x20 D:\programming\ada_projects\ravenscar_test\Ada_Drivers_Library\obj_lib_Debug\libada_drivers_library.a(cortex_m-nvic.o)
                0x0000000000000460                cortex_m__nvic__clear_pending
 .text          0x0000000000000480        0x0 D:\programming\ada_projects\ravenscar_test\Ada_Drivers_Library\obj_lib_Debug\libada_drivers_library.a(microbit-ios.o)
 .text.microbit__ios__supports
                0x0000000000000480       0xe8 D:\programming\ada_projects\ravenscar_test\Ada_Drivers_Library\obj_lib_Debug\libada_drivers_library.a(microbit-ios.o)
                0x0000000000000480                microbit__ios__supports
 .text.microbit__ios__pwm_statusIP
                0x0000000000000568       0x1c D:\programming\ada_projects\ravenscar_test\Ada_Drivers_Library\obj_lib_Debug\libada_drivers_library.a(microbit-ios.o)
                0x0000000000000568                microbit__ios__pwm_statusIP
 .text.microbit__ios__TpwmsBIP
                0x0000000000000584       0x48 D:\programming\ada_projects\ravenscar_test\Ada_Drivers_Library\obj_lib_Debug\libada_drivers_library.a(microbit-ios.o)
                0x0000000000000584                microbit__ios__TpwmsBIP
 .text.microbit__ios__to_compare_value
                0x00000000000005cc      0x1a4 D:\programming\ada_projects\ravenscar_test\Ada_Drivers_Library\obj_lib_Debug\libada_drivers_library.a(microbit-ios.o)
 .text.microbit__ios__allocate_pwm
                0x0000000000000770      0x104 D:\programming\ada_projects\ravenscar_test\Ada_Drivers_Library\obj_lib_Debug\libada_drivers_library.a(microbit-ios.o)
 .text.microbit__ios__deallocate_pwm___postconditions.4920
                0x0000000000000874       0x38 D:\programming\ada_projects\ravenscar_test\Ada_Drivers_Library\obj_lib_Debug\libada_drivers_library.a(microbit-ios.o)
 .text.microbit__ios__deallocate_pwm
                0x00000000000008ac       0xe8 D:\programming\ada_projects\ravenscar_test\Ada_Drivers_Library\obj_lib_Debug\libada_drivers_library.a(microbit-ios.o)
 .text.microbit__ios__configure_ppi
                0x0000000000000994       0xa8 D:\programming\ada_projects\ravenscar_test\Ada_Drivers_Library\obj_lib_Debug\libada_drivers_library.a(microbit-ios.o)
 .text.microbit__ios__configure_gpiote
                0x0000000000000a3c       0x4c D:\programming\ada_projects\ravenscar_test\Ada_Drivers_Library\obj_lib_Debug\libada_drivers_library.a(microbit-ios.o)
 .text.microbit__ios__pwm_timer_handler
                0x0000000000000a88       0x68 D:\programming\ada_projects\ravenscar_test\Ada_Drivers_Library\obj_lib_Debug\libada_drivers_library.a(microbit-ios.o)
 .text.microbit__ios__init_pwm_timer
                0x0000000000000af0       0xe4 D:\programming\ada_projects\ravenscar_test\Ada_Drivers_Library\obj_lib_Debug\libada_drivers_library.a(microbit-ios.o)
 .text.microbit__ios__set
                0x0000000000000bd4      0x120 D:\programming\ada_projects\ravenscar_test\Ada_Drivers_Library\obj_lib_Debug\libada_drivers_library.a(microbit-ios.o)
                0x0000000000000bd4                microbit__ios__set
 .text.microbit__ios__set__2
                0x0000000000000cf4      0x100 D:\programming\ada_projects\ravenscar_test\Ada_Drivers_Library\obj_lib_Debug\libada_drivers_library.a(microbit-ios.o)
                0x0000000000000cf4                microbit__ios__set__2
 .text.microbit__ios__set_analog_period_us
                0x0000000000000df4       0x64 D:\programming\ada_projects\ravenscar_test\Ada_Drivers_Library\obj_lib_Debug\libada_drivers_library.a(microbit-ios.o)
                0x0000000000000df4                microbit__ios__set_analog_period_us
 .text.microbit__ios__write
                0x0000000000000e58      0x364 D:\programming\ada_projects\ravenscar_test\Ada_Drivers_Library\obj_lib_Debug\libada_drivers_library.a(microbit-ios.o)
                0x0000000000000e58                microbit__ios__write
 .text.microbit__ios__analog__2
                0x00000000000011bc      0x100 D:\programming\ada_projects\ravenscar_test\Ada_Drivers_Library\obj_lib_Debug\libada_drivers_library.a(microbit-ios.o)
                0x00000000000011bc                microbit__ios__analog__2
 .text.microbit__ios__has_pwm
                0x00000000000012bc       0x2c D:\programming\ada_projects\ravenscar_test\Ada_Drivers_Library\obj_lib_Debug\libada_drivers_library.a(microbit-ios.o)
 .text.microbit__ios___elabb
                0x00000000000012e8      0x1dc D:\programming\ada_projects\ravenscar_test\Ada_Drivers_Library\obj_lib_Debug\libada_drivers_library.a(microbit-ios.o)
                0x00000000000012e8                microbit__ios___elabb
 .text          0x00000000000014c4        0x0 D:\programming\ada_projects\ravenscar_test\Ada_Drivers_Library\obj_lib_Debug\libada_drivers_library.a(nrf51-adc.o)
 .text.nrf51__adc__set_resolution
                0x00000000000014c4       0x84 D:\programming\ada_projects\ravenscar_test\Ada_Drivers_Library\obj_lib_Debug\libada_drivers_library.a(nrf51-adc.o)
 .text.nrf51__adc__set_reference
                0x0000000000001548      0x15c D:\programming\ada_projects\ravenscar_test\Ada_Drivers_Library\obj_lib_Debug\libada_drivers_library.a(nrf51-adc.o)
 .text.nrf51__adc__start_pin_conversion
                0x00000000000016a4      0x25c D:\programming\ada_projects\ravenscar_test\Ada_Drivers_Library\obj_lib_Debug\libada_drivers_library.a(nrf51-adc.o)
                0x00000000000016a4                nrf51__adc__start_pin_conversion
 .text.nrf51__adc__start_vdd_conversion
                0x0000000000001900       0xf4 D:\programming\ada_projects\ravenscar_test\Ada_Drivers_Library\obj_lib_Debug\libada_drivers_library.a(nrf51-adc.o)
                0x0000000000001900                nrf51__adc__start_vdd_conversion
 .text.nrf51__adc__busy
                0x00000000000019f4       0x2c D:\programming\ada_projects\ravenscar_test\Ada_Drivers_Library\obj_lib_Debug\libada_drivers_library.a(nrf51-adc.o)
                0x00000000000019f4                nrf51__adc__busy
 .text.nrf51__adc__wait_for_result
                0x0000000000001a20       0x64 D:\programming\ada_projects\ravenscar_test\Ada_Drivers_Library\obj_lib_Debug\libada_drivers_library.a(nrf51-adc.o)
                0x0000000000001a20                nrf51__adc__wait_for_result
 .text          0x0000000000001a84        0x0 D:\programming\ada_projects\ravenscar_test\Ada_Drivers_Library\obj_lib_Debug\libada_drivers_library.a(nrf51-device.o)
 .text.nrf51__device___elabs
                0x0000000000001a84      0x2a8 D:\programming\ada_projects\ravenscar_test\Ada_Drivers_Library\obj_lib_Debug\libada_drivers_library.a(nrf51-device.o)
                0x0000000000001a84                nrf51__device___elabs
 .text          0x0000000000001d2c        0x0 D:\programming\ada_projects\ravenscar_test\Ada_Drivers_Library\obj_lib_Debug\libada_drivers_library.a(nrf51-events.o)
 .text.nrf51__events__triggered
                0x0000000000001d2c       0x38 D:\programming\ada_projects\ravenscar_test\Ada_Drivers_Library\obj_lib_Debug\libada_drivers_library.a(nrf51-events.o)
                0x0000000000001d2c                nrf51__events__triggered
 .text.nrf51__events__enable_interrupt
                0x0000000000001d64       0x7c D:\programming\ada_projects\ravenscar_test\Ada_Drivers_Library\obj_lib_Debug\libada_drivers_library.a(nrf51-events.o)
                0x0000000000001d64                nrf51__events__enable_interrupt
 .text.nrf51__events__disable_interrupt
                0x0000000000001de0       0x7c D:\programming\ada_projects\ravenscar_test\Ada_Drivers_Library\obj_lib_Debug\libada_drivers_library.a(nrf51-events.o)
                0x0000000000001de0                nrf51__events__disable_interrupt
 .text.nrf51__events__clear
                0x0000000000001e5c       0x30 D:\programming\ada_projects\ravenscar_test\Ada_Drivers_Library\obj_lib_Debug\libada_drivers_library.a(nrf51-events.o)
                0x0000000000001e5c                nrf51__events__clear
 .text.nrf51__events__get_address
                0x0000000000001e8c       0x14 D:\programming\ada_projects\ravenscar_test\Ada_Drivers_Library\obj_lib_Debug\libada_drivers_library.a(nrf51-events.o)
                0x0000000000001e8c                nrf51__events__get_address
 .text.nrf51__events__get_address__2
                0x0000000000001ea0       0x14 D:\programming\ada_projects\ravenscar_test\Ada_Drivers_Library\obj_lib_Debug\libada_drivers_library.a(nrf51-events.o)
                0x0000000000001ea0                nrf51__events__get_address__2
 .text          0x0000000000001eb4        0x0 D:\programming\ada_projects\ravenscar_test\Ada_Drivers_Library\obj_lib_Debug\libada_drivers_library.a(nrf51-gpio-tasks_and_events.o)
 .text.nrf51__gpio__tasks_and_events__disable
                0x0000000000001eb4       0x44 D:\programming\ada_projects\ravenscar_test\Ada_Drivers_Library\obj_lib_Debug\libada_drivers_library.a(nrf51-gpio-tasks_and_events.o)
                0x0000000000001eb4                nrf51__gpio__tasks_and_events__disable
 .text.nrf51__gpio__tasks_and_events__enable_event
                0x0000000000001ef8      0x118 D:\programming\ada_projects\ravenscar_test\Ada_Drivers_Library\obj_lib_Debug\libada_drivers_library.a(nrf51-gpio-tasks_and_events.o)
                0x0000000000001ef8                nrf51__gpio__tasks_and_events__enable_event
 .text.nrf51__gpio__tasks_and_events__enable_task
                0x0000000000002010      0x17c D:\programming\ada_projects\ravenscar_test\Ada_Drivers_Library\obj_lib_Debug\libada_drivers_library.a(nrf51-gpio-tasks_and_events.o)
                0x0000000000002010                nrf51__gpio__tasks_and_events__enable_task
 .text.nrf51__gpio__tasks_and_events__out_task
                0x000000000000218c       0x28 D:\programming\ada_projects\ravenscar_test\Ada_Drivers_Library\obj_lib_Debug\libada_drivers_library.a(nrf51-gpio-tasks_and_events.o)
                0x000000000000218c                nrf51__gpio__tasks_and_events__out_task
 .text.nrf51__gpio__tasks_and_events__in_event
                0x00000000000021b4       0x2c D:\programming\ada_projects\ravenscar_test\Ada_Drivers_Library\obj_lib_Debug\libada_drivers_library.a(nrf51-gpio-tasks_and_events.o)
                0x00000000000021b4                nrf51__gpio__tasks_and_events__in_event
 .text          0x00000000000021e0        0x0 D:\programming\ada_projects\ravenscar_test\Ada_Drivers_Library\obj_lib_Debug\libada_drivers_library.a(nrf51-gpio.o)
 .text.nrf51__gpio__gpio_configurationIP
                0x00000000000021e0       0x20 D:\programming\ada_projects\ravenscar_test\Ada_Drivers_Library\obj_lib_Debug\libada_drivers_library.a(nrf51-gpio.o)
                0x00000000000021e0                nrf51__gpio__gpio_configurationIP
 .text.nrf51__gpio__gpio_pointIP
                0x0000000000002200       0x28 D:\programming\ada_projects\ravenscar_test\Ada_Drivers_Library\obj_lib_Debug\libada_drivers_library.a(nrf51-gpio.o)
                0x0000000000002200                nrf51__gpio__gpio_pointIP
 .text.nrf51__gpio___size
                0x0000000000002228       0x18 D:\programming\ada_projects\ravenscar_test\Ada_Drivers_Library\obj_lib_Debug\libada_drivers_library.a(nrf51-gpio.o)
                0x0000000000002228                nrf51__gpio___size
 .text.nrf51__gpio__Oeq
                0x0000000000002240       0x24 D:\programming\ada_projects\ravenscar_test\Ada_Drivers_Library\obj_lib_Debug\libada_drivers_library.a(nrf51-gpio.o)
                0x0000000000002240                nrf51__gpio__Oeq
 .text.nrf51__gpio___assign
                0x0000000000002264       0x20 D:\programming\ada_projects\ravenscar_test\Ada_Drivers_Library\obj_lib_Debug\libada_drivers_library.a(nrf51-gpio.o)
                0x0000000000002264                nrf51__gpio___assign
 .text.nrf51__gpio__support
                0x0000000000002284       0x30 D:\programming\ada_projects\ravenscar_test\Ada_Drivers_Library\obj_lib_Debug\libada_drivers_library.a(nrf51-gpio.o)
                0x0000000000002284                nrf51__gpio__support
 .text.nrf51__gpio__mode
                0x00000000000022b4       0x74 D:\programming\ada_projects\ravenscar_test\Ada_Drivers_Library\obj_lib_Debug\libada_drivers_library.a(nrf51-gpio.o)
                0x00000000000022b4                nrf51__gpio__mode
 .text.nrf51__gpio__set_mode
                0x0000000000002328      0x138 D:\programming\ada_projects\ravenscar_test\Ada_Drivers_Library\obj_lib_Debug\libada_drivers_library.a(nrf51-gpio.o)
                0x0000000000002328                nrf51__gpio__set_mode
 .text.nrf51__gpio__set
                0x0000000000002460       0x3c D:\programming\ada_projects\ravenscar_test\Ada_Drivers_Library\obj_lib_Debug\libada_drivers_library.a(nrf51-gpio.o)
                0x0000000000002460                nrf51__gpio__set
 .text.nrf51__gpio__pull_resistor
                0x000000000000249c       0x78 D:\programming\ada_projects\ravenscar_test\Ada_Drivers_Library\obj_lib_Debug\libada_drivers_library.a(nrf51-gpio.o)
                0x000000000000249c                nrf51__gpio__pull_resistor
 .text.nrf51__gpio__set_pull_resistor
                0x0000000000002514       0xec D:\programming\ada_projects\ravenscar_test\Ada_Drivers_Library\obj_lib_Debug\libada_drivers_library.a(nrf51-gpio.o)
                0x0000000000002514                nrf51__gpio__set_pull_resistor
 .text.nrf51__gpio__set__2
                0x0000000000002600       0x64 D:\programming\ada_projects\ravenscar_test\Ada_Drivers_Library\obj_lib_Debug\libada_drivers_library.a(nrf51-gpio.o)
                0x0000000000002600                nrf51__gpio__set__2
 .text.nrf51__gpio__clear
                0x0000000000002664       0x64 D:\programming\ada_projects\ravenscar_test\Ada_Drivers_Library\obj_lib_Debug\libada_drivers_library.a(nrf51-gpio.o)
                0x0000000000002664                nrf51__gpio__clear
 .text.nrf51__gpio__toggle
                0x00000000000026c8       0x54 D:\programming\ada_projects\ravenscar_test\Ada_Drivers_Library\obj_lib_Debug\libada_drivers_library.a(nrf51-gpio.o)
                0x00000000000026c8                nrf51__gpio__toggle
 .text.nrf51__gpio__configure_io
                0x000000000000271c      0x2a4 D:\programming\ada_projects\ravenscar_test\Ada_Drivers_Library\obj_lib_Debug\libada_drivers_library.a(nrf51-gpio.o)
                0x000000000000271c                nrf51__gpio__configure_io
 .text.nrf51__gpio___elabb
                0x00000000000029c0       0x3c D:\programming\ada_projects\ravenscar_test\Ada_Drivers_Library\obj_lib_Debug\libada_drivers_library.a(nrf51-gpio.o)
                0x00000000000029c0                nrf51__gpio___elabb
 .text          0x00000000000029fc        0x0 D:\programming\ada_projects\ravenscar_test\Ada_Drivers_Library\obj_lib_Debug\libada_drivers_library.a(nrf51-interrupts.o)
 .text.nrf51__interrupts__set_priority
                0x00000000000029fc       0x28 D:\programming\ada_projects\ravenscar_test\Ada_Drivers_Library\obj_lib_Debug\libada_drivers_library.a(nrf51-interrupts.o)
                0x00000000000029fc                nrf51__interrupts__set_priority
 .text.nrf51__interrupts__enable
                0x0000000000002a24       0x1c D:\programming\ada_projects\ravenscar_test\Ada_Drivers_Library\obj_lib_Debug\libada_drivers_library.a(nrf51-interrupts.o)
                0x0000000000002a24                nrf51__interrupts__enable
 .text.nrf51__interrupts__disable
                0x0000000000002a40       0x1c D:\programming\ada_projects\ravenscar_test\Ada_Drivers_Library\obj_lib_Debug\libada_drivers_library.a(nrf51-interrupts.o)
                0x0000000000002a40                nrf51__interrupts__disable
 .text.nrf51__interrupts__pending
                0x0000000000002a5c       0x24 D:\programming\ada_projects\ravenscar_test\Ada_Drivers_Library\obj_lib_Debug\libada_drivers_library.a(nrf51-interrupts.o)
                0x0000000000002a5c                nrf51__interrupts__pending
 .text.nrf51__interrupts__register
                0x0000000000002a80       0x3c D:\programming\ada_projects\ravenscar_test\Ada_Drivers_Library\obj_lib_Debug\libada_drivers_library.a(nrf51-interrupts.o)
                0x0000000000002a80                nrf51__interrupts__register
 .text.__gnat_irq_trap
                0x0000000000002abc       0x6c D:\programming\ada_projects\ravenscar_test\Ada_Drivers_Library\obj_lib_Debug\libada_drivers_library.a(nrf51-interrupts.o)
                0x0000000000002abc                __gnat_irq_trap
 .text          0x0000000000002b28        0x0 D:\programming\ada_projects\ravenscar_test\Ada_Drivers_Library\obj_lib_Debug\libada_drivers_library.a(nrf51-ppi.o)
 .text.nrf51__ppi__configure
                0x0000000000002b28       0x6c D:\programming\ada_projects\ravenscar_test\Ada_Drivers_Library\obj_lib_Debug\libada_drivers_library.a(nrf51-ppi.o)
                0x0000000000002b28                nrf51__ppi__configure
 .text.nrf51__ppi__enable_channel
                0x0000000000002b94       0x70 D:\programming\ada_projects\ravenscar_test\Ada_Drivers_Library\obj_lib_Debug\libada_drivers_library.a(nrf51-ppi.o)
                0x0000000000002b94                nrf51__ppi__enable_channel
 .text.nrf51__ppi__disable_channel
                0x0000000000002c04       0x70 D:\programming\ada_projects\ravenscar_test\Ada_Drivers_Library\obj_lib_Debug\libada_drivers_library.a(nrf51-ppi.o)
                0x0000000000002c04                nrf51__ppi__disable_channel
 .text.nrf51__ppi__add_to_group
                0x0000000000002c74       0x94 D:\programming\ada_projects\ravenscar_test\Ada_Drivers_Library\obj_lib_Debug\libada_drivers_library.a(nrf51-ppi.o)
                0x0000000000002c74                nrf51__ppi__add_to_group
 .text.nrf51__ppi__remove_from_group
                0x0000000000002d08       0x98 D:\programming\ada_projects\ravenscar_test\Ada_Drivers_Library\obj_lib_Debug\libada_drivers_library.a(nrf51-ppi.o)
                0x0000000000002d08                nrf51__ppi__remove_from_group
 .text.nrf51__ppi__enable_group
                0x0000000000002da0       0x30 D:\programming\ada_projects\ravenscar_test\Ada_Drivers_Library\obj_lib_Debug\libada_drivers_library.a(nrf51-ppi.o)
                0x0000000000002da0                nrf51__ppi__enable_group
 .text.nrf51__ppi__disable_group
                0x0000000000002dd0       0x34 D:\programming\ada_projects\ravenscar_test\Ada_Drivers_Library\obj_lib_Debug\libada_drivers_library.a(nrf51-ppi.o)
                0x0000000000002dd0                nrf51__ppi__disable_group
 .text          0x0000000000002e04        0x0 D:\programming\ada_projects\ravenscar_test\Ada_Drivers_Library\obj_lib_Debug\libada_drivers_library.a(nrf51-rtc.o)
 .text.nrf51__rtc__real_time_counterIP
                0x0000000000002e04       0x18 D:\programming\ada_projects\ravenscar_test\Ada_Drivers_Library\obj_lib_Debug\libada_drivers_library.a(nrf51-rtc.o)
                0x0000000000002e04                nrf51__rtc__real_time_counterIP
 .text.nrf51__rtc__start
                0x0000000000002e1c       0x14 D:\programming\ada_projects\ravenscar_test\Ada_Drivers_Library\obj_lib_Debug\libada_drivers_library.a(nrf51-rtc.o)
                0x0000000000002e1c                nrf51__rtc__start
 .text.nrf51__rtc__stop
                0x0000000000002e30       0x14 D:\programming\ada_projects\ravenscar_test\Ada_Drivers_Library\obj_lib_Debug\libada_drivers_library.a(nrf51-rtc.o)
                0x0000000000002e30                nrf51__rtc__stop
 .text.nrf51__rtc__clear
                0x0000000000002e44       0x14 D:\programming\ada_projects\ravenscar_test\Ada_Drivers_Library\obj_lib_Debug\libada_drivers_library.a(nrf51-rtc.o)
                0x0000000000002e44                nrf51__rtc__clear
 .text.nrf51__rtc__set_prescaler
                0x0000000000002e58       0x44 D:\programming\ada_projects\ravenscar_test\Ada_Drivers_Library\obj_lib_Debug\libada_drivers_library.a(nrf51-rtc.o)
                0x0000000000002e58                nrf51__rtc__set_prescaler
 .text.nrf51__rtc__counter
                0x0000000000002e9c       0x24 D:\programming\ada_projects\ravenscar_test\Ada_Drivers_Library\obj_lib_Debug\libada_drivers_library.a(nrf51-rtc.o)
                0x0000000000002e9c                nrf51__rtc__counter
 .text.nrf51__rtc__set_compare
                0x0000000000002ec0       0x50 D:\programming\ada_projects\ravenscar_test\Ada_Drivers_Library\obj_lib_Debug\libada_drivers_library.a(nrf51-rtc.o)
                0x0000000000002ec0                nrf51__rtc__set_compare
 .text.nrf51__rtc__event
                0x0000000000002f10       0x78 D:\programming\ada_projects\ravenscar_test\Ada_Drivers_Library\obj_lib_Debug\libada_drivers_library.a(nrf51-rtc.o)
                0x0000000000002f10                nrf51__rtc__event
 .text.nrf51__rtc__enable_event
                0x0000000000002f88      0x21c D:\programming\ada_projects\ravenscar_test\Ada_Drivers_Library\obj_lib_Debug\libada_drivers_library.a(nrf51-rtc.o)
                0x0000000000002f88                nrf51__rtc__enable_event
 .text.nrf51__rtc__disable_event
                0x00000000000031a4      0x220 D:\programming\ada_projects\ravenscar_test\Ada_Drivers_Library\obj_lib_Debug\libada_drivers_library.a(nrf51-rtc.o)
                0x00000000000031a4                nrf51__rtc__disable_event
 .text          0x00000000000033c4        0x0 D:\programming\ada_projects\ravenscar_test\Ada_Drivers_Library\obj_lib_Debug\libada_drivers_library.a(nrf51-tasks.o)
 .text.nrf51__tasks__trigger
                0x00000000000033c4       0x30 D:\programming\ada_projects\ravenscar_test\Ada_Drivers_Library\obj_lib_Debug\libada_drivers_library.a(nrf51-tasks.o)
                0x00000000000033c4                nrf51__tasks__trigger
 .text.nrf51__tasks__get_address
                0x00000000000033f4       0x14 D:\programming\ada_projects\ravenscar_test\Ada_Drivers_Library\obj_lib_Debug\libada_drivers_library.a(nrf51-tasks.o)
                0x00000000000033f4                nrf51__tasks__get_address
 .text.nrf51__tasks__get_address__2
                0x0000000000003408       0x14 D:\programming\ada_projects\ravenscar_test\Ada_Drivers_Library\obj_lib_Debug\libada_drivers_library.a(nrf51-tasks.o)
                0x0000000000003408                nrf51__tasks__get_address__2
 .text          0x000000000000341c        0x0 D:\programming\ada_projects\ravenscar_test\Ada_Drivers_Library\obj_lib_Debug\libada_drivers_library.a(nrf51-timers.o)
 .text.nrf51__timers__timerIP
                0x000000000000341c       0x2c D:\programming\ada_projects\ravenscar_test\Ada_Drivers_Library\obj_lib_Debug\libada_drivers_library.a(nrf51-timers.o)
                0x000000000000341c                nrf51__timers__timerIP
 .text.nrf51__timers___size
                0x0000000000003448       0x18 D:\programming\ada_projects\ravenscar_test\Ada_Drivers_Library\obj_lib_Debug\libada_drivers_library.a(nrf51-timers.o)
                0x0000000000003448                nrf51__timers___size
 .text.nrf51__timers__Oeq
                0x0000000000003460       0x24 D:\programming\ada_projects\ravenscar_test\Ada_Drivers_Library\obj_lib_Debug\libada_drivers_library.a(nrf51-timers.o)
                0x0000000000003460                nrf51__timers__Oeq
 .text.nrf51__timers___assign
                0x0000000000003484       0x3c D:\programming\ada_projects\ravenscar_test\Ada_Drivers_Library\obj_lib_Debug\libada_drivers_library.a(nrf51-timers.o)
                0x0000000000003484                nrf51__timers___assign
 .text.nrf51__timers__start
                0x00000000000034c0       0x38 D:\programming\ada_projects\ravenscar_test\Ada_Drivers_Library\obj_lib_Debug\libada_drivers_library.a(nrf51-timers.o)
                0x00000000000034c0                nrf51__timers__start
 .text.nrf51__timers__stop
                0x00000000000034f8       0x38 D:\programming\ada_projects\ravenscar_test\Ada_Drivers_Library\obj_lib_Debug\libada_drivers_library.a(nrf51-timers.o)
                0x00000000000034f8                nrf51__timers__stop
 .text.nrf51__timers__clear
                0x0000000000003530       0x38 D:\programming\ada_projects\ravenscar_test\Ada_Drivers_Library\obj_lib_Debug\libada_drivers_library.a(nrf51-timers.o)
                0x0000000000003530                nrf51__timers__clear
 .text.nrf51__timers__set_prescaler
                0x0000000000003568       0x68 D:\programming\ada_projects\ravenscar_test\Ada_Drivers_Library\obj_lib_Debug\libada_drivers_library.a(nrf51-timers.o)
                0x0000000000003568                nrf51__timers__set_prescaler
 .text.nrf51__timers__set_mode
                0x00000000000035d0       0x84 D:\programming\ada_projects\ravenscar_test\Ada_Drivers_Library\obj_lib_Debug\libada_drivers_library.a(nrf51-timers.o)
                0x00000000000035d0                nrf51__timers__set_mode
 .text.nrf51__timers__set_bitmode___postconditions.4913
                0x0000000000003654       0x3c D:\programming\ada_projects\ravenscar_test\Ada_Drivers_Library\obj_lib_Debug\libada_drivers_library.a(nrf51-timers.o)
 .text.nrf51__timers__set_bitmode
                0x0000000000003690       0xc0 D:\programming\ada_projects\ravenscar_test\Ada_Drivers_Library\obj_lib_Debug\libada_drivers_library.a(nrf51-timers.o)
                0x0000000000003690                nrf51__timers__set_bitmode
 .text.nrf51__timers__bitmode
                0x0000000000003750       0x70 D:\programming\ada_projects\ravenscar_test\Ada_Drivers_Library\obj_lib_Debug\libada_drivers_library.a(nrf51-timers.o)
                0x0000000000003750                nrf51__timers__bitmode
 .text.nrf51__timers__compare_interrupt
                0x00000000000037c0      0x124 D:\programming\ada_projects\ravenscar_test\Ada_Drivers_Library\obj_lib_Debug\libada_drivers_library.a(nrf51-timers.o)
                0x00000000000037c0                nrf51__timers__compare_interrupt
 .text.nrf51__timers__compare_shortcut
                0x00000000000038e4      0x274 D:\programming\ada_projects\ravenscar_test\Ada_Drivers_Library\obj_lib_Debug\libada_drivers_library.a(nrf51-timers.o)
                0x00000000000038e4                nrf51__timers__compare_shortcut
 .text.nrf51__timers__set_compare
                0x0000000000003b58       0x50 D:\programming\ada_projects\ravenscar_test\Ada_Drivers_Library\obj_lib_Debug\libada_drivers_library.a(nrf51-timers.o)
                0x0000000000003b58                nrf51__timers__set_compare
 .text.nrf51__timers__capture
                0x0000000000003ba8       0x48 D:\programming\ada_projects\ravenscar_test\Ada_Drivers_Library\obj_lib_Debug\libada_drivers_library.a(nrf51-timers.o)
                0x0000000000003ba8                nrf51__timers__capture
 .text.nrf51__timers__capture__2
                0x0000000000003bf0       0x5c D:\programming\ada_projects\ravenscar_test\Ada_Drivers_Library\obj_lib_Debug\libada_drivers_library.a(nrf51-timers.o)
                0x0000000000003bf0                nrf51__timers__capture__2
 .text.nrf51__timers__cc_register
                0x0000000000003c4c       0x4c D:\programming\ada_projects\ravenscar_test\Ada_Drivers_Library\obj_lib_Debug\libada_drivers_library.a(nrf51-timers.o)
                0x0000000000003c4c                nrf51__timers__cc_register
 .text.nrf51__timers__start_task
                0x0000000000003c98       0x18 D:\programming\ada_projects\ravenscar_test\Ada_Drivers_Library\obj_lib_Debug\libada_drivers_library.a(nrf51-timers.o)
                0x0000000000003c98                nrf51__timers__start_task
 .text.nrf51__timers__stop_task
                0x0000000000003cb0       0x18 D:\programming\ada_projects\ravenscar_test\Ada_Drivers_Library\obj_lib_Debug\libada_drivers_library.a(nrf51-timers.o)
                0x0000000000003cb0                nrf51__timers__stop_task
 .text.nrf51__timers__count_task
                0x0000000000003cc8       0x18 D:\programming\ada_projects\ravenscar_test\Ada_Drivers_Library\obj_lib_Debug\libada_drivers_library.a(nrf51-timers.o)
                0x0000000000003cc8                nrf51__timers__count_task
 .text.nrf51__timers__clear_task
                0x0000000000003ce0       0x18 D:\programming\ada_projects\ravenscar_test\Ada_Drivers_Library\obj_lib_Debug\libada_drivers_library.a(nrf51-timers.o)
                0x0000000000003ce0                nrf51__timers__clear_task
 .text.nrf51__timers__capture_task
                0x0000000000003cf8       0x28 D:\programming\ada_projects\ravenscar_test\Ada_Drivers_Library\obj_lib_Debug\libada_drivers_library.a(nrf51-timers.o)
                0x0000000000003cf8                nrf51__timers__capture_task
 .text.nrf51__timers__compare_event
                0x0000000000003d20       0x28 D:\programming\ada_projects\ravenscar_test\Ada_Drivers_Library\obj_lib_Debug\libada_drivers_library.a(nrf51-timers.o)
                0x0000000000003d20                nrf51__timers__compare_event
 .text.nrf51__timers___elabb
                0x0000000000003d48       0x8c D:\programming\ada_projects\ravenscar_test\Ada_Drivers_Library\obj_lib_Debug\libada_drivers_library.a(nrf51-timers.o)
                0x0000000000003d48                nrf51__timers___elabb
 .text          0x0000000000003dd4        0x0 D:\programming\ada_projects\ravenscar_test\Ada_Drivers_Library\obj_lib_Debug\libada_drivers_library.a(nrf51-twi.o)
 .text.nrf51__twi__twi_masterIP
                0x0000000000003dd4       0x34 D:\programming\ada_projects\ravenscar_test\Ada_Drivers_Library\obj_lib_Debug\libada_drivers_library.a(nrf51-twi.o)
                0x0000000000003dd4                nrf51__twi__twi_masterIP
 .text.nrf51__twi___size__2
                0x0000000000003e08       0x18 D:\programming\ada_projects\ravenscar_test\Ada_Drivers_Library\obj_lib_Debug\libada_drivers_library.a(nrf51-twi.o)
                0x0000000000003e08                nrf51__twi___size__2
 .text.nrf51__twi__Oeq
                0x0000000000003e20       0x3c D:\programming\ada_projects\ravenscar_test\Ada_Drivers_Library\obj_lib_Debug\libada_drivers_library.a(nrf51-twi.o)
                0x0000000000003e20                nrf51__twi__Oeq
 .text.nrf51__twi___assign
                0x0000000000003e5c       0x3c D:\programming\ada_projects\ravenscar_test\Ada_Drivers_Library\obj_lib_Debug\libada_drivers_library.a(nrf51-twi.o)
                0x0000000000003e5c                nrf51__twi___assign
 .text.nrf51__twi__stop_sequence
                0x0000000000003e98       0x34 D:\programming\ada_projects\ravenscar_test\Ada_Drivers_Library\obj_lib_Debug\libada_drivers_library.a(nrf51-twi.o)
 .text.nrf51__twi__enable
                0x0000000000003ecc       0x58 D:\programming\ada_projects\ravenscar_test\Ada_Drivers_Library\obj_lib_Debug\libada_drivers_library.a(nrf51-twi.o)
                0x0000000000003ecc                nrf51__twi__enable
 .text.nrf51__twi__disable
                0x0000000000003f24       0x54 D:\programming\ada_projects\ravenscar_test\Ada_Drivers_Library\obj_lib_Debug\libada_drivers_library.a(nrf51-twi.o)
                0x0000000000003f24                nrf51__twi__disable
 .text.nrf51__twi__enabled
                0x0000000000003f78       0x50 D:\programming\ada_projects\ravenscar_test\Ada_Drivers_Library\obj_lib_Debug\libada_drivers_library.a(nrf51-twi.o)
                0x0000000000003f78                nrf51__twi__enabled
 .text.nrf51__twi__configure
                0x0000000000003fc8       0x94 D:\programming\ada_projects\ravenscar_test\Ada_Drivers_Library\obj_lib_Debug\libada_drivers_library.a(nrf51-twi.o)
                0x0000000000003fc8                nrf51__twi__configure
 .text.nrf51__twi__disconnect
                0x000000000000405c       0x4c D:\programming\ada_projects\ravenscar_test\Ada_Drivers_Library\obj_lib_Debug\libada_drivers_library.a(nrf51-twi.o)
                0x000000000000405c                nrf51__twi__disconnect
 .text.nrf51__twi__master_transmit
                0x00000000000040a8      0x298 D:\programming\ada_projects\ravenscar_test\Ada_Drivers_Library\obj_lib_Debug\libada_drivers_library.a(nrf51-twi.o)
                0x00000000000040a8                nrf51__twi__master_transmit
 .text.nrf51__twi__master_receive
                0x0000000000004340      0x2d8 D:\programming\ada_projects\ravenscar_test\Ada_Drivers_Library\obj_lib_Debug\libada_drivers_library.a(nrf51-twi.o)
                0x0000000000004340                nrf51__twi__master_receive
 .text.nrf51__twi__mem_write
                0x0000000000004618      0x23c D:\programming\ada_projects\ravenscar_test\Ada_Drivers_Library\obj_lib_Debug\libada_drivers_library.a(nrf51-twi.o)
                0x0000000000004618                nrf51__twi__mem_write
 .text.nrf51__twi__mem_read
                0x0000000000004854      0x23c D:\programming\ada_projects\ravenscar_test\Ada_Drivers_Library\obj_lib_Debug\libada_drivers_library.a(nrf51-twi.o)
                0x0000000000004854                nrf51__twi__mem_read
 .text.nrf51__twi___elabb
                0x0000000000004a90       0x64 D:\programming\ada_projects\ravenscar_test\Ada_Drivers_Library\obj_lib_Debug\libada_drivers_library.a(nrf51-twi.o)
                0x0000000000004a90                nrf51__twi___elabb
 .text          0x0000000000004af4        0x0 D:\programming\ada_projects\ravenscar_test\Ada_Drivers_Library\obj_lib_Debug\libada_drivers_library.a(nrf51_svd-gpio.o)
 .text.nrf51_svd__gpio__pin_cnf_pull_fieldRP
                0x0000000000004af4       0x3c D:\programming\ada_projects\ravenscar_test\Ada_Drivers_Library\obj_lib_Debug\libada_drivers_library.a(nrf51_svd-gpio.o)
                0x0000000000004af4                nrf51_svd__gpio__pin_cnf_pull_fieldRP
 .text.nrf51_svd__gpio__pin_cnf_sense_fieldRP
                0x0000000000004b30       0x3c D:\programming\ada_projects\ravenscar_test\Ada_Drivers_Library\obj_lib_Debug\libada_drivers_library.a(nrf51_svd-gpio.o)
                0x0000000000004b30                nrf51_svd__gpio__pin_cnf_sense_fieldRP
 .text.nrf51_svd__gpio__Tout_pin_field_arrayBIP
                0x0000000000004b6c       0x10 D:\programming\ada_projects\ravenscar_test\Ada_Drivers_Library\obj_lib_Debug\libada_drivers_library.a(nrf51_svd-gpio.o)
                0x0000000000004b6c                nrf51_svd__gpio__Tout_pin_field_arrayBIP
 .text.nrf51_svd__gpio__out_registerEQ__E65s.5370
                0x0000000000004b7c       0x40 D:\programming\ada_projects\ravenscar_test\Ada_Drivers_Library\obj_lib_Debug\libada_drivers_library.a(nrf51_svd-gpio.o)
 .text.nrf51_svd__gpio__out_registerEQ
                0x0000000000004bbc       0x80 D:\programming\ada_projects\ravenscar_test\Ada_Drivers_Library\obj_lib_Debug\libada_drivers_library.a(nrf51_svd-gpio.o)
                0x0000000000004bbc                nrf51_svd__gpio__out_registerEQ
 .text.nrf51_svd__gpio__out_registerIP
                0x0000000000004c3c       0x14 D:\programming\ada_projects\ravenscar_test\Ada_Drivers_Library\obj_lib_Debug\libada_drivers_library.a(nrf51_svd-gpio.o)
                0x0000000000004c3c                nrf51_svd__gpio__out_registerIP
 .text.nrf51_svd__gpio__Toutset_pin_field_arrayBIP
                0x0000000000004c50       0x10 D:\programming\ada_projects\ravenscar_test\Ada_Drivers_Library\obj_lib_Debug\libada_drivers_library.a(nrf51_svd-gpio.o)
                0x0000000000004c50                nrf51_svd__gpio__Toutset_pin_field_arrayBIP
 .text.nrf51_svd__gpio__outset_registerEQ__E83s.5377
                0x0000000000004c60       0x40 D:\programming\ada_projects\ravenscar_test\Ada_Drivers_Library\obj_lib_Debug\libada_drivers_library.a(nrf51_svd-gpio.o)
 .text.nrf51_svd__gpio__outset_registerEQ
                0x0000000000004ca0       0x80 D:\programming\ada_projects\ravenscar_test\Ada_Drivers_Library\obj_lib_Debug\libada_drivers_library.a(nrf51_svd-gpio.o)
                0x0000000000004ca0                nrf51_svd__gpio__outset_registerEQ
 .text.nrf51_svd__gpio__outset_registerIP
                0x0000000000004d20       0x14 D:\programming\ada_projects\ravenscar_test\Ada_Drivers_Library\obj_lib_Debug\libada_drivers_library.a(nrf51_svd-gpio.o)
                0x0000000000004d20                nrf51_svd__gpio__outset_registerIP
 .text.nrf51_svd__gpio__Toutclr_pin_field_arrayBIP
                0x0000000000004d34       0x10 D:\programming\ada_projects\ravenscar_test\Ada_Drivers_Library\obj_lib_Debug\libada_drivers_library.a(nrf51_svd-gpio.o)
                0x0000000000004d34                nrf51_svd__gpio__Toutclr_pin_field_arrayBIP
 .text.nrf51_svd__gpio__outclr_registerEQ__E101s.5384
                0x0000000000004d44       0x40 D:\programming\ada_projects\ravenscar_test\Ada_Drivers_Library\obj_lib_Debug\libada_drivers_library.a(nrf51_svd-gpio.o)
 .text.nrf51_svd__gpio__outclr_registerEQ
                0x0000000000004d84       0x80 D:\programming\ada_projects\ravenscar_test\Ada_Drivers_Library\obj_lib_Debug\libada_drivers_library.a(nrf51_svd-gpio.o)
                0x0000000000004d84                nrf51_svd__gpio__outclr_registerEQ
 .text.nrf51_svd__gpio__outclr_registerIP
                0x0000000000004e04       0x14 D:\programming\ada_projects\ravenscar_test\Ada_Drivers_Library\obj_lib_Debug\libada_drivers_library.a(nrf51_svd-gpio.o)
                0x0000000000004e04                nrf51_svd__gpio__outclr_registerIP
 .text.nrf51_svd__gpio__Tin_pin_field_arrayBIP
                0x0000000000004e18       0x10 D:\programming\ada_projects\ravenscar_test\Ada_Drivers_Library\obj_lib_Debug\libada_drivers_library.a(nrf51_svd-gpio.o)
                0x0000000000004e18                nrf51_svd__gpio__Tin_pin_field_arrayBIP
 .text.nrf51_svd__gpio__in_registerEQ__E119s.5391
                0x0000000000004e28       0x40 D:\programming\ada_projects\ravenscar_test\Ada_Drivers_Library\obj_lib_Debug\libada_drivers_library.a(nrf51_svd-gpio.o)
 .text.nrf51_svd__gpio__in_registerEQ
                0x0000000000004e68       0x80 D:\programming\ada_projects\ravenscar_test\Ada_Drivers_Library\obj_lib_Debug\libada_drivers_library.a(nrf51_svd-gpio.o)
                0x0000000000004e68                nrf51_svd__gpio__in_registerEQ
 .text.nrf51_svd__gpio__in_registerIP
                0x0000000000004ee8       0x14 D:\programming\ada_projects\ravenscar_test\Ada_Drivers_Library\obj_lib_Debug\libada_drivers_library.a(nrf51_svd-gpio.o)
                0x0000000000004ee8                nrf51_svd__gpio__in_registerIP
 .text.nrf51_svd__gpio__Tdir_pin_field_arrayBIP
                0x0000000000004efc       0x10 D:\programming\ada_projects\ravenscar_test\Ada_Drivers_Library\obj_lib_Debug\libada_drivers_library.a(nrf51_svd-gpio.o)
                0x0000000000004efc                nrf51_svd__gpio__Tdir_pin_field_arrayBIP
 .text.nrf51_svd__gpio__dir_registerEQ__E137s.5398
                0x0000000000004f0c       0x40 D:\programming\ada_projects\ravenscar_test\Ada_Drivers_Library\obj_lib_Debug\libada_drivers_library.a(nrf51_svd-gpio.o)
 .text.nrf51_svd__gpio__dir_registerEQ
                0x0000000000004f4c       0x80 D:\programming\ada_projects\ravenscar_test\Ada_Drivers_Library\obj_lib_Debug\libada_drivers_library.a(nrf51_svd-gpio.o)
                0x0000000000004f4c                nrf51_svd__gpio__dir_registerEQ
 .text.nrf51_svd__gpio__dir_registerIP
                0x0000000000004fcc       0x14 D:\programming\ada_projects\ravenscar_test\Ada_Drivers_Library\obj_lib_Debug\libada_drivers_library.a(nrf51_svd-gpio.o)
                0x0000000000004fcc                nrf51_svd__gpio__dir_registerIP
 .text.nrf51_svd__gpio__Tdirset_pin_field_arrayBIP
                0x0000000000004fe0       0x10 D:\programming\ada_projects\ravenscar_test\Ada_Drivers_Library\obj_lib_Debug\libada_drivers_library.a(nrf51_svd-gpio.o)
                0x0000000000004fe0                nrf51_svd__gpio__Tdirset_pin_field_arrayBIP
 .text.nrf51_svd__gpio__dirset_registerEQ__E155s.5405
                0x0000000000004ff0       0x40 D:\programming\ada_projects\ravenscar_test\Ada_Drivers_Library\obj_lib_Debug\libada_drivers_library.a(nrf51_svd-gpio.o)
 .text.nrf51_svd__gpio__dirset_registerEQ
                0x0000000000005030       0x80 D:\programming\ada_projects\ravenscar_test\Ada_Drivers_Library\obj_lib_Debug\libada_drivers_library.a(nrf51_svd-gpio.o)
                0x0000000000005030                nrf51_svd__gpio__dirset_registerEQ
 .text.nrf51_svd__gpio__dirset_registerIP
                0x00000000000050b0       0x14 D:\programming\ada_projects\ravenscar_test\Ada_Drivers_Library\obj_lib_Debug\libada_drivers_library.a(nrf51_svd-gpio.o)
                0x00000000000050b0                nrf51_svd__gpio__dirset_registerIP
 .text.nrf51_svd__gpio__Tdirclr_pin_field_arrayBIP
                0x00000000000050c4       0x10 D:\programming\ada_projects\ravenscar_test\Ada_Drivers_Library\obj_lib_Debug\libada_drivers_library.a(nrf51_svd-gpio.o)
                0x00000000000050c4                nrf51_svd__gpio__Tdirclr_pin_field_arrayBIP
 .text.nrf51_svd__gpio__dirclr_registerEQ__E173s.5412
                0x00000000000050d4       0x40 D:\programming\ada_projects\ravenscar_test\Ada_Drivers_Library\obj_lib_Debug\libada_drivers_library.a(nrf51_svd-gpio.o)
 .text.nrf51_svd__gpio__dirclr_registerEQ
                0x0000000000005114       0x80 D:\programming\ada_projects\ravenscar_test\Ada_Drivers_Library\obj_lib_Debug\libada_drivers_library.a(nrf51_svd-gpio.o)
                0x0000000000005114                nrf51_svd__gpio__dirclr_registerEQ
 .text.nrf51_svd__gpio__dirclr_registerIP
                0x0000000000005194       0x14 D:\programming\ada_projects\ravenscar_test\Ada_Drivers_Library\obj_lib_Debug\libada_drivers_library.a(nrf51_svd-gpio.o)
                0x0000000000005194                nrf51_svd__gpio__dirclr_registerIP
 .text.nrf51_svd__gpio__pin_cnf_registerIP
                0x00000000000051a8       0x8c D:\programming\ada_projects\ravenscar_test\Ada_Drivers_Library\obj_lib_Debug\libada_drivers_library.a(nrf51_svd-gpio.o)
                0x00000000000051a8                nrf51_svd__gpio__pin_cnf_registerIP
 .text.nrf51_svd__gpio__Tpin_cnf_registersBIP
                0x0000000000005234       0x3c D:\programming\ada_projects\ravenscar_test\Ada_Drivers_Library\obj_lib_Debug\libada_drivers_library.a(nrf51_svd-gpio.o)
                0x0000000000005234                nrf51_svd__gpio__Tpin_cnf_registersBIP
 .text.nrf51_svd__gpio__gpio_peripheralEQ
                0x0000000000005270       0x20 D:\programming\ada_projects\ravenscar_test\Ada_Drivers_Library\obj_lib_Debug\libada_drivers_library.a(nrf51_svd-gpio.o)
                0x0000000000005270                nrf51_svd__gpio__gpio_peripheralEQ
 .text.nrf51_svd__gpio__gpio_peripheralIP
                0x0000000000005290       0xb0 D:\programming\ada_projects\ravenscar_test\Ada_Drivers_Library\obj_lib_Debug\libada_drivers_library.a(nrf51_svd-gpio.o)
                0x0000000000005290                nrf51_svd__gpio__gpio_peripheralIP
 .text          0x0000000000005340        0x0 D:\programming\ada_projects\ravenscar_test\Ada_Drivers_Library\obj_lib_Debug\libada_drivers_library.a(nrf51_svd-twi.o)
 .text.nrf51_svd__twi__enable_enable_fieldRP
                0x0000000000005340       0x34 D:\programming\ada_projects\ravenscar_test\Ada_Drivers_Library\obj_lib_Debug\libada_drivers_library.a(nrf51_svd-twi.o)
                0x0000000000005340                nrf51_svd__twi__enable_enable_fieldRP
 .text.nrf51_svd__twi__shorts_registerIP
                0x0000000000005374       0x38 D:\programming\ada_projects\ravenscar_test\Ada_Drivers_Library\obj_lib_Debug\libada_drivers_library.a(nrf51_svd-twi.o)
                0x0000000000005374                nrf51_svd__twi__shorts_registerIP
 .text.nrf51_svd__twi__intenset_registerIP
                0x00000000000053ac       0xd0 D:\programming\ada_projects\ravenscar_test\Ada_Drivers_Library\obj_lib_Debug\libada_drivers_library.a(nrf51_svd-twi.o)
                0x00000000000053ac                nrf51_svd__twi__intenset_registerIP
 .text.nrf51_svd__twi__intenclr_registerIP
                0x000000000000547c       0xd0 D:\programming\ada_projects\ravenscar_test\Ada_Drivers_Library\obj_lib_Debug\libada_drivers_library.a(nrf51_svd-twi.o)
                0x000000000000547c                nrf51_svd__twi__intenclr_registerIP
 .text.nrf51_svd__twi__errorsrc_registerIP
                0x000000000000554c       0x48 D:\programming\ada_projects\ravenscar_test\Ada_Drivers_Library\obj_lib_Debug\libada_drivers_library.a(nrf51_svd-twi.o)
                0x000000000000554c                nrf51_svd__twi__errorsrc_registerIP
 .text.nrf51_svd__twi__enable_registerIP
                0x0000000000005594       0x2c D:\programming\ada_projects\ravenscar_test\Ada_Drivers_Library\obj_lib_Debug\libada_drivers_library.a(nrf51_svd-twi.o)
                0x0000000000005594                nrf51_svd__twi__enable_registerIP
 .text.nrf51_svd__twi__rxd_registerIP
                0x00000000000055c0       0x10 D:\programming\ada_projects\ravenscar_test\Ada_Drivers_Library\obj_lib_Debug\libada_drivers_library.a(nrf51_svd-twi.o)
                0x00000000000055c0                nrf51_svd__twi__rxd_registerIP
 .text.nrf51_svd__twi__txd_registerIP
                0x00000000000055d0       0x2c D:\programming\ada_projects\ravenscar_test\Ada_Drivers_Library\obj_lib_Debug\libada_drivers_library.a(nrf51_svd-twi.o)
                0x00000000000055d0                nrf51_svd__twi__txd_registerIP
 .text.nrf51_svd__twi__address_registerIP
                0x00000000000055fc       0x2c D:\programming\ada_projects\ravenscar_test\Ada_Drivers_Library\obj_lib_Debug\libada_drivers_library.a(nrf51_svd-twi.o)
                0x00000000000055fc                nrf51_svd__twi__address_registerIP
 .text.nrf51_svd__twi__power_registerIP
                0x0000000000005628       0x2c D:\programming\ada_projects\ravenscar_test\Ada_Drivers_Library\obj_lib_Debug\libada_drivers_library.a(nrf51_svd-twi.o)
                0x0000000000005628                nrf51_svd__twi__power_registerIP
 .text.nrf51_svd__twi__twi_peripheralIP
                0x0000000000005654       0x94 D:\programming\ada_projects\ravenscar_test\Ada_Drivers_Library\obj_lib_Debug\libada_drivers_library.a(nrf51_svd-twi.o)
                0x0000000000005654                nrf51_svd__twi__twi_peripheralIP
 .text          0x00000000000056e8        0x0 D:\programming\ada_projects\ravenscar_test\Ada_Drivers_Library\obj_lib_Debug\libada_drivers_library.a(hal-gpio.o)
 .text          0x00000000000056e8        0x0 D:\programming\ada_projects\ravenscar_test\Ada_Drivers_Library\obj_lib_Debug\libada_drivers_library.a(hal-i2c.o)
 .text          0x00000000000056e8        0x0 D:\gnat\2018-arm-elf\arm-eabi\lib\gnat\ravenscar-sfp-microbit\adalib\libgnarl.a(a-reatim.o)
 .text.ada__real_time__mul_div
                0x00000000000056e8      0x124 D:\gnat\2018-arm-elf\arm-eabi\lib\gnat\ravenscar-sfp-microbit\adalib\libgnarl.a(a-reatim.o)
 .text.ada__real_time__Oadd__2
                0x000000000000580c       0x14 D:\gnat\2018-arm-elf\arm-eabi\lib\gnat\ravenscar-sfp-microbit\adalib\libgnarl.a(a-reatim.o)
                0x000000000000580c                ada__real_time__Oadd__2
 .text.ada__real_time__Omultiply
                0x0000000000005820       0xd4 D:\gnat\2018-arm-elf\arm-eabi\lib\gnat\ravenscar-sfp-microbit\adalib\libgnarl.a(a-reatim.o)
                0x0000000000005820                ada__real_time__Omultiply
 .text.ada__real_time__Omultiply__2
                0x00000000000058f4       0x10 D:\gnat\2018-arm-elf\arm-eabi\lib\gnat\ravenscar-sfp-microbit\adalib\libgnarl.a(a-reatim.o)
                0x00000000000058f4                ada__real_time__Omultiply__2
 .text.ada__real_time__Oadd
                0x0000000000005904       0xb0 D:\gnat\2018-arm-elf\arm-eabi\lib\gnat\ravenscar-sfp-microbit\adalib\libgnarl.a(a-reatim.o)
                0x0000000000005904                ada__real_time__Oadd
 .text.ada__real_time__Oadd__3
                0x00000000000059b4       0x3c D:\gnat\2018-arm-elf\arm-eabi\lib\gnat\ravenscar-sfp-microbit\adalib\libgnarl.a(a-reatim.o)
                0x00000000000059b4                ada__real_time__Oadd__3
 .text.ada__real_time__Osubtract
                0x00000000000059f0       0xa0 D:\gnat\2018-arm-elf\arm-eabi\lib\gnat\ravenscar-sfp-microbit\adalib\libgnarl.a(a-reatim.o)
                0x00000000000059f0                ada__real_time__Osubtract
 .text.ada__real_time__Osubtract__2
                0x0000000000005a90       0x6c D:\gnat\2018-arm-elf\arm-eabi\lib\gnat\ravenscar-sfp-microbit\adalib\libgnarl.a(a-reatim.o)
                0x0000000000005a90                ada__real_time__Osubtract__2
 .text.ada__real_time__Osubtract__3
                0x0000000000005afc       0x40 D:\gnat\2018-arm-elf\arm-eabi\lib\gnat\ravenscar-sfp-microbit\adalib\libgnarl.a(a-reatim.o)
                0x0000000000005afc                ada__real_time__Osubtract__3
 .text.ada__real_time__Osubtract__4
                0x0000000000005b3c       0x28 D:\gnat\2018-arm-elf\arm-eabi\lib\gnat\ravenscar-sfp-microbit\adalib\libgnarl.a(a-reatim.o)
                0x0000000000005b3c                ada__real_time__Osubtract__4
 .text.ada__real_time__Odivide
                0x0000000000005b64       0x54 D:\gnat\2018-arm-elf\arm-eabi\lib\gnat\ravenscar-sfp-microbit\adalib\libgnarl.a(a-reatim.o)
                0x0000000000005b64                ada__real_time(double &&, int, void, int, double,...)
 .text.ada__real_time__Odivide__2
                0x0000000000005bb8       0x3c D:\gnat\2018-arm-elf\arm-eabi\lib\gnat\ravenscar-sfp-microbit\adalib\libgnarl.a(a-reatim.o)
                0x0000000000005bb8                ada__real_time__Odivide__2
 .text.ada__real_time__clock
                0x0000000000005bf4       0x54 D:\gnat\2018-arm-elf\arm-eabi\lib\gnat\ravenscar-sfp-microbit\adalib\libgnarl.a(a-reatim.o)
                0x0000000000005bf4                ada__real_time__clock
 .text.ada__real_time__microseconds
                0x0000000000005c48       0x40 D:\gnat\2018-arm-elf\arm-eabi\lib\gnat\ravenscar-sfp-microbit\adalib\libgnarl.a(a-reatim.o)
                0x0000000000005c48                ada__real_time__microseconds
 .text.ada__real_time__milliseconds
                0x0000000000005c88       0x3c D:\gnat\2018-arm-elf\arm-eabi\lib\gnat\ravenscar-sfp-microbit\adalib\libgnarl.a(a-reatim.o)
                0x0000000000005c88                ada__real_time__milliseconds
 .text.ada__real_time__minutes
                0x0000000000005cc4       0x50 D:\gnat\2018-arm-elf\arm-eabi\lib\gnat\ravenscar-sfp-microbit\adalib\libgnarl.a(a-reatim.o)
                0x0000000000005cc4                ada__real_time__minutes
 .text.ada__real_time__nanoseconds
                0x0000000000005d14       0x40 D:\gnat\2018-arm-elf\arm-eabi\lib\gnat\ravenscar-sfp-microbit\adalib\libgnarl.a(a-reatim.o)
                0x0000000000005d14                ada__real_time__nanoseconds
 .text.ada__real_time__rounded_div
                0x0000000000005d54       0x50 D:\gnat\2018-arm-elf\arm-eabi\lib\gnat\ravenscar-sfp-microbit\adalib\libgnarl.a(a-reatim.o)
                0x0000000000005d54                ada__real_time__rounded_div
 .text.ada__real_time__seconds
                0x0000000000005da4       0x14 D:\gnat\2018-arm-elf\arm-eabi\lib\gnat\ravenscar-sfp-microbit\adalib\libgnarl.a(a-reatim.o)
                0x0000000000005da4                ada__real_time__seconds
 .text.ada__real_time__split
                0x0000000000005db8       0x40 D:\gnat\2018-arm-elf\arm-eabi\lib\gnat\ravenscar-sfp-microbit\adalib\libgnarl.a(a-reatim.o)
                0x0000000000005db8                ada__real_time__split
 .text.ada__real_time__time_of
                0x0000000000005df8      0x12c D:\gnat\2018-arm-elf\arm-eabi\lib\gnat\ravenscar-sfp-microbit\adalib\libgnarl.a(a-reatim.o)
                0x0000000000005df8                ada__real_time__time_of
 .text.ada__real_time__to_duration
                0x0000000000005f24       0x14 D:\gnat\2018-arm-elf\arm-eabi\lib\gnat\ravenscar-sfp-microbit\adalib\libgnarl.a(a-reatim.o)
                0x0000000000005f24                ada__real_time__to_duration
 .text.ada__real_time__to_time_span
                0x0000000000005f38       0x14 D:\gnat\2018-arm-elf\arm-eabi\lib\gnat\ravenscar-sfp-microbit\adalib\libgnarl.a(a-reatim.o)
                0x0000000000005f38                ada__real_time__to_time_span
 .text.ada__real_time___elabb
                0x0000000000005f4c        0x8 D:\gnat\2018-arm-elf\arm-eabi\lib\gnat\ravenscar-sfp-microbit\adalib\libgnarl.a(a-reatim.o)
                0x0000000000005f4c                ada__real_time___elabb
 .text          0x0000000000005f54        0x0 D:\gnat\2018-arm-elf\arm-eabi\lib\gnat\ravenscar-sfp-microbit\adalib\libgnarl.a(s-bbbosu.o)
 .text.system__bb__board_support__time__pre_alarm_handler
                0x0000000000005f54       0x1c D:\gnat\2018-arm-elf\arm-eabi\lib\gnat\ravenscar-sfp-microbit\adalib\libgnarl.a(s-bbbosu.o)
                0x0000000000005f54                system__bb__board_support__time__pre_alarm_handler
 .text.system__bb__board_support__interrupt_handler
                0x0000000000005f70       0x20 D:\gnat\2018-arm-elf\arm-eabi\lib\gnat\ravenscar-sfp-microbit\adalib\libgnarl.a(s-bbbosu.o)
                0x0000000000005f70                system__bb__board_support__interrupt_handler
 .text.system__bb__board_support__time__max_timer_interval
                0x0000000000005f90        0x8 D:\gnat\2018-arm-elf\arm-eabi\lib\gnat\ravenscar-sfp-microbit\adalib\libgnarl.a(s-bbbosu.o)
                0x0000000000005f90                system__bb__board_support__time__max_timer_interval
 .text.system__bb__board_support__time__read_clock
                0x0000000000005f98       0x1c D:\gnat\2018-arm-elf\arm-eabi\lib\gnat\ravenscar-sfp-microbit\adalib\libgnarl.a(s-bbbosu.o)
                0x0000000000005f98                system__bb__board_support__time__read_clock
 .text.system__bb__board_support__time__clear_alarm_interrupt
                0x0000000000005fb4       0x10 D:\gnat\2018-arm-elf\arm-eabi\lib\gnat\ravenscar-sfp-microbit\adalib\libgnarl.a(s-bbbosu.o)
                0x0000000000005fb4                system__bb__board_support__time__clear_alarm_interrupt
 .text.system__bb__board_support__time__set_alarm
                0x0000000000005fc4       0x20 D:\gnat\2018-arm-elf\arm-eabi\lib\gnat\ravenscar-sfp-microbit\adalib\libgnarl.a(s-bbbosu.o)
                0x0000000000005fc4                system__bb__board_support__time__set_alarm
 .text.system__bb__board_support__multiprocessors__number_of_cpus
                0x0000000000005fe4        0x4 D:\gnat\2018-arm-elf\arm-eabi\lib\gnat\ravenscar-sfp-microbit\adalib\libgnarl.a(s-bbbosu.o)
                0x0000000000005fe4                system__bb__board_support__multiprocessors__number_of_cpus
 .text.system__bb__board_support__multiprocessors__current_cpu
                0x0000000000005fe8        0x4 D:\gnat\2018-arm-elf\arm-eabi\lib\gnat\ravenscar-sfp-microbit\adalib\libgnarl.a(s-bbbosu.o)
                0x0000000000005fe8                system__bb__board_support__multiprocessors__current_cpu
 .text.system__bb__board_support__multiprocessors__poke_cpu
                0x0000000000005fec        0x4 D:\gnat\2018-arm-elf\arm-eabi\lib\gnat\ravenscar-sfp-microbit\adalib\libgnarl.a(s-bbbosu.o)
                0x0000000000005fec                system__bb__board_support__multiprocessors__poke_cpu
 .text.system__bb__board_support__multiprocessors__start_all_cpus
                0x0000000000005ff0        0x4 D:\gnat\2018-arm-elf\arm-eabi\lib\gnat\ravenscar-sfp-microbit\adalib\libgnarl.a(s-bbbosu.o)
                0x0000000000005ff0                system__bb__board_support__multiprocessors__start_all_cpus
 .text.system__bb__board_support__interrupts__priority_of_interrupt
                0x0000000000005ff4       0x24 D:\gnat\2018-arm-elf\arm-eabi\lib\gnat\ravenscar-sfp-microbit\adalib\libgnarl.a(s-bbbosu.o)
                0x0000000000005ff4                system__bb__board_support__interrupts__priority_of_interrupt
 .text.system__bb__board_support__interrupts__power_down
                0x0000000000006018        0x4 D:\gnat\2018-arm-elf\arm-eabi\lib\gnat\ravenscar-sfp-microbit\adalib\libgnarl.a(s-bbbosu.o)
                0x0000000000006018                system__bb__board_support__interrupts__power_down
 .text.system__bb__board_support__interrupts__set_current_priority
                0x000000000000601c       0x10 D:\gnat\2018-arm-elf\arm-eabi\lib\gnat\ravenscar-sfp-microbit\adalib\libgnarl.a(s-bbbosu.o)
                0x000000000000601c                system__bb__board_support__interrupts__set_current_priority
 .text.system__bb__board_support__TipBIP
                0x000000000000602c        0x4 D:\gnat\2018-arm-elf\arm-eabi\lib\gnat\ravenscar-sfp-microbit\adalib\libgnarl.a(s-bbbosu.o)
                0x000000000000602c                system__bb__board_support__TipBIP
 .text.system__bb__board_support__initialize_board
                0x0000000000006030       0x84 D:\gnat\2018-arm-elf\arm-eabi\lib\gnat\ravenscar-sfp-microbit\adalib\libgnarl.a(s-bbbosu.o)
                0x0000000000006030                system__bb__board_support__initialize_board
 .text.system__bb__board_support__enable_interrupt_request
                0x00000000000060b4       0x40 D:\gnat\2018-arm-elf\arm-eabi\lib\gnat\ravenscar-sfp-microbit\adalib\libgnarl.a(s-bbbosu.o)
                0x00000000000060b4                system__bb__board_support__enable_interrupt_request
 .text.system__bb__board_support__interrupts__install_interrupt_handler
                0x00000000000060f4       0x20 D:\gnat\2018-arm-elf\arm-eabi\lib\gnat\ravenscar-sfp-microbit\adalib\libgnarl.a(s-bbbosu.o)
                0x00000000000060f4                system__bb__board_support__interrupts__install_interrupt_handler
 .text.system__bb__board_support__time__install_alarm_handler
                0x0000000000006114       0x34 D:\gnat\2018-arm-elf\arm-eabi\lib\gnat\ravenscar-sfp-microbit\adalib\libgnarl.a(s-bbbosu.o)
                0x0000000000006114                system__bb__board_support__time__install_alarm_handler
 .text.system__bb__board_support__to_pri
                0x0000000000006148        0xc D:\gnat\2018-arm-elf\arm-eabi\lib\gnat\ravenscar-sfp-microbit\adalib\libgnarl.a(s-bbbosu.o)
                0x0000000000006148                system__bb__board_support__to_pri
 .text.system__bb__board_support__to_priority
                0x0000000000006154       0x14 D:\gnat\2018-arm-elf\arm-eabi\lib\gnat\ravenscar-sfp-microbit\adalib\libgnarl.a(s-bbbosu.o)
                0x0000000000006154                system__bb__board_support__to_priority
 .text          0x0000000000006168        0x0 D:\gnat\2018-arm-elf\arm-eabi\lib\gnat\ravenscar-sfp-microbit\adalib\libgnarl.a(s-bbcppr.o)
 .text.system__bb__cpu_primitives__gnat_error_handler
                0x0000000000006168      0x174 D:\gnat\2018-arm-elf\arm-eabi\lib\gnat\ravenscar-sfp-microbit\adalib\libgnarl.a(s-bbcppr.o)
                0x0000000000006168                system__bb__cpu_primitives__gnat_error_handler
 .text.system__bb__cpu_primitives__Tcontext_bufferBIP
                0x00000000000062dc        0x4 D:\gnat\2018-arm-elf\arm-eabi\lib\gnat\ravenscar-sfp-microbit\adalib\libgnarl.a(s-bbcppr.o)
                0x00000000000062dc                system__bb__cpu_primitives__Tcontext_bufferBIP
 .text.system__bb__cpu_primitives__hardware_contextIP
                0x00000000000062e0        0x4 D:\gnat\2018-arm-elf\arm-eabi\lib\gnat\ravenscar-sfp-microbit\adalib\libgnarl.a(s-bbcppr.o)
                0x00000000000062e0                system__bb__cpu_primitives__hardware_contextIP
 .text.primask  0x00000000000062e4        0x8 D:\gnat\2018-arm-elf\arm-eabi\lib\gnat\ravenscar-sfp-microbit\adalib\libgnarl.a(s-bbcppr.o)
                0x00000000000062e4                primask
 .text.system__bb__cpu_primitives__initialize_cpu
                0x00000000000062ec       0x70 D:\gnat\2018-arm-elf\arm-eabi\lib\gnat\ravenscar-sfp-microbit\adalib\libgnarl.a(s-bbcppr.o)
                0x00000000000062ec                system__bb__cpu_primitives__initialize_cpu
 .text.system__bb__cpu_primitives__context_switch
                0x000000000000635c        0x8 D:\gnat\2018-arm-elf\arm-eabi\lib\gnat\ravenscar-sfp-microbit\adalib\libgnarl.a(s-bbcppr.o)
                0x000000000000635c                system__bb__cpu_primitives__context_switch
 .text.system__bb__cpu_primitives__get_context
                0x0000000000006364        0x8 D:\gnat\2018-arm-elf\arm-eabi\lib\gnat\ravenscar-sfp-microbit\adalib\libgnarl.a(s-bbcppr.o)
                0x0000000000006364                system__bb__cpu_primitives__get_context
 .text.__gnat_irq_trap
                0x000000000000636c       0x38 D:\gnat\2018-arm-elf\arm-eabi\lib\gnat\ravenscar-sfp-microbit\adalib\libgnarl.a(s-bbcppr.o)
 .text.__gnat_sv_call_trap
                0x00000000000063a4        0x8 D:\gnat\2018-arm-elf\arm-eabi\lib\gnat\ravenscar-sfp-microbit\adalib\libgnarl.a(s-bbcppr.o)
                0x00000000000063a4                __gnat_sv_call_trap
 .text.system__bb__cpu_primitives__set_context
                0x00000000000063ac        0x8 D:\gnat\2018-arm-elf\arm-eabi\lib\gnat\ravenscar-sfp-microbit\adalib\libgnarl.a(s-bbcppr.o)
                0x00000000000063ac                system__bb__cpu_primitives__set_context
 .text.__gnat_sys_tick_trap
                0x00000000000063b4       0x58 D:\gnat\2018-arm-elf\arm-eabi\lib\gnat\ravenscar-sfp-microbit\adalib\libgnarl.a(s-bbcppr.o)
                0x00000000000063b4                __gnat_sys_tick_trap
 .text.system__bb__cpu_primitives__initialize_context
                0x000000000000640c       0x48 D:\gnat\2018-arm-elf\arm-eabi\lib\gnat\ravenscar-sfp-microbit\adalib\libgnarl.a(s-bbcppr.o)
                0x000000000000640c                system__bb__cpu_primitives__initialize_context
 .text.system__bb__cpu_primitives__install_error_handlers
                0x0000000000006454       0x1c D:\gnat\2018-arm-elf\arm-eabi\lib\gnat\ravenscar-sfp-microbit\adalib\libgnarl.a(s-bbcppr.o)
                0x0000000000006454                system__bb__cpu_primitives__install_error_handlers
 .text.system__bb__cpu_primitives__install_trap_handler
                0x0000000000006470        0xc D:\gnat\2018-arm-elf\arm-eabi\lib\gnat\ravenscar-sfp-microbit\adalib\libgnarl.a(s-bbcppr.o)
                0x0000000000006470                system__bb__cpu_primitives__install_trap_handler
 .text.system__bb__cpu_primitives__disable_interrupts
                0x000000000000647c        0x4 D:\gnat\2018-arm-elf\arm-eabi\lib\gnat\ravenscar-sfp-microbit\adalib\libgnarl.a(s-bbcppr.o)
                0x000000000000647c                system__bb__cpu_primitives__disable_interrupts
 .text.system__bb__cpu_primitives__enable_interrupts
                0x0000000000006480        0xc D:\gnat\2018-arm-elf\arm-eabi\lib\gnat\ravenscar-sfp-microbit\adalib\libgnarl.a(s-bbcppr.o)
                0x0000000000006480                system__bb__cpu_primitives__enable_interrupts
 .text          0x000000000000648c        0x0 D:\gnat\2018-arm-elf\arm-eabi\lib\gnat\ravenscar-sfp-microbit\adalib\libgnarl.a(s-bbinte.o)
 .text.system__bb__interrupts__Tinterrupt_stacksBIP
                0x000000000000648c        0x4 D:\gnat\2018-arm-elf\arm-eabi\lib\gnat\ravenscar-sfp-microbit\adalib\libgnarl.a(s-bbinte.o)
                0x000000000000648c                system__bb__interrupts__Tinterrupt_stacksBIP
 .text.system__bb__interrupts__Tinterrupt_stack_tableBIP
                0x0000000000006490        0x4 D:\gnat\2018-arm-elf\arm-eabi\lib\gnat\ravenscar-sfp-microbit\adalib\libgnarl.a(s-bbinte.o)
                0x0000000000006490                system__bb__interrupts__Tinterrupt_stack_tableBIP
 .text.system__bb__interrupts__attach_handler
                0x0000000000006494       0x1c D:\gnat\2018-arm-elf\arm-eabi\lib\gnat\ravenscar-sfp-microbit\adalib\libgnarl.a(s-bbinte.o)
                0x0000000000006494                system__bb__interrupts__attach_handler
 .text.system__bb__interrupts__current_interrupt
                0x00000000000064b0       0x20 D:\gnat\2018-arm-elf\arm-eabi\lib\gnat\ravenscar-sfp-microbit\adalib\libgnarl.a(s-bbinte.o)
                0x00000000000064b0                system__bb__interrupts__current_interrupt
 .text.system__bb__interrupts__interrupt_wrapper
                0x00000000000064d0       0xb4 D:\gnat\2018-arm-elf\arm-eabi\lib\gnat\ravenscar-sfp-microbit\adalib\libgnarl.a(s-bbinte.o)
                0x00000000000064d0                system__bb__interrupts__interrupt_wrapper
 .text.system__bb__interrupts__within_interrupt_stack
                0x0000000000006584       0x2c D:\gnat\2018-arm-elf\arm-eabi\lib\gnat\ravenscar-sfp-microbit\adalib\libgnarl.a(s-bbinte.o)
                0x0000000000006584                system__bb__interrupts__within_interrupt_stack
 .text.system__bb__interrupts__initialize_interrupts
                0x00000000000065b0       0x10 D:\gnat\2018-arm-elf\arm-eabi\lib\gnat\ravenscar-sfp-microbit\adalib\libgnarl.a(s-bbinte.o)
                0x00000000000065b0                system__bb__interrupts__initialize_interrupts
 .text          0x00000000000065c0        0x0 D:\gnat\2018-arm-elf\arm-eabi\lib\gnat\ravenscar-sfp-microbit\adalib\libgnarl.a(s-bbthqu.o)
 .text.system__bb__threads__queues__change_priority
                0x00000000000065c0       0x6c D:\gnat\2018-arm-elf\arm-eabi\lib\gnat\ravenscar-sfp-microbit\adalib\libgnarl.a(s-bbthqu.o)
                0x00000000000065c0                system__bb__threads__queues__change_priority
 .text.__gnat_context_switch_needed
                0x000000000000662c       0x1c D:\gnat\2018-arm-elf\arm-eabi\lib\gnat\ravenscar-sfp-microbit\adalib\libgnarl.a(s-bbthqu.o)
                0x000000000000662c                __gnat_context_switch_needed
 .text.system__bb__threads__queues__current_priority
                0x0000000000006648       0x28 D:\gnat\2018-arm-elf\arm-eabi\lib\gnat\ravenscar-sfp-microbit\adalib\libgnarl.a(s-bbthqu.o)
                0x0000000000006648                system__bb__threads__queues__current_priority
 .text.system__bb__threads__queues__extract
                0x0000000000006670       0x28 D:\gnat\2018-arm-elf\arm-eabi\lib\gnat\ravenscar-sfp-microbit\adalib\libgnarl.a(s-bbthqu.o)
                0x0000000000006670                system__bb__threads__queues__extract
 .text.system__bb__threads__queues__extract_first_alarm
                0x0000000000006698       0x1c D:\gnat\2018-arm-elf\arm-eabi\lib\gnat\ravenscar-sfp-microbit\adalib\libgnarl.a(s-bbthqu.o)
                0x0000000000006698                system__bb__threads__queues__extract_first_alarm
 .text.system__bb__threads__queues__first_thread
                0x00000000000066b4        0xc D:\gnat\2018-arm-elf\arm-eabi\lib\gnat\ravenscar-sfp-microbit\adalib\libgnarl.a(s-bbthqu.o)
                0x00000000000066b4                system__bb__threads__queues__first_thread
 .text.system__bb__threads__queues__get_next_alarm_time
                0x00000000000066c0       0x28 D:\gnat\2018-arm-elf\arm-eabi\lib\gnat\ravenscar-sfp-microbit\adalib\libgnarl.a(s-bbthqu.o)
                0x00000000000066c0                system__bb__threads__queues__get_next_alarm_time
 .text.system__bb__threads__queues__insert
                0x00000000000066e8       0x9c D:\gnat\2018-arm-elf\arm-eabi\lib\gnat\ravenscar-sfp-microbit\adalib\libgnarl.a(s-bbthqu.o)
                0x00000000000066e8                system__bb__threads__queues__insert
 .text.system__bb__threads__queues__insert_alarm
                0x0000000000006784       0x68 D:\gnat\2018-arm-elf\arm-eabi\lib\gnat\ravenscar-sfp-microbit\adalib\libgnarl.a(s-bbthqu.o)
                0x0000000000006784                system__bb__threads__queues__insert_alarm
 .text.system__bb__threads__queues__running_thread
                0x00000000000067ec        0xc D:\gnat\2018-arm-elf\arm-eabi\lib\gnat\ravenscar-sfp-microbit\adalib\libgnarl.a(s-bbthqu.o)
                0x00000000000067ec                system__bb__threads__queues__running_thread
 .text.system__bb__threads__queues__wakeup_expired_alarms
                0x00000000000067f8      0x130 D:\gnat\2018-arm-elf\arm-eabi\lib\gnat\ravenscar-sfp-microbit\adalib\libgnarl.a(s-bbthqu.o)
                0x00000000000067f8                system__bb__threads__queues__wakeup_expired_alarms
 .text.system__bb__threads__queues__yield
                0x0000000000006928       0x48 D:\gnat\2018-arm-elf\arm-eabi\lib\gnat\ravenscar-sfp-microbit\adalib\libgnarl.a(s-bbthqu.o)
                0x0000000000006928                system__bb__threads__queues__yield
 .text          0x0000000000006970        0x0 D:\gnat\2018-arm-elf\arm-eabi\lib\gnat\ravenscar-sfp-microbit\adalib\libgnarl.a(s-bbtime.o)
 .text.system__bb__time__composite_execution_timeIP
                0x0000000000006970        0x4 D:\gnat\2018-arm-elf\arm-eabi\lib\gnat\ravenscar-sfp-microbit\adalib\libgnarl.a(s-bbtime.o)
                0x0000000000006970                system__bb__time__composite_execution_timeIP
 .text.system__bb__time__composite_timeIP
                0x0000000000006974        0xc D:\gnat\2018-arm-elf\arm-eabi\lib\gnat\ravenscar-sfp-microbit\adalib\libgnarl.a(s-bbtime.o)
                0x0000000000006974                system__bb__time__composite_timeIP
 .text.system__bb__time__clock
                0x0000000000006980       0x54 D:\gnat\2018-arm-elf\arm-eabi\lib\gnat\ravenscar-sfp-microbit\adalib\libgnarl.a(s-bbtime.o)
                0x0000000000006980                system__bb__time__clock
 .text.system__bb__time__epoch
                0x00000000000069d4        0x8 D:\gnat\2018-arm-elf\arm-eabi\lib\gnat\ravenscar-sfp-microbit\adalib\libgnarl.a(s-bbtime.o)
                0x00000000000069d4                system__bb__time__epoch
 .text.system__bb__time__get_next_timeout
                0x00000000000069dc       0x54 D:\gnat\2018-arm-elf\arm-eabi\lib\gnat\ravenscar-sfp-microbit\adalib\libgnarl.a(s-bbtime.o)
                0x00000000000069dc                system__bb__time__get_next_timeout
 .text.system__bb__time__initialize_timers
                0x0000000000006a30       0x90 D:\gnat\2018-arm-elf\arm-eabi\lib\gnat\ravenscar-sfp-microbit\adalib\libgnarl.a(s-bbtime.o)
                0x0000000000006a30                system__bb__time__initialize_timers
 .text.system__bb__time__update_alarm
                0x0000000000006ac0       0xb4 D:\gnat\2018-arm-elf\arm-eabi\lib\gnat\ravenscar-sfp-microbit\adalib\libgnarl.a(s-bbtime.o)
                0x0000000000006ac0                system__bb__time__update_alarm
 .text.system__bb__time__delay_until
                0x0000000000006b74       0xc4 D:\gnat\2018-arm-elf\arm-eabi\lib\gnat\ravenscar-sfp-microbit\adalib\libgnarl.a(s-bbtime.o)
                0x0000000000006b74                system__bb__time__delay_until
 .text.system__bb__time__alarm_handler
                0x0000000000006c38       0x90 D:\gnat\2018-arm-elf\arm-eabi\lib\gnat\ravenscar-sfp-microbit\adalib\libgnarl.a(s-bbtime.o)
 .text.system__bb__time__Oconcat
                0x0000000000006cc8       0x14 D:\gnat\2018-arm-elf\arm-eabi\lib\gnat\ravenscar-sfp-microbit\adalib\libgnarl.a(s-bbtime.o)
                0x0000000000006cc8                system__bb__time__Oconcat
 .text          0x0000000000006cdc        0x0 D:\gnat\2018-arm-elf\arm-eabi\lib\gnat\ravenscar-sfp-microbit\adalib\libgnarl.a(s-bcpcst.o)
 .text.system__bb__cpu_primitives__context_switch_trigger__initialize_context_switch
                0x0000000000006cdc        0x4 D:\gnat\2018-arm-elf\arm-eabi\lib\gnat\ravenscar-sfp-microbit\adalib\libgnarl.a(s-bcpcst.o)
                0x0000000000006cdc                system__bb__cpu_primitives__context_switch_trigger__initialize_context_switch
 .text.system__bb__cpu_primitives__context_switch_trigger__trigger_context_switch
                0x0000000000006ce0       0x10 D:\gnat\2018-arm-elf\arm-eabi\lib\gnat\ravenscar-sfp-microbit\adalib\libgnarl.a(s-bcpcst.o)
                0x0000000000006ce0                system__bb__cpu_primitives__context_switch_trigger__trigger_context_switch
 .text.__gnat_pend_sv_trap
                0x0000000000006cf0       0x48 D:\gnat\2018-arm-elf\arm-eabi\lib\gnat\ravenscar-sfp-microbit\adalib\libgnarl.a(s-bcpcst.o)
                0x0000000000006cf0                __gnat_pend_sv_trap
 .text          0x0000000000006d38        0x0 D:\gnat\2018-arm-elf\arm-eabi\lib\gnat\ravenscar-sfp-microbit\adalib\libgnarl.a(s-taskin.o)
 .text.system__tasking__E5sIP
                0x0000000000006d38        0x8 D:\gnat\2018-arm-elf\arm-eabi\lib\gnat\ravenscar-sfp-microbit\adalib\libgnarl.a(s-taskin.o)
                0x0000000000006d38                system__tasking__E5sIP
 .text.system__tasking__activation_chainIP
                0x0000000000006d40        0x8 D:\gnat\2018-arm-elf\arm-eabi\lib\gnat\ravenscar-sfp-microbit\adalib\libgnarl.a(s-taskin.o)
                0x0000000000006d40                system__tasking__activation_chainIP
 .text.__gnat_get_secondary_stack
                0x0000000000006d48       0x10 D:\gnat\2018-arm-elf\arm-eabi\lib\gnat\ravenscar-sfp-microbit\adalib\libgnarl.a(s-taskin.o)
                0x0000000000006d48                __gnat_get_secondary_stack
 .text.system__tasking__initialize_atcb
                0x0000000000006d58       0x34 D:\gnat\2018-arm-elf\arm-eabi\lib\gnat\ravenscar-sfp-microbit\adalib\libgnarl.a(s-taskin.o)
                0x0000000000006d58                system__tasking__initialize_atcb
 .text.system__tasking__initialize
                0x0000000000006d8c      0x17c D:\gnat\2018-arm-elf\arm-eabi\lib\gnat\ravenscar-sfp-microbit\adalib\libgnarl.a(s-taskin.o)
                0x0000000000006d8c                system__tasking__initialize
 .text.system__tasking__self
                0x0000000000006f08        0xc D:\gnat\2018-arm-elf\arm-eabi\lib\gnat\ravenscar-sfp-microbit\adalib\libgnarl.a(s-taskin.o)
                0x0000000000006f08                system__tasking(short,...)(long, float)
 .text.system__tasking__storage_size
                0x0000000000006f14        0x8 D:\gnat\2018-arm-elf\arm-eabi\lib\gnat\ravenscar-sfp-microbit\adalib\libgnarl.a(s-taskin.o)
                0x0000000000006f14                system__tasking__storage_size
 .text          0x0000000000006f1c        0x0 D:\gnat\2018-arm-elf\arm-eabi\lib\gnat\ravenscar-sfp-microbit\adalib\libgnarl.a(s-bbprot.o)
 .text.system__bb__protection__enter_kernel
                0x0000000000006f1c        0x4 D:\gnat\2018-arm-elf\arm-eabi\lib\gnat\ravenscar-sfp-microbit\adalib\libgnarl.a(s-bbprot.o)
                0x0000000000006f1c                system__bb__protection__enter_kernel
 .text.system__bb__protection__leave_kernel
                0x0000000000006f20       0x3c D:\gnat\2018-arm-elf\arm-eabi\lib\gnat\ravenscar-sfp-microbit\adalib\libgnarl.a(s-bbprot.o)
                0x0000000000006f20                system__bb__protection__leave_kernel
 .text          0x0000000000006f5c        0x0 D:\gnat\2018-arm-elf\arm-eabi\lib\gnat\ravenscar-sfp-microbit\adalib\libgnarl.a(s-bbthre.o)
 .text.system__bb__threads__initialize_thread
                0x0000000000006f5c      0x11c D:\gnat\2018-arm-elf\arm-eabi\lib\gnat\ravenscar-sfp-microbit\adalib\libgnarl.a(s-bbthre.o)
 .text.system__bb__threads__thread_descriptorIP
                0x0000000000007078        0xc D:\gnat\2018-arm-elf\arm-eabi\lib\gnat\ravenscar-sfp-microbit\adalib\libgnarl.a(s-bbthre.o)
                0x0000000000007078                system__bb__threads__thread_descriptorIP
 .text.system__bb__threads__get_affinity
                0x0000000000007084        0x8 D:\gnat\2018-arm-elf\arm-eabi\lib\gnat\ravenscar-sfp-microbit\adalib\libgnarl.a(s-bbthre.o)
                0x0000000000007084                system__bb__threads__get_affinity
 .text.system__bb__threads__get_cpu
                0x000000000000708c       0x10 D:\gnat\2018-arm-elf\arm-eabi\lib\gnat\ravenscar-sfp-microbit\adalib\libgnarl.a(s-bbthre.o)
                0x000000000000708c                system__bb__threads__get_cpu
 .text.system__bb__threads__get_atcb
                0x000000000000709c        0xc D:\gnat\2018-arm-elf\arm-eabi\lib\gnat\ravenscar-sfp-microbit\adalib\libgnarl.a(s-bbthre.o)
                0x000000000000709c                system__bb__threads__get_atcb
 .text.system__bb__threads__get_priority
                0x00000000000070a8        0x4 D:\gnat\2018-arm-elf\arm-eabi\lib\gnat\ravenscar-sfp-microbit\adalib\libgnarl.a(s-bbthre.o)
                0x00000000000070a8                system__bb__threads__get_priority
 .text.system__bb__threads__initialize
                0x00000000000070ac       0xb8 D:\gnat\2018-arm-elf\arm-eabi\lib\gnat\ravenscar-sfp-microbit\adalib\libgnarl.a(s-bbthre.o)
                0x00000000000070ac                system__bb__threads__initialize
 .text.system__bb__threads__initialize_slave
                0x0000000000007164       0x28 D:\gnat\2018-arm-elf\arm-eabi\lib\gnat\ravenscar-sfp-microbit\adalib\libgnarl.a(s-bbthre.o)
                0x0000000000007164                system__bb__threads__initialize_slave
 .text.system__bb__threads__set_atcb
                0x000000000000718c        0x4 D:\gnat\2018-arm-elf\arm-eabi\lib\gnat\ravenscar-sfp-microbit\adalib\libgnarl.a(s-bbthre.o)
                0x000000000000718c                system__bb__threads__set_atcb
 .text.system__bb__threads__set_priority
                0x0000000000007190       0x18 D:\gnat\2018-arm-elf\arm-eabi\lib\gnat\ravenscar-sfp-microbit\adalib\libgnarl.a(s-bbthre.o)
                0x0000000000007190                system__bb__threads__set_priority
 .text.system__bb__threads__sleep
                0x00000000000071a8       0x4c D:\gnat\2018-arm-elf\arm-eabi\lib\gnat\ravenscar-sfp-microbit\adalib\libgnarl.a(s-bbthre.o)
                0x00000000000071a8                system__bb__threads(short, long,...)(...)( *)
 .text.system__bb__threads__thread_create
                0x00000000000071f4       0x2c D:\gnat\2018-arm-elf\arm-eabi\lib\gnat\ravenscar-sfp-microbit\adalib\libgnarl.a(s-bbthre.o)
                0x00000000000071f4                system__bb__threads__thread_create
 .text.system__bb__threads__thread_self
                0x0000000000007220        0xc D:\gnat\2018-arm-elf\arm-eabi\lib\gnat\ravenscar-sfp-microbit\adalib\libgnarl.a(s-bbthre.o)
                0x0000000000007220                system__bb__threads__thread_self
 .text.system__bb__threads__wakeup
                0x000000000000722c       0xb8 D:\gnat\2018-arm-elf\arm-eabi\lib\gnat\ravenscar-sfp-microbit\adalib\libgnarl.a(s-bbthre.o)
                0x000000000000722c                system__bb__threads__wakeup
 .text          0x00000000000072e4        0x0 D:\gnat\2018-arm-elf\arm-eabi\lib\gnat\ravenscar-sfp-microbit\adalib\libgnarl.a(s-bbtiev.o)
 .text.system__bb__timing_events___size
                0x00000000000072e4        0x8 D:\gnat\2018-arm-elf\arm-eabi\lib\gnat\ravenscar-sfp-microbit\adalib\libgnarl.a(s-bbtiev.o)
                0x00000000000072e4                system__bb__timing_events___size
 .text.system__bb__timing_events__time_of_event
                0x00000000000072ec       0x14 D:\gnat\2018-arm-elf\arm-eabi\lib\gnat\ravenscar-sfp-microbit\adalib\libgnarl.a(s-bbtiev.o)
                0x00000000000072ec                system__bb__timing_events__time_of_event
 .text.system__bb__timing_events__extract
                0x0000000000007300       0x34 D:\gnat\2018-arm-elf\arm-eabi\lib\gnat\ravenscar-sfp-microbit\adalib\libgnarl.a(s-bbtiev.o)
 .text.system__bb__timing_events__set_handler
                0x0000000000007334       0x8c D:\gnat\2018-arm-elf\arm-eabi\lib\gnat\ravenscar-sfp-microbit\adalib\libgnarl.a(s-bbtiev.o)
                0x0000000000007334                system__bb__timing_events__set_handler
 .text.system__bb__timing_events__cancel_handler
                0x00000000000073c0       0x2c D:\gnat\2018-arm-elf\arm-eabi\lib\gnat\ravenscar-sfp-microbit\adalib\libgnarl.a(s-bbtiev.o)
                0x00000000000073c0                system__bb__timing_events__cancel_handler
 .text.system__bb__timing_events__timing_eventIP
                0x00000000000073ec       0x20 D:\gnat\2018-arm-elf\arm-eabi\lib\gnat\ravenscar-sfp-microbit\adalib\libgnarl.a(s-bbtiev.o)
                0x00000000000073ec                system__bb__timing_events__timing_eventIP
 .text.system__bb__timing_events__execute_expired_timing_events
                0x000000000000740c       0x84 D:\gnat\2018-arm-elf\arm-eabi\lib\gnat\ravenscar-sfp-microbit\adalib\libgnarl.a(s-bbtiev.o)
                0x000000000000740c                system__bb__timing_events__execute_expired_timing_events
 .text.system__bb__timing_events__get_next_timeout
                0x0000000000007490       0x28 D:\gnat\2018-arm-elf\arm-eabi\lib\gnat\ravenscar-sfp-microbit\adalib\libgnarl.a(s-bbtiev.o)
                0x0000000000007490                system__bb__timing_events__get_next_timeout
 .text          0x00000000000074b8        0x0 D:\gnat\2018-arm-elf\arm-eabi\lib\gnat\ravenscar-sfp-microbit\adalib\libgnarl.a(s-taprop.o)
 .text.system__task_primitives__operations__Tidle_stacksBIP
                0x00000000000074b8        0x4 D:\gnat\2018-arm-elf\arm-eabi\lib\gnat\ravenscar-sfp-microbit\adalib\libgnarl.a(s-taprop.o)
                0x00000000000074b8                system__task_primitives__operations__Tidle_stacksBIP
 .text.system__task_primitives__operations__Tidle_stacks_tableBIP
                0x00000000000074bc        0x4 D:\gnat\2018-arm-elf\arm-eabi\lib\gnat\ravenscar-sfp-microbit\adalib\libgnarl.a(s-taprop.o)
                0x00000000000074bc                system__task_primitives__operations__Tidle_stacks_tableBIP
 .text.system__task_primitives__operations__Tidle_tasksBIP
                0x00000000000074c0        0x4 D:\gnat\2018-arm-elf\arm-eabi\lib\gnat\ravenscar-sfp-microbit\adalib\libgnarl.a(s-taprop.o)
                0x00000000000074c0                system__task_primitives__operations__Tidle_tasksBIP
 .text.system__task_primitives__operations__self
                0x00000000000074c4        0xc D:\gnat\2018-arm-elf\arm-eabi\lib\gnat\ravenscar-sfp-microbit\adalib\libgnarl.a(s-taprop.o)
                0x00000000000074c4                system__task_primitives__operations(short,...)(long, float)
 .text.system__task_primitives__operations__sleep
                0x00000000000074d0        0x8 D:\gnat\2018-arm-elf\arm-eabi\lib\gnat\ravenscar-sfp-microbit\adalib\libgnarl.a(s-taprop.o)
                0x00000000000074d0                system__task_primitives__operations(short, long,...)(...)( *)
 .text.system__task_primitives__operations__delay_until
                0x00000000000074d8       0x1c D:\gnat\2018-arm-elf\arm-eabi\lib\gnat\ravenscar-sfp-microbit\adalib\libgnarl.a(s-taprop.o)
                0x00000000000074d8                system__task_primitives__operations__delay_until
 .text.system__task_primitives__operations__monotonic_clock
                0x00000000000074f4       0x54 D:\gnat\2018-arm-elf\arm-eabi\lib\gnat\ravenscar-sfp-microbit\adalib\libgnarl.a(s-taprop.o)
                0x00000000000074f4                system__task_primitives__operations__monotonic_clock
 .text.system__task_primitives__operations__wakeup
                0x0000000000007548        0xc D:\gnat\2018-arm-elf\arm-eabi\lib\gnat\ravenscar-sfp-microbit\adalib\libgnarl.a(s-taprop.o)
                0x0000000000007548                system__task_primitives__operations__wakeup
 .text.system__task_primitives__operations__set_priority
                0x0000000000007554       0x18 D:\gnat\2018-arm-elf\arm-eabi\lib\gnat\ravenscar-sfp-microbit\adalib\libgnarl.a(s-taprop.o)
                0x0000000000007554                system__task_primitives__operations__set_priority
 .text.system__task_primitives__operations__get_priority
                0x000000000000756c        0x8 D:\gnat\2018-arm-elf\arm-eabi\lib\gnat\ravenscar-sfp-microbit\adalib\libgnarl.a(s-taprop.o)
                0x000000000000756c                system__task_primitives__operations__get_priority
 .text.system__task_primitives__operations__get_affinity
                0x0000000000007574        0xc D:\gnat\2018-arm-elf\arm-eabi\lib\gnat\ravenscar-sfp-microbit\adalib\libgnarl.a(s-taprop.o)
                0x0000000000007574                system__task_primitives__operations__get_affinity
 .text.system__task_primitives__operations__get_cpu
                0x0000000000007580       0x14 D:\gnat\2018-arm-elf\arm-eabi\lib\gnat\ravenscar-sfp-microbit\adalib\libgnarl.a(s-taprop.o)
                0x0000000000007580                system__task_primitives__operations__get_cpu
 .text.system__task_primitives__operations__get_thread_id
                0x0000000000007594        0x8 D:\gnat\2018-arm-elf\arm-eabi\lib\gnat\ravenscar-sfp-microbit\adalib\libgnarl.a(s-taprop.o)
                0x0000000000007594                system__task_primitives__operations__get_thread_id
 .text.system__task_primitives__operations__enter_task
                0x000000000000759c       0x40 D:\gnat\2018-arm-elf\arm-eabi\lib\gnat\ravenscar-sfp-microbit\adalib\libgnarl.a(s-taprop.o)
                0x000000000000759c                system__task_primitives__operations__enter_task
 .text.system__task_primitives__operations__idle
                0x00000000000075dc       0x14 D:\gnat\2018-arm-elf\arm-eabi\lib\gnat\ravenscar-sfp-microbit\adalib\libgnarl.a(s-taprop.o)
                0x00000000000075dc                system__task_primitives__operations(int, double, long,...)
 .text.system__task_primitives__operations__initialize_tcb
                0x00000000000075f0        0x4 D:\gnat\2018-arm-elf\arm-eabi\lib\gnat\ravenscar-sfp-microbit\adalib\libgnarl.a(s-taprop.o)
                0x00000000000075f0                system__task_primitives__operations__initialize_tcb
 .text.system__task_primitives__operations__create_task
                0x00000000000075f4       0x34 D:\gnat\2018-arm-elf\arm-eabi\lib\gnat\ravenscar-sfp-microbit\adalib\libgnarl.a(s-taprop.o)
                0x00000000000075f4                system__task_primitives__operations__create_task
 .text.system__task_primitives__operations__initialize_idle
                0x0000000000007628       0x68 D:\gnat\2018-arm-elf\arm-eabi\lib\gnat\ravenscar-sfp-microbit\adalib\libgnarl.a(s-taprop.o)
                0x0000000000007628                system__task_primitives__operations__initialize_idle
 .text.__gnat_initialize_slave
                0x0000000000007690       0x3c D:\gnat\2018-arm-elf\arm-eabi\lib\gnat\ravenscar-sfp-microbit\adalib\libgnarl.a(s-taprop.o)
                0x0000000000007690                __gnat_initialize_slave
 .text.system__task_primitives__operations__initialize
                0x00000000000076cc       0xb0 D:\gnat\2018-arm-elf\arm-eabi\lib\gnat\ravenscar-sfp-microbit\adalib\libgnarl.a(s-taprop.o)
                0x00000000000076cc                system__task_primitives__operations__initialize
 .text.system__task_primitives__operations__is_task_context
                0x000000000000777c       0x10 D:\gnat\2018-arm-elf\arm-eabi\lib\gnat\ravenscar-sfp-microbit\adalib\libgnarl.a(s-taprop.o)
                0x000000000000777c                system__task_primitives__operations__is_task_context
 .text          0x000000000000778c        0x0 D:\gnat\2018-arm-elf\arm-eabi\lib\gnat\ravenscar-sfp-microbit\adalib\libgnarl.a(s-tasdeb.o)
 .text.system__tasking__debug__add_task_id
                0x000000000000778c       0x38 D:\gnat\2018-arm-elf\arm-eabi\lib\gnat\ravenscar-sfp-microbit\adalib\libgnarl.a(s-tasdeb.o)
                0x000000000000778c                system__tasking__debug__add_task_id
 .text          0x00000000000077c4        0x0 D:\gnat\2018-arm-elf\arm-eabi\lib\gnat\ravenscar-sfp-microbit\adalib\libgnat.a(a-elchha.o)
 .text.ada__exceptions__last_chance_handler__put.4172
                0x00000000000077c4       0x20 D:\gnat\2018-arm-elf\arm-eabi\lib\gnat\ravenscar-sfp-microbit\adalib\libgnat.a(a-elchha.o)
 .text.__gnat_last_chance_handler
                0x00000000000077e4       0x5c D:\gnat\2018-arm-elf\arm-eabi\lib\gnat\ravenscar-sfp-microbit\adalib\libgnat.a(a-elchha.o)
                0x00000000000077e4                __gnat_last_chance_handler
 .text          0x0000000000007840        0x0 D:\gnat\2018-arm-elf\arm-eabi\lib\gnat\ravenscar-sfp-microbit\adalib\libgnat.a(a-except.o)
 .text          0x0000000000007840        0x0 D:\gnat\2018-arm-elf\arm-eabi\lib\gnat\ravenscar-sfp-microbit\adalib\libgnat.a(g-io.o)
 .text.gnat__io__put__2
                0x0000000000007840       0x44 D:\gnat\2018-arm-elf\arm-eabi\lib\gnat\ravenscar-sfp-microbit\adalib\libgnat.a(g-io.o)
                0x0000000000007840                gnat__io__put__2
 .text.gnat__io__new_line
                0x0000000000007884       0x14 D:\gnat\2018-arm-elf\arm-eabi\lib\gnat\ravenscar-sfp-microbit\adalib\libgnat.a(g-io.o)
                0x0000000000007884                gnat__io__new_line
 .text.gnat__io__put__3
                0x0000000000007898       0x20 D:\gnat\2018-arm-elf\arm-eabi\lib\gnat\ravenscar-sfp-microbit\adalib\libgnat.a(g-io.o)
                0x0000000000007898                gnat__io__put__3
 .text.gnat__io__put
                0x00000000000078b8       0x7c D:\gnat\2018-arm-elf\arm-eabi\lib\gnat\ravenscar-sfp-microbit\adalib\libgnat.a(g-io.o)
                0x00000000000078b8                gnat__io__put
 .text.gnat__io__put_line
                0x0000000000007934       0x10 D:\gnat\2018-arm-elf\arm-eabi\lib\gnat\ravenscar-sfp-microbit\adalib\libgnat.a(g-io.o)
                0x0000000000007934                gnat__io__put_line
 .text          0x0000000000007944        0x0 D:\gnat\2018-arm-elf\arm-eabi\lib\gnat\ravenscar-sfp-microbit\adalib\libgnat.a(s-assert.o)
 .text.system__assertions__raise_assert_failure
                0x0000000000007944       0x70 D:\gnat\2018-arm-elf\arm-eabi\lib\gnat\ravenscar-sfp-microbit\adalib\libgnat.a(s-assert.o)
                0x0000000000007944                system__assertions__raise_assert_failure
 .text          0x00000000000079b4        0x0 D:\gnat\2018-arm-elf\arm-eabi\lib\gnat\ravenscar-sfp-microbit\adalib\libgnat.a(s-macres.o)
 .text.abort    0x00000000000079b4       0x10 D:\gnat\2018-arm-elf\arm-eabi\lib\gnat\ravenscar-sfp-microbit\adalib\libgnat.a(s-macres.o)
                0x00000000000079b4                abort
 .text._exit    0x00000000000079c4       0x10 D:\gnat\2018-arm-elf\arm-eabi\lib\gnat\ravenscar-sfp-microbit\adalib\libgnat.a(s-macres.o)
                0x00000000000079c4                _exit
 .text.system__machine_reset__stop
                0x00000000000079d4       0x10 D:\gnat\2018-arm-elf\arm-eabi\lib\gnat\ravenscar-sfp-microbit\adalib\libgnat.a(s-macres.o)
                0x00000000000079d4                system__machine_reset__stop
 .text          0x00000000000079e4        0x0 D:\gnat\2018-arm-elf\arm-eabi\lib\gnat\ravenscar-sfp-microbit\adalib\libgnat.a(s-memcop.o)
 .text.memcpy   0x00000000000079e4       0x4c D:\gnat\2018-arm-elf\arm-eabi\lib\gnat\ravenscar-sfp-microbit\adalib\libgnat.a(s-memcop.o)
                0x00000000000079e4                memcpy
 .text          0x0000000000007a30        0x0 D:\gnat\2018-arm-elf\arm-eabi\lib\gnat\ravenscar-sfp-microbit\adalib\libgnat.a(s-memset.o)
 .text.memset   0x0000000000007a30       0x40 D:\gnat\2018-arm-elf\arm-eabi\lib\gnat\ravenscar-sfp-microbit\adalib\libgnat.a(s-memset.o)
                0x0000000000007a30                memset
 .text          0x0000000000007a70        0x0 D:\gnat\2018-arm-elf\arm-eabi\lib\gnat\ravenscar-sfp-microbit\adalib\libgnat.a(s-parame.o)
 .text.system__parameters__adjust_storage_size
                0x0000000000007a70       0x10 D:\gnat\2018-arm-elf\arm-eabi\lib\gnat\ravenscar-sfp-microbit\adalib\libgnat.a(s-parame.o)
                0x0000000000007a70                system__parameters__adjust_storage_size
 .text          0x0000000000007a80        0x0 D:\gnat\2018-arm-elf\arm-eabi\lib\gnat\ravenscar-sfp-microbit\adalib\libgnat.a(s-secsta.o)
 .text.system__secondary_stack__memoryIP
                0x0000000000007a80        0x4 D:\gnat\2018-arm-elf\arm-eabi\lib\gnat\ravenscar-sfp-microbit\adalib\libgnat.a(s-secsta.o)
                0x0000000000007a80                system__secondary_stack__memoryIP
 .text.system__secondary_stack__ss_stackIP
                0x0000000000007a84        0x4 D:\gnat\2018-arm-elf\arm-eabi\lib\gnat\ravenscar-sfp-microbit\adalib\libgnat.a(s-secsta.o)
                0x0000000000007a84                system__secondary_stack__ss_stackIP
 .text.system__secondary_stack__ss_allocate
                0x0000000000007a88       0x58 D:\gnat\2018-arm-elf\arm-eabi\lib\gnat\ravenscar-sfp-microbit\adalib\libgnat.a(s-secsta.o)
                0x0000000000007a88                system__secondary_stack__ss_allocate
 .text.system__secondary_stack__ss_get_max
                0x0000000000007ae0       0x10 D:\gnat\2018-arm-elf\arm-eabi\lib\gnat\ravenscar-sfp-microbit\adalib\libgnat.a(s-secsta.o)
                0x0000000000007ae0                system__secondary_stack__ss_get_max
 .text.system__secondary_stack__ss_init
                0x0000000000007af0       0x80 D:\gnat\2018-arm-elf\arm-eabi\lib\gnat\ravenscar-sfp-microbit\adalib\libgnat.a(s-secsta.o)
                0x0000000000007af0                system__secondary_stack__ss_init
 .text.system__secondary_stack__ss_mark
                0x0000000000007b70        0xc D:\gnat\2018-arm-elf\arm-eabi\lib\gnat\ravenscar-sfp-microbit\adalib\libgnat.a(s-secsta.o)
                0x0000000000007b70                system__secondary_stack__ss_mark
 .text.system__secondary_stack__ss_release
                0x0000000000007b7c        0xc D:\gnat\2018-arm-elf\arm-eabi\lib\gnat\ravenscar-sfp-microbit\adalib\libgnat.a(s-secsta.o)
                0x0000000000007b7c                system__secondary_stack__ss_release
 .text          0x0000000000007b88        0x0 D:\gnat\2018-arm-elf\arm-eabi\lib\gnat\ravenscar-sfp-microbit\adalib\libgnat.a(s-textio.o)
 .text.system__text_io__get
                0x0000000000007b88       0x1c D:\gnat\2018-arm-elf\arm-eabi\lib\gnat\ravenscar-sfp-microbit\adalib\libgnat.a(s-textio.o)
                0x0000000000007b88                system__text_io__get
 .text.system__text_io__is_rx_ready
                0x0000000000007ba4       0x14 D:\gnat\2018-arm-elf\arm-eabi\lib\gnat\ravenscar-sfp-microbit\adalib\libgnat.a(s-textio.o)
                0x0000000000007ba4                system__text_io__is_rx_ready
 .text.system__text_io__is_tx_ready
                0x0000000000007bb8       0x14 D:\gnat\2018-arm-elf\arm-eabi\lib\gnat\ravenscar-sfp-microbit\adalib\libgnat.a(s-textio.o)
                0x0000000000007bb8                system__text_io__is_tx_ready
 .text.system__text_io__put
                0x0000000000007bcc       0x20 D:\gnat\2018-arm-elf\arm-eabi\lib\gnat\ravenscar-sfp-microbit\adalib\libgnat.a(s-textio.o)
                0x0000000000007bcc                system__text_io__put
 .text.system__text_io__initialize
                0x0000000000007bec       0x74 D:\gnat\2018-arm-elf\arm-eabi\lib\gnat\ravenscar-sfp-microbit\adalib\libgnat.a(s-textio.o)
                0x0000000000007bec                system__text_io__initialize
 .text.system__text_io__use_cr_lf_for_new_line
                0x0000000000007c60        0x4 D:\gnat\2018-arm-elf\arm-eabi\lib\gnat\ravenscar-sfp-microbit\adalib\libgnat.a(s-textio.o)
                0x0000000000007c60                system__text_io__use_cr_lf_for_new_line
 .text          0x0000000000007c64       0x50 D:\gnat\2018-arm-elf\arm-eabi\lib\gnat\ravenscar-sfp-microbit\adalib\libgnat.a(start-rom.o)
                0x0000000000007c64                _start_rom
 .text          0x0000000000007cb4        0xa D:\gnat\2018-arm-elf\arm-eabi\lib\gnat\ravenscar-sfp-microbit\adalib\libgnat.a(handler.o)
 .text          0x0000000000007cbe       0x20 D:\gnat\2018-arm-elf\arm-eabi\lib\gnat\ravenscar-sfp-microbit\adalib\libgnat.a(breakpoint_handler-cortexm.o)
                0x0000000000007cbe                __gnat_bkpt_trap
 *fill*         0x0000000000007cde        0x2 
 .text          0x0000000000007ce0      0x1d4 d:/gnat/2018-arm-elf/bin/../lib/gcc/arm-eabi/7.3.1/thumb/v6-m\libgcc.a(_divsi3.o)
                0x0000000000007ce0                __divsi3
                0x0000000000007ce0                __aeabi_idiv
                0x0000000000007eac                __aeabi_idivmod
 .text          0x0000000000007eb4        0x4 d:/gnat/2018-arm-elf/bin/../lib/gcc/arm-eabi/7.3.1/thumb/v6-m\libgcc.a(_dvmd_tls.o)
                0x0000000000007eb4                __aeabi_idiv0
                0x0000000000007eb4                __aeabi_ldiv0
 .text          0x0000000000007eb8       0x74 d:/gnat/2018-arm-elf/bin/../lib/gcc/arm-eabi/7.3.1/thumb/v6-m\libgcc.a(_arm_cmpsf2.o)
                0x0000000000007eb8                __aeabi_cfrcmple
                0x0000000000007ec0                __aeabi_cfcmpeq
                0x0000000000007ec0                __aeabi_cfcmple
                0x0000000000007ed0                __aeabi_fcmpeq
                0x0000000000007edc                __aeabi_fcmplt
                0x0000000000007ef0                __aeabi_fcmple
                0x0000000000007f04                __aeabi_fcmpgt
                0x0000000000007f18                __aeabi_fcmpge
 .text          0x0000000000007f2c       0x48 d:/gnat/2018-arm-elf/bin/../lib/gcc/arm-eabi/7.3.1/thumb/v6-m\libgcc.a(_aeabi_ldivmod.o)
                0x0000000000007f2c                __aeabi_ldivmod
 .text          0x0000000000007f74       0x40 d:/gnat/2018-arm-elf/bin/../lib/gcc/arm-eabi/7.3.1/thumb/v6-m\libgcc.a(_aeabi_uldivmod.o)
                0x0000000000007f74                __aeabi_uldivmod
 .text          0x0000000000007fb4       0x54 d:/gnat/2018-arm-elf/bin/../lib/gcc/arm-eabi/7.3.1/thumb/v6-m\libgcc.a(_muldi3.o)
                0x0000000000007fb4                __muldi3
                0x0000000000007fb4                __aeabi_lmul
 .text          0x0000000000008008       0x30 d:/gnat/2018-arm-elf/bin/../lib/gcc/arm-eabi/7.3.1/thumb/v6-m\libgcc.a(_fixunssfsi.o)
                0x0000000000008008                __fixunssfsi
                0x0000000000008008                __aeabi_f2uiz
 .text          0x0000000000008038      0x184 d:/gnat/2018-arm-elf/bin/../lib/gcc/arm-eabi/7.3.1/thumb/v6-m\libgcc.a(_udivmoddi4.o)
                0x0000000000008038                __udivmoddi4
 .text          0x00000000000081bc       0x38 d:/gnat/2018-arm-elf/bin/../lib/gcc/arm-eabi/7.3.1/thumb/v6-m\libgcc.a(bpabi.o)
                0x00000000000081bc                __gnu_ldivmod_helper
 .text          0x00000000000081f4      0x33c d:/gnat/2018-arm-elf/bin/../lib/gcc/arm-eabi/7.3.1/thumb/v6-m\libgcc.a(addsf3.o)
                0x00000000000081f4                __aeabi_fadd
 .text          0x0000000000008530      0x21c d:/gnat/2018-arm-elf/bin/../lib/gcc/arm-eabi/7.3.1/thumb/v6-m\libgcc.a(divsf3.o)
                0x0000000000008530                __aeabi_fdiv
 .text          0x000000000000874c       0x4c d:/gnat/2018-arm-elf/bin/../lib/gcc/arm-eabi/7.3.1/thumb/v6-m\libgcc.a(eqsf2.o)
                0x000000000000874c                __eqsf2
                0x000000000000874c                __nesf2
 .text          0x0000000000008798       0x8c d:/gnat/2018-arm-elf/bin/../lib/gcc/arm-eabi/7.3.1/thumb/v6-m\libgcc.a(gesf2.o)
                0x0000000000008798                __gesf2
                0x0000000000008798                __gtsf2
 .text          0x0000000000008824       0x84 d:/gnat/2018-arm-elf/bin/../lib/gcc/arm-eabi/7.3.1/thumb/v6-m\libgcc.a(lesf2.o)
                0x0000000000008824                __ltsf2
                0x0000000000008824                __lesf2
 .text          0x00000000000088a8      0x264 d:/gnat/2018-arm-elf/bin/../lib/gcc/arm-eabi/7.3.1/thumb/v6-m\libgcc.a(mulsf3.o)
                0x00000000000088a8                __aeabi_fmul
 .text          0x0000000000008b0c      0x38c d:/gnat/2018-arm-elf/bin/../lib/gcc/arm-eabi/7.3.1/thumb/v6-m\libgcc.a(subsf3.o)
                0x0000000000008b0c                __aeabi_fsub
 .text          0x0000000000008e98       0x2c d:/gnat/2018-arm-elf/bin/../lib/gcc/arm-eabi/7.3.1/thumb/v6-m\libgcc.a(unordsf2.o)
                0x0000000000008e98                __aeabi_fcmpun
 .text          0x0000000000008ec4       0x40 d:/gnat/2018-arm-elf/bin/../lib/gcc/arm-eabi/7.3.1/thumb/v6-m\libgcc.a(fixsfsi.o)
                0x0000000000008ec4                __aeabi_f2iz
 .text          0x0000000000008f04       0x94 d:/gnat/2018-arm-elf/bin/../lib/gcc/arm-eabi/7.3.1/thumb/v6-m\libgcc.a(floatsisf.o)
                0x0000000000008f04                __aeabi_i2f
 .text          0x0000000000008f98       0x80 d:/gnat/2018-arm-elf/bin/../lib/gcc/arm-eabi/7.3.1/thumb/v6-m\libgcc.a(floatunsisf.o)
                0x0000000000008f98                __aeabi_ui2f
 .text          0x0000000000009018       0x3c d:/gnat/2018-arm-elf/bin/../lib/gcc/arm-eabi/7.3.1/thumb/v6-m\libgcc.a(_clzsi2.o)
                0x0000000000009018                __clzsi2
 .text          0x0000000000009054       0x18 d:/gnat/2018-arm-elf/bin/../lib/gcc/arm-eabi/7.3.1/thumb/v6-m\libgcc.a(_clzdi2.o)
                0x0000000000009054                __clzdi2
 .text          0x000000000000906c      0x1b0 d:/gnat/2018-arm-elf/bin/../lib/gcc/arm-eabi/7.3.1/thumb/v6-m\libgcc.a(_divdi3.o)
                0x000000000000906c                __divdi3
 *(.gnu.warning)

.glue_7         0x000000000000921c        0x0
 .glue_7        0x000000000000921c        0x0 linker stubs

.glue_7t        0x000000000000921c        0x0
 .glue_7t       0x000000000000921c        0x0 linker stubs

.vfp11_veneer   0x000000000000921c        0x0
 .vfp11_veneer  0x000000000000921c        0x0 linker stubs

.v4_bx          0x000000000000921c        0x0
 .v4_bx         0x000000000000921c        0x0 linker stubs

.iplt           0x000000000000921c        0x0
 .iplt          0x000000000000921c        0x0 main.o

.ARM.extab      0x000000000000921c        0x0
 *(.ARM.extab* .gnu.linkonce.armextab.*)
 .ARM.extab     0x000000000000921c        0x0 d:/gnat/2018-arm-elf/bin/../lib/gcc/arm-eabi/7.3.1/thumb/v6-m\libgcc.a(_udivmoddi4.o)
 .ARM.extab     0x000000000000921c        0x0 d:/gnat/2018-arm-elf/bin/../lib/gcc/arm-eabi/7.3.1/thumb/v6-m\libgcc.a(_divdi3.o)
                [!provide]                        PROVIDE (__exidx_start, .)

.ARM.exidx      0x000000000000921c        0x8
 *(.ARM.exidx* .gnu.linkonce.armexidx.*)
 .ARM.exidx     0x000000000000921c        0x8 d:/gnat/2018-arm-elf/bin/../lib/gcc/arm-eabi/7.3.1/thumb/v6-m\libgcc.a(_udivmoddi4.o)
 .ARM.exidx     0x0000000000009224        0x0 d:/gnat/2018-arm-elf/bin/../lib/gcc/arm-eabi/7.3.1/thumb/v6-m\libgcc.a(_divdi3.o)
                                          0x8 (size before relaxing)
                [!provide]                        PROVIDE (__exidx_end, .)

.rodata         0x0000000000009228     0x1b78
 *(.lit)
 *(.rodata .rodata.* .gnu.linkonce.r*)
 .rodata        0x0000000000009228       0x3e b__main.o
                0x0000000000009230                __gnat_version
                0x000000000000925c                __gnat_ada_main_program_name
 *fill*         0x0000000000009266        0x2 
 .rodata        0x0000000000009268       0x12 D:\programming\ada_projects\ravenscar_test\Ada_Drivers_Library\obj_lib_Debug\libada_drivers_library.a(cortex_m-nvic.o)
 *fill*         0x000000000000927a        0x2 
 .rodata        0x000000000000927c      0x1be D:\programming\ada_projects\ravenscar_test\Ada_Drivers_Library\obj_lib_Debug\libada_drivers_library.a(microbit-ios.o)
 *fill*         0x000000000000943a        0x2 
 .rodata.microbit__ios__analog__2
                0x000000000000943c       0x2c D:\programming\ada_projects\ravenscar_test\Ada_Drivers_Library\obj_lib_Debug\libada_drivers_library.a(microbit-ios.o)
 .rodata.microbit__ios__io_featuresS
                0x0000000000009468       0x12 D:\programming\ada_projects\ravenscar_test\Ada_Drivers_Library\obj_lib_Debug\libada_drivers_library.a(microbit-ios.o)
                0x0000000000009468                microbit__ios__io_featuresS
 *fill*         0x000000000000947a        0x2 
 .rodata.microbit__ios__io_featuresN
                0x000000000000947c        0x4 D:\programming\ada_projects\ravenscar_test\Ada_Drivers_Library\obj_lib_Debug\libada_drivers_library.a(microbit-ios.o)
                0x000000000000947c                microbit__ios__io_featuresN
 .rodata.microbit__ios__pin_modeS
                0x0000000000009480       0x2c D:\programming\ada_projects\ravenscar_test\Ada_Drivers_Library\obj_lib_Debug\libada_drivers_library.a(microbit-ios.o)
                0x0000000000009480                microbit__ios__pin_modeS
 .rodata.microbit__ios__pin_modeN
                0x00000000000094ac        0x8 D:\programming\ada_projects\ravenscar_test\Ada_Drivers_Library\obj_lib_Debug\libada_drivers_library.a(microbit-ios.o)
                0x00000000000094ac                microbit__ios__pin_modeN
 .rodata.microbit__ios__no_pwm
                0x00000000000094b4        0x1 D:\programming\ada_projects\ravenscar_test\Ada_Drivers_Library\obj_lib_Debug\libada_drivers_library.a(microbit-ios.o)
                0x00000000000094b4                microbit__ios__no_pwm
 *fill*         0x00000000000094b5        0x3 
 .rodata.microbit__ios__pwm_timer
                0x00000000000094b8        0x4 D:\programming\ada_projects\ravenscar_test\Ada_Drivers_Library\obj_lib_Debug\libada_drivers_library.a(microbit-ios.o)
                0x00000000000094b8                microbit__ios__pwm_timer
 .rodata.microbit__ios__pwm_interrupt
                0x00000000000094bc        0x1 D:\programming\ada_projects\ravenscar_test\Ada_Drivers_Library\obj_lib_Debug\libada_drivers_library.a(microbit-ios.o)
                0x00000000000094bc                microbit__ios__pwm_interrupt
 .rodata.microbit__ios__pwm_global_compare
                0x00000000000094bd        0x1 D:\programming\ada_projects\ravenscar_test\Ada_Drivers_Library\obj_lib_Debug\libada_drivers_library.a(microbit-ios.o)
                0x00000000000094bd                microbit__ios__pwm_global_compare
 *fill*         0x00000000000094be        0x2 
 .rodata        0x00000000000094c0        0xe D:\programming\ada_projects\ravenscar_test\Ada_Drivers_Library\obj_lib_Debug\libada_drivers_library.a(nrf51-adc.o)
 *fill*         0x00000000000094ce        0x2 
 .rodata.nrf51__adc__start_pin_conversion
                0x00000000000094d0       0x1c D:\programming\ada_projects\ravenscar_test\Ada_Drivers_Library\obj_lib_Debug\libada_drivers_library.a(nrf51-adc.o)
 .rodata.nrf51__adc__pin_input_selectionS
                0x00000000000094ec       0x22 D:\programming\ada_projects\ravenscar_test\Ada_Drivers_Library\obj_lib_Debug\libada_drivers_library.a(nrf51-adc.o)
                0x00000000000094ec                nrf51__adc__pin_input_selectionS
 *fill*         0x000000000000950e        0x2 
 .rodata.nrf51__adc__pin_input_selectionN
                0x0000000000009510        0x4 D:\programming\ada_projects\ravenscar_test\Ada_Drivers_Library\obj_lib_Debug\libada_drivers_library.a(nrf51-adc.o)
                0x0000000000009510                nrf51__adc__pin_input_selectionN
 .rodata.nrf51__adc__vdd_input_selectionS
                0x0000000000009514       0x1a D:\programming\ada_projects\ravenscar_test\Ada_Drivers_Library\obj_lib_Debug\libada_drivers_library.a(nrf51-adc.o)
                0x0000000000009514                nrf51__adc__vdd_input_selectionS
 *fill*         0x000000000000952e        0x2 
 .rodata.nrf51__adc__vdd_input_selectionN
                0x0000000000009530        0x4 D:\programming\ada_projects\ravenscar_test\Ada_Drivers_Library\obj_lib_Debug\libada_drivers_library.a(nrf51-adc.o)
                0x0000000000009530                nrf51__adc__vdd_input_selectionN
 .rodata.nrf51__adc__reference_selectionS
                0x0000000000009534       0x3d D:\programming\ada_projects\ravenscar_test\Ada_Drivers_Library\obj_lib_Debug\libada_drivers_library.a(nrf51-adc.o)
                0x0000000000009534                nrf51__adc__reference_selectionS
 *fill*         0x0000000000009571        0x3 
 .rodata.nrf51__adc__reference_selectionN
                0x0000000000009574        0x8 D:\programming\ada_projects\ravenscar_test\Ada_Drivers_Library\obj_lib_Debug\libada_drivers_library.a(nrf51-adc.o)
                0x0000000000009574                nrf51__adc__reference_selectionN
 .rodata        0x000000000000957c       0x11 D:\programming\ada_projects\ravenscar_test\Ada_Drivers_Library\obj_lib_Debug\libada_drivers_library.a(nrf51-events.o)
 *fill*         0x000000000000958d        0x3 
 .rodata.nrf51__events__power_pofwarn
                0x0000000000009590        0x4 D:\programming\ada_projects\ravenscar_test\Ada_Drivers_Library\obj_lib_Debug\libada_drivers_library.a(nrf51-events.o)
                0x0000000000009590                nrf51__events__power_pofwarn
 .rodata.nrf51__events__clock_hfclkstarted
                0x0000000000009594        0x4 D:\programming\ada_projects\ravenscar_test\Ada_Drivers_Library\obj_lib_Debug\libada_drivers_library.a(nrf51-events.o)
                0x0000000000009594                nrf51__events__clock_hfclkstarted
 .rodata.nrf51__events__clock_lfclkstarted
                0x0000000000009598        0x4 D:\programming\ada_projects\ravenscar_test\Ada_Drivers_Library\obj_lib_Debug\libada_drivers_library.a(nrf51-events.o)
                0x0000000000009598                nrf51__events__clock_lfclkstarted
 .rodata.nrf51__events__clock_done
                0x000000000000959c        0x4 D:\programming\ada_projects\ravenscar_test\Ada_Drivers_Library\obj_lib_Debug\libada_drivers_library.a(nrf51-events.o)
                0x000000000000959c                nrf51__events__clock_done
 .rodata.nrf51__events__clock_ctto
                0x00000000000095a0        0x4 D:\programming\ada_projects\ravenscar_test\Ada_Drivers_Library\obj_lib_Debug\libada_drivers_library.a(nrf51-events.o)
                0x00000000000095a0                nrf51__events__clock_ctto
 .rodata.nrf51__events__gpiote_in_0
                0x00000000000095a4        0x4 D:\programming\ada_projects\ravenscar_test\Ada_Drivers_Library\obj_lib_Debug\libada_drivers_library.a(nrf51-events.o)
                0x00000000000095a4                nrf51__events__gpiote_in_0
 .rodata.nrf51__events__gpiote_in_1
                0x00000000000095a8        0x4 D:\programming\ada_projects\ravenscar_test\Ada_Drivers_Library\obj_lib_Debug\libada_drivers_library.a(nrf51-events.o)
                0x00000000000095a8                nrf51__events__gpiote_in_1
 .rodata.nrf51__events__gpiote_in_2
                0x00000000000095ac        0x4 D:\programming\ada_projects\ravenscar_test\Ada_Drivers_Library\obj_lib_Debug\libada_drivers_library.a(nrf51-events.o)
                0x00000000000095ac                nrf51__events__gpiote_in_2
 .rodata.nrf51__events__gpiote_in_3
                0x00000000000095b0        0x4 D:\programming\ada_projects\ravenscar_test\Ada_Drivers_Library\obj_lib_Debug\libada_drivers_library.a(nrf51-events.o)
                0x00000000000095b0                nrf51__events__gpiote_in_3
 .rodata.nrf51__events__gpiote_port
                0x00000000000095b4        0x4 D:\programming\ada_projects\ravenscar_test\Ada_Drivers_Library\obj_lib_Debug\libada_drivers_library.a(nrf51-events.o)
                0x00000000000095b4                nrf51__events__gpiote_port
 .rodata.nrf51__events__radio_ready
                0x00000000000095b8        0x4 D:\programming\ada_projects\ravenscar_test\Ada_Drivers_Library\obj_lib_Debug\libada_drivers_library.a(nrf51-events.o)
                0x00000000000095b8                nrf51__events__radio_ready
 .rodata.nrf51__events__radio_address
                0x00000000000095bc        0x4 D:\programming\ada_projects\ravenscar_test\Ada_Drivers_Library\obj_lib_Debug\libada_drivers_library.a(nrf51-events.o)
                0x00000000000095bc                nrf51__events__radio_address
 .rodata.nrf51__events__radio_payload
                0x00000000000095c0        0x4 D:\programming\ada_projects\ravenscar_test\Ada_Drivers_Library\obj_lib_Debug\libada_drivers_library.a(nrf51-events.o)
                0x00000000000095c0                nrf51__events__radio_payload
 .rodata.nrf51__events__radio_end
                0x00000000000095c4        0x4 D:\programming\ada_projects\ravenscar_test\Ada_Drivers_Library\obj_lib_Debug\libada_drivers_library.a(nrf51-events.o)
                0x00000000000095c4                nrf51__events__radio_end
 .rodata.nrf51__events__radio_disabled
                0x00000000000095c8        0x4 D:\programming\ada_projects\ravenscar_test\Ada_Drivers_Library\obj_lib_Debug\libada_drivers_library.a(nrf51-events.o)
                0x00000000000095c8                nrf51__events__radio_disabled
 .rodata.nrf51__events__radio_devmatch
                0x00000000000095cc        0x4 D:\programming\ada_projects\ravenscar_test\Ada_Drivers_Library\obj_lib_Debug\libada_drivers_library.a(nrf51-events.o)
                0x00000000000095cc                nrf51__events__radio_devmatch
 .rodata.nrf51__events__radio_devmiss
                0x00000000000095d0        0x4 D:\programming\ada_projects\ravenscar_test\Ada_Drivers_Library\obj_lib_Debug\libada_drivers_library.a(nrf51-events.o)
                0x00000000000095d0                nrf51__events__radio_devmiss
 .rodata.nrf51__events__radio_rssiend
                0x00000000000095d4        0x4 D:\programming\ada_projects\ravenscar_test\Ada_Drivers_Library\obj_lib_Debug\libada_drivers_library.a(nrf51-events.o)
                0x00000000000095d4                nrf51__events__radio_rssiend
 .rodata.nrf51__events__radio_bcmatch
                0x00000000000095d8        0x4 D:\programming\ada_projects\ravenscar_test\Ada_Drivers_Library\obj_lib_Debug\libada_drivers_library.a(nrf51-events.o)
                0x00000000000095d8                nrf51__events__radio_bcmatch
 .rodata.nrf51__events__timer_0_compare_0
                0x00000000000095dc        0x4 D:\programming\ada_projects\ravenscar_test\Ada_Drivers_Library\obj_lib_Debug\libada_drivers_library.a(nrf51-events.o)
                0x00000000000095dc                nrf51__events__timer_0_compare_0
 .rodata.nrf51__events__timer_0_compare_1
                0x00000000000095e0        0x4 D:\programming\ada_projects\ravenscar_test\Ada_Drivers_Library\obj_lib_Debug\libada_drivers_library.a(nrf51-events.o)
                0x00000000000095e0                nrf51__events__timer_0_compare_1
 .rodata.nrf51__events__timer_0_compare_2
                0x00000000000095e4        0x4 D:\programming\ada_projects\ravenscar_test\Ada_Drivers_Library\obj_lib_Debug\libada_drivers_library.a(nrf51-events.o)
                0x00000000000095e4                nrf51__events__timer_0_compare_2
 .rodata.nrf51__events__timer_0_compare_3
                0x00000000000095e8        0x4 D:\programming\ada_projects\ravenscar_test\Ada_Drivers_Library\obj_lib_Debug\libada_drivers_library.a(nrf51-events.o)
                0x00000000000095e8                nrf51__events__timer_0_compare_3
 .rodata.nrf51__events__timer_1_compare_0
                0x00000000000095ec        0x4 D:\programming\ada_projects\ravenscar_test\Ada_Drivers_Library\obj_lib_Debug\libada_drivers_library.a(nrf51-events.o)
                0x00000000000095ec                nrf51__events__timer_1_compare_0
 .rodata.nrf51__events__timer_1_compare_1
                0x00000000000095f0        0x4 D:\programming\ada_projects\ravenscar_test\Ada_Drivers_Library\obj_lib_Debug\libada_drivers_library.a(nrf51-events.o)
                0x00000000000095f0                nrf51__events__timer_1_compare_1
 .rodata.nrf51__events__timer_1_compare_2
                0x00000000000095f4        0x4 D:\programming\ada_projects\ravenscar_test\Ada_Drivers_Library\obj_lib_Debug\libada_drivers_library.a(nrf51-events.o)
                0x00000000000095f4                nrf51__events__timer_1_compare_2
 .rodata.nrf51__events__timer_1_compare_3
                0x00000000000095f8        0x4 D:\programming\ada_projects\ravenscar_test\Ada_Drivers_Library\obj_lib_Debug\libada_drivers_library.a(nrf51-events.o)
                0x00000000000095f8                nrf51__events__timer_1_compare_3
 .rodata.nrf51__events__timer_2_compare_0
                0x00000000000095fc        0x4 D:\programming\ada_projects\ravenscar_test\Ada_Drivers_Library\obj_lib_Debug\libada_drivers_library.a(nrf51-events.o)
                0x00000000000095fc                nrf51__events__timer_2_compare_0
 .rodata.nrf51__events__timer_2_compare_1
                0x0000000000009600        0x4 D:\programming\ada_projects\ravenscar_test\Ada_Drivers_Library\obj_lib_Debug\libada_drivers_library.a(nrf51-events.o)
                0x0000000000009600                nrf51__events__timer_2_compare_1
 .rodata.nrf51__events__timer_2_compare_2
                0x0000000000009604        0x4 D:\programming\ada_projects\ravenscar_test\Ada_Drivers_Library\obj_lib_Debug\libada_drivers_library.a(nrf51-events.o)
                0x0000000000009604                nrf51__events__timer_2_compare_2
 .rodata.nrf51__events__timer_2_compare_3
                0x0000000000009608        0x4 D:\programming\ada_projects\ravenscar_test\Ada_Drivers_Library\obj_lib_Debug\libada_drivers_library.a(nrf51-events.o)
                0x0000000000009608                nrf51__events__timer_2_compare_3
 .rodata.nrf51__events__rtc_0_tick
                0x000000000000960c        0x4 D:\programming\ada_projects\ravenscar_test\Ada_Drivers_Library\obj_lib_Debug\libada_drivers_library.a(nrf51-events.o)
                0x000000000000960c                nrf51__events__rtc_0_tick
 .rodata.nrf51__events__rtc_0_overflw
                0x0000000000009610        0x4 D:\programming\ada_projects\ravenscar_test\Ada_Drivers_Library\obj_lib_Debug\libada_drivers_library.a(nrf51-events.o)
                0x0000000000009610                nrf51__events__rtc_0_overflw
 .rodata.nrf51__events__rtc_0_compare_0
                0x0000000000009614        0x4 D:\programming\ada_projects\ravenscar_test\Ada_Drivers_Library\obj_lib_Debug\libada_drivers_library.a(nrf51-events.o)
                0x0000000000009614                nrf51__events__rtc_0_compare_0
 .rodata.nrf51__events__rtc_0_compare_1
                0x0000000000009618        0x4 D:\programming\ada_projects\ravenscar_test\Ada_Drivers_Library\obj_lib_Debug\libada_drivers_library.a(nrf51-events.o)
                0x0000000000009618                nrf51__events__rtc_0_compare_1
 .rodata.nrf51__events__rtc_0_compare_2
                0x000000000000961c        0x4 D:\programming\ada_projects\ravenscar_test\Ada_Drivers_Library\obj_lib_Debug\libada_drivers_library.a(nrf51-events.o)
                0x000000000000961c                nrf51__events__rtc_0_compare_2
 .rodata.nrf51__events__rtc_0_compare_3
                0x0000000000009620        0x4 D:\programming\ada_projects\ravenscar_test\Ada_Drivers_Library\obj_lib_Debug\libada_drivers_library.a(nrf51-events.o)
                0x0000000000009620                nrf51__events__rtc_0_compare_3
 .rodata.nrf51__events__rtc_1_tick
                0x0000000000009624        0x4 D:\programming\ada_projects\ravenscar_test\Ada_Drivers_Library\obj_lib_Debug\libada_drivers_library.a(nrf51-events.o)
                0x0000000000009624                nrf51__events__rtc_1_tick
 .rodata.nrf51__events__rtc_1_overflw
                0x0000000000009628        0x4 D:\programming\ada_projects\ravenscar_test\Ada_Drivers_Library\obj_lib_Debug\libada_drivers_library.a(nrf51-events.o)
                0x0000000000009628                nrf51__events__rtc_1_overflw
 .rodata.nrf51__events__rtc_1_compare_0
                0x000000000000962c        0x4 D:\programming\ada_projects\ravenscar_test\Ada_Drivers_Library\obj_lib_Debug\libada_drivers_library.a(nrf51-events.o)
                0x000000000000962c                nrf51__events__rtc_1_compare_0
 .rodata.nrf51__events__rtc_1_compare_1
                0x0000000000009630        0x4 D:\programming\ada_projects\ravenscar_test\Ada_Drivers_Library\obj_lib_Debug\libada_drivers_library.a(nrf51-events.o)
                0x0000000000009630                nrf51__events__rtc_1_compare_1
 .rodata.nrf51__events__rtc_1_compare_2
                0x0000000000009634        0x4 D:\programming\ada_projects\ravenscar_test\Ada_Drivers_Library\obj_lib_Debug\libada_drivers_library.a(nrf51-events.o)
                0x0000000000009634                nrf51__events__rtc_1_compare_2
 .rodata.nrf51__events__rtc_1_compare_3
                0x0000000000009638        0x4 D:\programming\ada_projects\ravenscar_test\Ada_Drivers_Library\obj_lib_Debug\libada_drivers_library.a(nrf51-events.o)
                0x0000000000009638                nrf51__events__rtc_1_compare_3
 .rodata.nrf51__events__watchdog_timeout
                0x000000000000963c        0x4 D:\programming\ada_projects\ravenscar_test\Ada_Drivers_Library\obj_lib_Debug\libada_drivers_library.a(nrf51-events.o)
                0x000000000000963c                nrf51__events__watchdog_timeout
 .rodata.nrf51__events__rng_valrdy
                0x0000000000009640        0x4 D:\programming\ada_projects\ravenscar_test\Ada_Drivers_Library\obj_lib_Debug\libada_drivers_library.a(nrf51-events.o)
                0x0000000000009640                nrf51__events__rng_valrdy
 .rodata.nrf51__events__temperature_datardy
                0x0000000000009644        0x4 D:\programming\ada_projects\ravenscar_test\Ada_Drivers_Library\obj_lib_Debug\libada_drivers_library.a(nrf51-events.o)
                0x0000000000009644                nrf51__events__temperature_datardy
 .rodata.nrf51__events__ecb_end
                0x0000000000009648        0x4 D:\programming\ada_projects\ravenscar_test\Ada_Drivers_Library\obj_lib_Debug\libada_drivers_library.a(nrf51-events.o)
                0x0000000000009648                nrf51__events__ecb_end
 .rodata.nrf51__events__ecb_error
                0x000000000000964c        0x4 D:\programming\ada_projects\ravenscar_test\Ada_Drivers_Library\obj_lib_Debug\libada_drivers_library.a(nrf51-events.o)
                0x000000000000964c                nrf51__events__ecb_error
 .rodata.nrf51__events__ccm_ksgen_end
                0x0000000000009650        0x4 D:\programming\ada_projects\ravenscar_test\Ada_Drivers_Library\obj_lib_Debug\libada_drivers_library.a(nrf51-events.o)
                0x0000000000009650                nrf51__events__ccm_ksgen_end
 .rodata.nrf51__events__ccm_crypt_end
                0x0000000000009654        0x4 D:\programming\ada_projects\ravenscar_test\Ada_Drivers_Library\obj_lib_Debug\libada_drivers_library.a(nrf51-events.o)
                0x0000000000009654                nrf51__events__ccm_crypt_end
 .rodata.nrf51__events__ccm_error
                0x0000000000009658        0x4 D:\programming\ada_projects\ravenscar_test\Ada_Drivers_Library\obj_lib_Debug\libada_drivers_library.a(nrf51-events.o)
                0x0000000000009658                nrf51__events__ccm_error
 .rodata.nrf51__events__aar_end
                0x000000000000965c        0x4 D:\programming\ada_projects\ravenscar_test\Ada_Drivers_Library\obj_lib_Debug\libada_drivers_library.a(nrf51-events.o)
                0x000000000000965c                nrf51__events__aar_end
 .rodata.nrf51__events__aar_resolved
                0x0000000000009660        0x4 D:\programming\ada_projects\ravenscar_test\Ada_Drivers_Library\obj_lib_Debug\libada_drivers_library.a(nrf51-events.o)
                0x0000000000009660                nrf51__events__aar_resolved
 .rodata.nrf51__events__aar_notresolved
                0x0000000000009664        0x4 D:\programming\ada_projects\ravenscar_test\Ada_Drivers_Library\obj_lib_Debug\libada_drivers_library.a(nrf51-events.o)
                0x0000000000009664                nrf51__events__aar_notresolved
 .rodata.nrf51__events__spi_0_ready
                0x0000000000009668        0x4 D:\programming\ada_projects\ravenscar_test\Ada_Drivers_Library\obj_lib_Debug\libada_drivers_library.a(nrf51-events.o)
                0x0000000000009668                nrf51__events__spi_0_ready
 .rodata.nrf51__events__spi_1_ready
                0x000000000000966c        0x4 D:\programming\ada_projects\ravenscar_test\Ada_Drivers_Library\obj_lib_Debug\libada_drivers_library.a(nrf51-events.o)
                0x000000000000966c                nrf51__events__spi_1_ready
 .rodata.nrf51__events__twi_0_stopped
                0x0000000000009670        0x4 D:\programming\ada_projects\ravenscar_test\Ada_Drivers_Library\obj_lib_Debug\libada_drivers_library.a(nrf51-events.o)
                0x0000000000009670                nrf51__events__twi_0_stopped
 .rodata.nrf51__events__twi_0_rxdrdy
                0x0000000000009674        0x4 D:\programming\ada_projects\ravenscar_test\Ada_Drivers_Library\obj_lib_Debug\libada_drivers_library.a(nrf51-events.o)
                0x0000000000009674                nrf51__events__twi_0_rxdrdy
 .rodata.nrf51__events__twi_0_txdent
                0x0000000000009678        0x4 D:\programming\ada_projects\ravenscar_test\Ada_Drivers_Library\obj_lib_Debug\libada_drivers_library.a(nrf51-events.o)
                0x0000000000009678                nrf51__events__twi_0_txdent
 .rodata.nrf51__events__twi_0_erro
                0x000000000000967c        0x4 D:\programming\ada_projects\ravenscar_test\Ada_Drivers_Library\obj_lib_Debug\libada_drivers_library.a(nrf51-events.o)
                0x000000000000967c                nrf51__events__twi_0_erro
 .rodata.nrf51__events__twi_0_bb
                0x0000000000009680        0x4 D:\programming\ada_projects\ravenscar_test\Ada_Drivers_Library\obj_lib_Debug\libada_drivers_library.a(nrf51-events.o)
                0x0000000000009680                nrf51__events__twi_0_bb
 .rodata.nrf51__events__twi_0_suspended
                0x0000000000009684        0x4 D:\programming\ada_projects\ravenscar_test\Ada_Drivers_Library\obj_lib_Debug\libada_drivers_library.a(nrf51-events.o)
                0x0000000000009684                nrf51__events__twi_0_suspended
 .rodata.nrf51__events__twi_1_stopped
                0x0000000000009688        0x4 D:\programming\ada_projects\ravenscar_test\Ada_Drivers_Library\obj_lib_Debug\libada_drivers_library.a(nrf51-events.o)
                0x0000000000009688                nrf51__events__twi_1_stopped
 .rodata.nrf51__events__twi_1_rxdrdy
                0x000000000000968c        0x4 D:\programming\ada_projects\ravenscar_test\Ada_Drivers_Library\obj_lib_Debug\libada_drivers_library.a(nrf51-events.o)
                0x000000000000968c                nrf51__events__twi_1_rxdrdy
 .rodata.nrf51__events__twi_1_txdent
                0x0000000000009690        0x4 D:\programming\ada_projects\ravenscar_test\Ada_Drivers_Library\obj_lib_Debug\libada_drivers_library.a(nrf51-events.o)
                0x0000000000009690                nrf51__events__twi_1_txdent
 .rodata.nrf51__events__twi_1_erro
                0x0000000000009694        0x4 D:\programming\ada_projects\ravenscar_test\Ada_Drivers_Library\obj_lib_Debug\libada_drivers_library.a(nrf51-events.o)
                0x0000000000009694                nrf51__events__twi_1_erro
 .rodata.nrf51__events__twi_1_bb
                0x0000000000009698        0x4 D:\programming\ada_projects\ravenscar_test\Ada_Drivers_Library\obj_lib_Debug\libada_drivers_library.a(nrf51-events.o)
                0x0000000000009698                nrf51__events__twi_1_bb
 .rodata.nrf51__events__twi_1_suspended
                0x000000000000969c        0x4 D:\programming\ada_projects\ravenscar_test\Ada_Drivers_Library\obj_lib_Debug\libada_drivers_library.a(nrf51-events.o)
                0x000000000000969c                nrf51__events__twi_1_suspended
 .rodata.nrf51__events__uart_rxdrdy
                0x00000000000096a0        0x4 D:\programming\ada_projects\ravenscar_test\Ada_Drivers_Library\obj_lib_Debug\libada_drivers_library.a(nrf51-events.o)
                0x00000000000096a0                nrf51__events__uart_rxdrdy
 .rodata.nrf51__events__uart_txdrdy
                0x00000000000096a4        0x4 D:\programming\ada_projects\ravenscar_test\Ada_Drivers_Library\obj_lib_Debug\libada_drivers_library.a(nrf51-events.o)
                0x00000000000096a4                nrf51__events__uart_txdrdy
 .rodata.nrf51__events__uart_error
                0x00000000000096a8        0x4 D:\programming\ada_projects\ravenscar_test\Ada_Drivers_Library\obj_lib_Debug\libada_drivers_library.a(nrf51-events.o)
                0x00000000000096a8                nrf51__events__uart_error
 .rodata.nrf51__events__qdec_samplerdy
                0x00000000000096ac        0x4 D:\programming\ada_projects\ravenscar_test\Ada_Drivers_Library\obj_lib_Debug\libada_drivers_library.a(nrf51-events.o)
                0x00000000000096ac                nrf51__events__qdec_samplerdy
 .rodata.nrf51__events__qdec_reportrdy
                0x00000000000096b0        0x4 D:\programming\ada_projects\ravenscar_test\Ada_Drivers_Library\obj_lib_Debug\libada_drivers_library.a(nrf51-events.o)
                0x00000000000096b0                nrf51__events__qdec_reportrdy
 .rodata.nrf51__events__qdec_accof
                0x00000000000096b4        0x4 D:\programming\ada_projects\ravenscar_test\Ada_Drivers_Library\obj_lib_Debug\libada_drivers_library.a(nrf51-events.o)
                0x00000000000096b4                nrf51__events__qdec_accof
 .rodata.nrf51__events__adc_end
                0x00000000000096b8        0x4 D:\programming\ada_projects\ravenscar_test\Ada_Drivers_Library\obj_lib_Debug\libada_drivers_library.a(nrf51-events.o)
                0x00000000000096b8                nrf51__events__adc_end
 .rodata        0x00000000000096bc       0x20 D:\programming\ada_projects\ravenscar_test\Ada_Drivers_Library\obj_lib_Debug\libada_drivers_library.a(nrf51-gpio-tasks_and_events.o)
 .rodata.nrf51__gpio__tasks_and_events__event_polarityS
                0x00000000000096dc       0x21 D:\programming\ada_projects\ravenscar_test\Ada_Drivers_Library\obj_lib_Debug\libada_drivers_library.a(nrf51-gpio-tasks_and_events.o)
                0x00000000000096dc                nrf51__gpio__tasks_and_events__event_polarityS
 *fill*         0x00000000000096fd        0x3 
 .rodata.nrf51__gpio__tasks_and_events__event_polarityN
                0x0000000000009700        0x4 D:\programming\ada_projects\ravenscar_test\Ada_Drivers_Library\obj_lib_Debug\libada_drivers_library.a(nrf51-gpio-tasks_and_events.o)
                0x0000000000009700                nrf51__gpio__tasks_and_events__event_polarityN
 .rodata.nrf51__gpio__tasks_and_events__task_actionS
                0x0000000000009704       0x1a D:\programming\ada_projects\ravenscar_test\Ada_Drivers_Library\obj_lib_Debug\libada_drivers_library.a(nrf51-gpio-tasks_and_events.o)
                0x0000000000009704                nrf51__gpio__tasks_and_events__task_actionS
 *fill*         0x000000000000971e        0x2 
 .rodata.nrf51__gpio__tasks_and_events__task_actionN
                0x0000000000009720        0x4 D:\programming\ada_projects\ravenscar_test\Ada_Drivers_Library\obj_lib_Debug\libada_drivers_library.a(nrf51-gpio-tasks_and_events.o)
                0x0000000000009720                nrf51__gpio__tasks_and_events__task_actionN
 .rodata.nrf51__gpio__tasks_and_events__init_valueS
                0x0000000000009724       0x12 D:\programming\ada_projects\ravenscar_test\Ada_Drivers_Library\obj_lib_Debug\libada_drivers_library.a(nrf51-gpio-tasks_and_events.o)
                0x0000000000009724                nrf51__gpio__tasks_and_events__init_valueS
 *fill*         0x0000000000009736        0x2 
 .rodata.nrf51__gpio__tasks_and_events__init_valueN
                0x0000000000009738        0x4 D:\programming\ada_projects\ravenscar_test\Ada_Drivers_Library\obj_lib_Debug\libada_drivers_library.a(nrf51-gpio-tasks_and_events.o)
                0x0000000000009738                nrf51__gpio__tasks_and_events__init_valueN
 .rodata        0x000000000000973c       0xc3 D:\programming\ada_projects\ravenscar_test\Ada_Drivers_Library\obj_lib_Debug\libada_drivers_library.a(nrf51-gpio.o)
 *fill*         0x00000000000097ff        0x1 
 .rodata.nrf51__gpio__configure_io
                0x0000000000009800       0x1c D:\programming\ada_projects\ravenscar_test\Ada_Drivers_Library\obj_lib_Debug\libada_drivers_library.a(nrf51-gpio.o)
 .rodata.nrf51__gpio__pin_input_buffer_modeS
                0x000000000000981c       0x2b D:\programming\ada_projects\ravenscar_test\Ada_Drivers_Library\obj_lib_Debug\libada_drivers_library.a(nrf51-gpio.o)
                0x000000000000981c                nrf51__gpio__pin_input_buffer_modeS
 *fill*         0x0000000000009847        0x1 
 .rodata.nrf51__gpio__pin_input_buffer_modeN
                0x0000000000009848        0x4 D:\programming\ada_projects\ravenscar_test\Ada_Drivers_Library\obj_lib_Debug\libada_drivers_library.a(nrf51-gpio.o)
                0x0000000000009848                nrf51__gpio__pin_input_buffer_modeN
 .rodata.nrf51__gpio__pin_driveS
                0x000000000000984c       0x50 D:\programming\ada_projects\ravenscar_test\Ada_Drivers_Library\obj_lib_Debug\libada_drivers_library.a(nrf51-gpio.o)
                0x000000000000984c                nrf51__gpio__pin_driveS
 .rodata.nrf51__gpio__pin_driveN
                0x000000000000989c        0x9 D:\programming\ada_projects\ravenscar_test\Ada_Drivers_Library\obj_lib_Debug\libada_drivers_library.a(nrf51-gpio.o)
                0x000000000000989c                nrf51__gpio__pin_driveN
 *fill*         0x00000000000098a5        0x3 
 .rodata.nrf51__gpio__pin_sense_modeS
                0x00000000000098a8       0x35 D:\programming\ada_projects\ravenscar_test\Ada_Drivers_Library\obj_lib_Debug\libada_drivers_library.a(nrf51-gpio.o)
                0x00000000000098a8                nrf51__gpio__pin_sense_modeS
 *fill*         0x00000000000098dd        0x3 
 .rodata.nrf51__gpio__pin_sense_modeN
                0x00000000000098e0        0x4 D:\programming\ada_projects\ravenscar_test\Ada_Drivers_Library\obj_lib_Debug\libada_drivers_library.a(nrf51-gpio.o)
                0x00000000000098e0                nrf51__gpio__pin_sense_modeN
 .rodata.nrf51__gpio__pin_io_modesS
                0x00000000000098e4        0xf D:\programming\ada_projects\ravenscar_test\Ada_Drivers_Library\obj_lib_Debug\libada_drivers_library.a(nrf51-gpio.o)
                0x00000000000098e4                nrf51__gpio__pin_io_modesS
 *fill*         0x00000000000098f3        0x1 
 .rodata.nrf51__gpio__pin_io_modesN
                0x00000000000098f4        0x4 D:\programming\ada_projects\ravenscar_test\Ada_Drivers_Library\obj_lib_Debug\libada_drivers_library.a(nrf51-gpio.o)
                0x00000000000098f4                nrf51__gpio__pin_io_modesN
 .rodata.nrf51__gpio__pin_resistorsS
                0x00000000000098f8       0x17 D:\programming\ada_projects\ravenscar_test\Ada_Drivers_Library\obj_lib_Debug\libada_drivers_library.a(nrf51-gpio.o)
                0x00000000000098f8                nrf51__gpio__pin_resistorsS
 *fill*         0x000000000000990f        0x1 
 .rodata.nrf51__gpio__pin_resistorsN
                0x0000000000009910        0x4 D:\programming\ada_projects\ravenscar_test\Ada_Drivers_Library\obj_lib_Debug\libada_drivers_library.a(nrf51-gpio.o)
                0x0000000000009910                nrf51__gpio__pin_resistorsN
 .rodata.nrf51__gpio__gpio_pointP
                0x0000000000009914        0x4 D:\programming\ada_projects\ravenscar_test\Ada_Drivers_Library\obj_lib_Debug\libada_drivers_library.a(nrf51-gpio.o)
                0x0000000000009914                nrf51__gpio__gpio_pointP
 .rodata.nrf51__gpio__gpio_pointY
                0x0000000000009918        0x4 D:\programming\ada_projects\ravenscar_test\Ada_Drivers_Library\obj_lib_Debug\libada_drivers_library.a(nrf51-gpio.o)
                0x0000000000009918                nrf51__gpio__gpio_pointY
 .rodata.nrf51__gpio__gpio_pointE40s
                0x000000000000991c       0x16 D:\programming\ada_projects\ravenscar_test\Ada_Drivers_Library\obj_lib_Debug\libada_drivers_library.a(nrf51-gpio.o)
                0x000000000000991c                nrf51__gpio__gpio_pointE40s
 *fill*         0x0000000000009932        0x2 
 .rodata.nrf51__gpio__gpio_pointB44s
                0x0000000000009934       0x20 D:\programming\ada_projects\ravenscar_test\Ada_Drivers_Library\obj_lib_Debug\libada_drivers_library.a(nrf51-gpio.o)
                0x0000000000009934                nrf51__gpio__gpio_pointB44s
 .rodata.nrf51__gpio__gpio_pointR42s___UNC
                0x0000000000009954       0x24 D:\programming\ada_projects\ravenscar_test\Ada_Drivers_Library\obj_lib_Debug\libada_drivers_library.a(nrf51-gpio.o)
                0x0000000000009954                nrf51__gpio__gpio_pointR42s___UNC
 .rodata.nrf51__gpio__gpio_pointR42s
                0x0000000000009978        0x4 D:\programming\ada_projects\ravenscar_test\Ada_Drivers_Library\obj_lib_Debug\libada_drivers_library.a(nrf51-gpio.o)
                0x0000000000009978                nrf51__gpio__gpio_pointR42s
 .rodata.nrf51__gpio__gpio_pointT
                0x000000000000997c       0x38 D:\programming\ada_projects\ravenscar_test\Ada_Drivers_Library\obj_lib_Debug\libada_drivers_library.a(nrf51-gpio.o)
                0x000000000000997c                nrf51__gpio__gpio_pointT
 .rodata        0x00000000000099b4       0x15 D:\programming\ada_projects\ravenscar_test\Ada_Drivers_Library\obj_lib_Debug\libada_drivers_library.a(nrf51-interrupts.o)
 *fill*         0x00000000000099c9        0x3 
 .rodata.nrf51__interrupts__interrupt_nameS
                0x00000000000099cc      0x1f8 D:\programming\ada_projects\ravenscar_test\Ada_Drivers_Library\obj_lib_Debug\libada_drivers_library.a(nrf51-interrupts.o)
                0x00000000000099cc                nrf51__interrupts__interrupt_nameS
 .rodata.nrf51__interrupts__interrupt_nameN
                0x0000000000009bc4       0x42 D:\programming\ada_projects\ravenscar_test\Ada_Drivers_Library\obj_lib_Debug\libada_drivers_library.a(nrf51-interrupts.o)
                0x0000000000009bc4                nrf51__interrupts__interrupt_nameN
 *fill*         0x0000000000009c06        0x2 
 .rodata        0x0000000000009c08        0xe D:\programming\ada_projects\ravenscar_test\Ada_Drivers_Library\obj_lib_Debug\libada_drivers_library.a(nrf51-ppi.o)
 *fill*         0x0000000000009c16        0x2 
 .rodata        0x0000000000009c18        0xe D:\programming\ada_projects\ravenscar_test\Ada_Drivers_Library\obj_lib_Debug\libada_drivers_library.a(nrf51-rtc.o)
 *fill*         0x0000000000009c26        0x2 
 .rodata.nrf51__rtc__event
                0x0000000000009c28       0x14 D:\programming\ada_projects\ravenscar_test\Ada_Drivers_Library\obj_lib_Debug\libada_drivers_library.a(nrf51-rtc.o)
 .rodata.nrf51__rtc__enable_event
                0x0000000000009c3c       0x14 D:\programming\ada_projects\ravenscar_test\Ada_Drivers_Library\obj_lib_Debug\libada_drivers_library.a(nrf51-rtc.o)
 .rodata.nrf51__rtc__disable_event
                0x0000000000009c50       0x14 D:\programming\ada_projects\ravenscar_test\Ada_Drivers_Library\obj_lib_Debug\libada_drivers_library.a(nrf51-rtc.o)
 .rodata.nrf51__rtc__rtc_eventsS
                0x0000000000009c64       0x54 D:\programming\ada_projects\ravenscar_test\Ada_Drivers_Library\obj_lib_Debug\libada_drivers_library.a(nrf51-rtc.o)
                0x0000000000009c64                nrf51__rtc__rtc_eventsS
 .rodata.nrf51__rtc__rtc_eventsN
                0x0000000000009cb8        0x8 D:\programming\ada_projects\ravenscar_test\Ada_Drivers_Library\obj_lib_Debug\libada_drivers_library.a(nrf51-rtc.o)
                0x0000000000009cb8                nrf51__rtc__rtc_eventsN
 .rodata        0x0000000000009cc0       0x10 D:\programming\ada_projects\ravenscar_test\Ada_Drivers_Library\obj_lib_Debug\libada_drivers_library.a(nrf51-tasks.o)
 .rodata.nrf51__tasks__power_constlat
                0x0000000000009cd0        0x4 D:\programming\ada_projects\ravenscar_test\Ada_Drivers_Library\obj_lib_Debug\libada_drivers_library.a(nrf51-tasks.o)
                0x0000000000009cd0                nrf51__tasks__power_constlat
 .rodata.nrf51__tasks__power_lowpwr
                0x0000000000009cd4        0x4 D:\programming\ada_projects\ravenscar_test\Ada_Drivers_Library\obj_lib_Debug\libada_drivers_library.a(nrf51-tasks.o)
                0x0000000000009cd4                nrf51__tasks__power_lowpwr
 .rodata.nrf51__tasks__clock_hfclkstart
                0x0000000000009cd8        0x4 D:\programming\ada_projects\ravenscar_test\Ada_Drivers_Library\obj_lib_Debug\libada_drivers_library.a(nrf51-tasks.o)
                0x0000000000009cd8                nrf51__tasks__clock_hfclkstart
 .rodata.nrf51__tasks__clock_hfclkstop
                0x0000000000009cdc        0x4 D:\programming\ada_projects\ravenscar_test\Ada_Drivers_Library\obj_lib_Debug\libada_drivers_library.a(nrf51-tasks.o)
                0x0000000000009cdc                nrf51__tasks__clock_hfclkstop
 .rodata.nrf51__tasks__clock_lfclkstart
                0x0000000000009ce0        0x4 D:\programming\ada_projects\ravenscar_test\Ada_Drivers_Library\obj_lib_Debug\libada_drivers_library.a(nrf51-tasks.o)
                0x0000000000009ce0                nrf51__tasks__clock_lfclkstart
 .rodata.nrf51__tasks__clock_lfclkstop
                0x0000000000009ce4        0x4 D:\programming\ada_projects\ravenscar_test\Ada_Drivers_Library\obj_lib_Debug\libada_drivers_library.a(nrf51-tasks.o)
                0x0000000000009ce4                nrf51__tasks__clock_lfclkstop
 .rodata.nrf51__tasks__clock_cal
                0x0000000000009ce8        0x4 D:\programming\ada_projects\ravenscar_test\Ada_Drivers_Library\obj_lib_Debug\libada_drivers_library.a(nrf51-tasks.o)
                0x0000000000009ce8                nrf51__tasks__clock_cal
 .rodata.nrf51__tasks__clock_ctstart
                0x0000000000009cec        0x4 D:\programming\ada_projects\ravenscar_test\Ada_Drivers_Library\obj_lib_Debug\libada_drivers_library.a(nrf51-tasks.o)
                0x0000000000009cec                nrf51__tasks__clock_ctstart
 .rodata.nrf51__tasks__clock_ctstop
                0x0000000000009cf0        0x4 D:\programming\ada_projects\ravenscar_test\Ada_Drivers_Library\obj_lib_Debug\libada_drivers_library.a(nrf51-tasks.o)
                0x0000000000009cf0                nrf51__tasks__clock_ctstop
 .rodata.nrf51__tasks__gpiote_out_0
                0x0000000000009cf4        0x4 D:\programming\ada_projects\ravenscar_test\Ada_Drivers_Library\obj_lib_Debug\libada_drivers_library.a(nrf51-tasks.o)
                0x0000000000009cf4                nrf51__tasks__gpiote_out_0
 .rodata.nrf51__tasks__gpiote_out_1
                0x0000000000009cf8        0x4 D:\programming\ada_projects\ravenscar_test\Ada_Drivers_Library\obj_lib_Debug\libada_drivers_library.a(nrf51-tasks.o)
                0x0000000000009cf8                nrf51__tasks__gpiote_out_1
 .rodata.nrf51__tasks__gpiote_out_2
                0x0000000000009cfc        0x4 D:\programming\ada_projects\ravenscar_test\Ada_Drivers_Library\obj_lib_Debug\libada_drivers_library.a(nrf51-tasks.o)
                0x0000000000009cfc                nrf51__tasks__gpiote_out_2
 .rodata.nrf51__tasks__gpiote_out_3
                0x0000000000009d00        0x4 D:\programming\ada_projects\ravenscar_test\Ada_Drivers_Library\obj_lib_Debug\libada_drivers_library.a(nrf51-tasks.o)
                0x0000000000009d00                nrf51__tasks__gpiote_out_3
 .rodata.nrf51__tasks__ppi_chg_0_en
                0x0000000000009d04        0x4 D:\programming\ada_projects\ravenscar_test\Ada_Drivers_Library\obj_lib_Debug\libada_drivers_library.a(nrf51-tasks.o)
                0x0000000000009d04                nrf51__tasks__ppi_chg_0_en
 .rodata.nrf51__tasks__ppi_chg_0_dis
                0x0000000000009d08        0x4 D:\programming\ada_projects\ravenscar_test\Ada_Drivers_Library\obj_lib_Debug\libada_drivers_library.a(nrf51-tasks.o)
                0x0000000000009d08                nrf51__tasks__ppi_chg_0_dis
 .rodata.nrf51__tasks__ppi_chg_1_en
                0x0000000000009d0c        0x4 D:\programming\ada_projects\ravenscar_test\Ada_Drivers_Library\obj_lib_Debug\libada_drivers_library.a(nrf51-tasks.o)
                0x0000000000009d0c                nrf51__tasks__ppi_chg_1_en
 .rodata.nrf51__tasks__ppi_chg_1_dis
                0x0000000000009d10        0x4 D:\programming\ada_projects\ravenscar_test\Ada_Drivers_Library\obj_lib_Debug\libada_drivers_library.a(nrf51-tasks.o)
                0x0000000000009d10                nrf51__tasks__ppi_chg_1_dis
 .rodata.nrf51__tasks__ppi_chg_2_en
                0x0000000000009d14        0x4 D:\programming\ada_projects\ravenscar_test\Ada_Drivers_Library\obj_lib_Debug\libada_drivers_library.a(nrf51-tasks.o)
                0x0000000000009d14                nrf51__tasks__ppi_chg_2_en
 .rodata.nrf51__tasks__ppi_chg_2_dis
                0x0000000000009d18        0x4 D:\programming\ada_projects\ravenscar_test\Ada_Drivers_Library\obj_lib_Debug\libada_drivers_library.a(nrf51-tasks.o)
                0x0000000000009d18                nrf51__tasks__ppi_chg_2_dis
 .rodata.nrf51__tasks__ppi_chg_3_en
                0x0000000000009d1c        0x4 D:\programming\ada_projects\ravenscar_test\Ada_Drivers_Library\obj_lib_Debug\libada_drivers_library.a(nrf51-tasks.o)
                0x0000000000009d1c                nrf51__tasks__ppi_chg_3_en
 .rodata.nrf51__tasks__ppi_chg_3_dis
                0x0000000000009d20        0x4 D:\programming\ada_projects\ravenscar_test\Ada_Drivers_Library\obj_lib_Debug\libada_drivers_library.a(nrf51-tasks.o)
                0x0000000000009d20                nrf51__tasks__ppi_chg_3_dis
 .rodata.nrf51__tasks__radio_txen
                0x0000000000009d24        0x4 D:\programming\ada_projects\ravenscar_test\Ada_Drivers_Library\obj_lib_Debug\libada_drivers_library.a(nrf51-tasks.o)
                0x0000000000009d24                nrf51__tasks__radio_txen
 .rodata.nrf51__tasks__radio_rxen
                0x0000000000009d28        0x4 D:\programming\ada_projects\ravenscar_test\Ada_Drivers_Library\obj_lib_Debug\libada_drivers_library.a(nrf51-tasks.o)
                0x0000000000009d28                nrf51__tasks__radio_rxen
 .rodata.nrf51__tasks__radio_start
                0x0000000000009d2c        0x4 D:\programming\ada_projects\ravenscar_test\Ada_Drivers_Library\obj_lib_Debug\libada_drivers_library.a(nrf51-tasks.o)
                0x0000000000009d2c                nrf51__tasks__radio_start
 .rodata.nrf51__tasks__radio_stop
                0x0000000000009d30        0x4 D:\programming\ada_projects\ravenscar_test\Ada_Drivers_Library\obj_lib_Debug\libada_drivers_library.a(nrf51-tasks.o)
                0x0000000000009d30                nrf51__tasks__radio_stop
 .rodata.nrf51__tasks__radio_disable
                0x0000000000009d34        0x4 D:\programming\ada_projects\ravenscar_test\Ada_Drivers_Library\obj_lib_Debug\libada_drivers_library.a(nrf51-tasks.o)
                0x0000000000009d34                nrf51__tasks__radio_disable
 .rodata.nrf51__tasks__radio_rssistart
                0x0000000000009d38        0x4 D:\programming\ada_projects\ravenscar_test\Ada_Drivers_Library\obj_lib_Debug\libada_drivers_library.a(nrf51-tasks.o)
                0x0000000000009d38                nrf51__tasks__radio_rssistart
 .rodata.nrf51__tasks__radio_rssistop
                0x0000000000009d3c        0x4 D:\programming\ada_projects\ravenscar_test\Ada_Drivers_Library\obj_lib_Debug\libada_drivers_library.a(nrf51-tasks.o)
                0x0000000000009d3c                nrf51__tasks__radio_rssistop
 .rodata.nrf51__tasks__radio_bcstart
                0x0000000000009d40        0x4 D:\programming\ada_projects\ravenscar_test\Ada_Drivers_Library\obj_lib_Debug\libada_drivers_library.a(nrf51-tasks.o)
                0x0000000000009d40                nrf51__tasks__radio_bcstart
 .rodata.nrf51__tasks__radio_bcstop
                0x0000000000009d44        0x4 D:\programming\ada_projects\ravenscar_test\Ada_Drivers_Library\obj_lib_Debug\libada_drivers_library.a(nrf51-tasks.o)
                0x0000000000009d44                nrf51__tasks__radio_bcstop
 .rodata.nrf51__tasks__timer_0_start
                0x0000000000009d48        0x4 D:\programming\ada_projects\ravenscar_test\Ada_Drivers_Library\obj_lib_Debug\libada_drivers_library.a(nrf51-tasks.o)
                0x0000000000009d48                nrf51__tasks__timer_0_start
 .rodata.nrf51__tasks__timer_0_stop
                0x0000000000009d4c        0x4 D:\programming\ada_projects\ravenscar_test\Ada_Drivers_Library\obj_lib_Debug\libada_drivers_library.a(nrf51-tasks.o)
                0x0000000000009d4c                nrf51__tasks__timer_0_stop
 .rodata.nrf51__tasks__timer_0_count
                0x0000000000009d50        0x4 D:\programming\ada_projects\ravenscar_test\Ada_Drivers_Library\obj_lib_Debug\libada_drivers_library.a(nrf51-tasks.o)
                0x0000000000009d50                nrf51__tasks__timer_0_count
 .rodata.nrf51__tasks__timer_0_clear
                0x0000000000009d54        0x4 D:\programming\ada_projects\ravenscar_test\Ada_Drivers_Library\obj_lib_Debug\libada_drivers_library.a(nrf51-tasks.o)
                0x0000000000009d54                nrf51__tasks__timer_0_clear
 .rodata.nrf51__tasks__timer_0_capture_0
                0x0000000000009d58        0x4 D:\programming\ada_projects\ravenscar_test\Ada_Drivers_Library\obj_lib_Debug\libada_drivers_library.a(nrf51-tasks.o)
                0x0000000000009d58                nrf51__tasks__timer_0_capture_0
 .rodata.nrf51__tasks__timer_0_capture_1
                0x0000000000009d5c        0x4 D:\programming\ada_projects\ravenscar_test\Ada_Drivers_Library\obj_lib_Debug\libada_drivers_library.a(nrf51-tasks.o)
                0x0000000000009d5c                nrf51__tasks__timer_0_capture_1
 .rodata.nrf51__tasks__timer_0_capture_2
                0x0000000000009d60        0x4 D:\programming\ada_projects\ravenscar_test\Ada_Drivers_Library\obj_lib_Debug\libada_drivers_library.a(nrf51-tasks.o)
                0x0000000000009d60                nrf51__tasks__timer_0_capture_2
 .rodata.nrf51__tasks__timer_0_capture_3
                0x0000000000009d64        0x4 D:\programming\ada_projects\ravenscar_test\Ada_Drivers_Library\obj_lib_Debug\libada_drivers_library.a(nrf51-tasks.o)
                0x0000000000009d64                nrf51__tasks__timer_0_capture_3
 .rodata.nrf51__tasks__timer_1_start
                0x0000000000009d68        0x4 D:\programming\ada_projects\ravenscar_test\Ada_Drivers_Library\obj_lib_Debug\libada_drivers_library.a(nrf51-tasks.o)
                0x0000000000009d68                nrf51__tasks__timer_1_start
 .rodata.nrf51__tasks__timer_1_stop
                0x0000000000009d6c        0x4 D:\programming\ada_projects\ravenscar_test\Ada_Drivers_Library\obj_lib_Debug\libada_drivers_library.a(nrf51-tasks.o)
                0x0000000000009d6c                nrf51__tasks__timer_1_stop
 .rodata.nrf51__tasks__timer_1_count
                0x0000000000009d70        0x4 D:\programming\ada_projects\ravenscar_test\Ada_Drivers_Library\obj_lib_Debug\libada_drivers_library.a(nrf51-tasks.o)
                0x0000000000009d70                nrf51__tasks__timer_1_count
 .rodata.nrf51__tasks__timer_1_clear
                0x0000000000009d74        0x4 D:\programming\ada_projects\ravenscar_test\Ada_Drivers_Library\obj_lib_Debug\libada_drivers_library.a(nrf51-tasks.o)
                0x0000000000009d74                nrf51__tasks__timer_1_clear
 .rodata.nrf51__tasks__timer_1_capture_0
                0x0000000000009d78        0x4 D:\programming\ada_projects\ravenscar_test\Ada_Drivers_Library\obj_lib_Debug\libada_drivers_library.a(nrf51-tasks.o)
                0x0000000000009d78                nrf51__tasks__timer_1_capture_0
 .rodata.nrf51__tasks__timer_1_capture_1
                0x0000000000009d7c        0x4 D:\programming\ada_projects\ravenscar_test\Ada_Drivers_Library\obj_lib_Debug\libada_drivers_library.a(nrf51-tasks.o)
                0x0000000000009d7c                nrf51__tasks__timer_1_capture_1
 .rodata.nrf51__tasks__timer_1_capture_2
                0x0000000000009d80        0x4 D:\programming\ada_projects\ravenscar_test\Ada_Drivers_Library\obj_lib_Debug\libada_drivers_library.a(nrf51-tasks.o)
                0x0000000000009d80                nrf51__tasks__timer_1_capture_2
 .rodata.nrf51__tasks__timer_1_capture_3
                0x0000000000009d84        0x4 D:\programming\ada_projects\ravenscar_test\Ada_Drivers_Library\obj_lib_Debug\libada_drivers_library.a(nrf51-tasks.o)
                0x0000000000009d84                nrf51__tasks__timer_1_capture_3
 .rodata.nrf51__tasks__timer_2_start
                0x0000000000009d88        0x4 D:\programming\ada_projects\ravenscar_test\Ada_Drivers_Library\obj_lib_Debug\libada_drivers_library.a(nrf51-tasks.o)
                0x0000000000009d88                nrf51__tasks__timer_2_start
 .rodata.nrf51__tasks__timer_2_stop
                0x0000000000009d8c        0x4 D:\programming\ada_projects\ravenscar_test\Ada_Drivers_Library\obj_lib_Debug\libada_drivers_library.a(nrf51-tasks.o)
                0x0000000000009d8c                nrf51__tasks__timer_2_stop
 .rodata.nrf51__tasks__timer_2_count
                0x0000000000009d90        0x4 D:\programming\ada_projects\ravenscar_test\Ada_Drivers_Library\obj_lib_Debug\libada_drivers_library.a(nrf51-tasks.o)
                0x0000000000009d90                nrf51__tasks__timer_2_count
 .rodata.nrf51__tasks__timer_2_clear
                0x0000000000009d94        0x4 D:\programming\ada_projects\ravenscar_test\Ada_Drivers_Library\obj_lib_Debug\libada_drivers_library.a(nrf51-tasks.o)
                0x0000000000009d94                nrf51__tasks__timer_2_clear
 .rodata.nrf51__tasks__timer_2_capture_0
                0x0000000000009d98        0x4 D:\programming\ada_projects\ravenscar_test\Ada_Drivers_Library\obj_lib_Debug\libada_drivers_library.a(nrf51-tasks.o)
                0x0000000000009d98                nrf51__tasks__timer_2_capture_0
 .rodata.nrf51__tasks__timer_2_capture_1
                0x0000000000009d9c        0x4 D:\programming\ada_projects\ravenscar_test\Ada_Drivers_Library\obj_lib_Debug\libada_drivers_library.a(nrf51-tasks.o)
                0x0000000000009d9c                nrf51__tasks__timer_2_capture_1
 .rodata.nrf51__tasks__timer_2_capture_2
                0x0000000000009da0        0x4 D:\programming\ada_projects\ravenscar_test\Ada_Drivers_Library\obj_lib_Debug\libada_drivers_library.a(nrf51-tasks.o)
                0x0000000000009da0                nrf51__tasks__timer_2_capture_2
 .rodata.nrf51__tasks__timer_2_capture_3
                0x0000000000009da4        0x4 D:\programming\ada_projects\ravenscar_test\Ada_Drivers_Library\obj_lib_Debug\libada_drivers_library.a(nrf51-tasks.o)
                0x0000000000009da4                nrf51__tasks__timer_2_capture_3
 .rodata.nrf51__tasks__rtc_0_start
                0x0000000000009da8        0x4 D:\programming\ada_projects\ravenscar_test\Ada_Drivers_Library\obj_lib_Debug\libada_drivers_library.a(nrf51-tasks.o)
                0x0000000000009da8                nrf51__tasks__rtc_0_start
 .rodata.nrf51__tasks__rtc_0_stop
                0x0000000000009dac        0x4 D:\programming\ada_projects\ravenscar_test\Ada_Drivers_Library\obj_lib_Debug\libada_drivers_library.a(nrf51-tasks.o)
                0x0000000000009dac                nrf51__tasks__rtc_0_stop
 .rodata.nrf51__tasks__rtc_0_clear
                0x0000000000009db0        0x4 D:\programming\ada_projects\ravenscar_test\Ada_Drivers_Library\obj_lib_Debug\libada_drivers_library.a(nrf51-tasks.o)
                0x0000000000009db0                nrf51__tasks__rtc_0_clear
 .rodata.nrf51__tasks__rtc_0_trigovrflw
                0x0000000000009db4        0x4 D:\programming\ada_projects\ravenscar_test\Ada_Drivers_Library\obj_lib_Debug\libada_drivers_library.a(nrf51-tasks.o)
                0x0000000000009db4                nrf51__tasks__rtc_0_trigovrflw
 .rodata.nrf51__tasks__rtc_1_start
                0x0000000000009db8        0x4 D:\programming\ada_projects\ravenscar_test\Ada_Drivers_Library\obj_lib_Debug\libada_drivers_library.a(nrf51-tasks.o)
                0x0000000000009db8                nrf51__tasks__rtc_1_start
 .rodata.nrf51__tasks__rtc_1_stop
                0x0000000000009dbc        0x4 D:\programming\ada_projects\ravenscar_test\Ada_Drivers_Library\obj_lib_Debug\libada_drivers_library.a(nrf51-tasks.o)
                0x0000000000009dbc                nrf51__tasks__rtc_1_stop
 .rodata.nrf51__tasks__rtc_1_clear
                0x0000000000009dc0        0x4 D:\programming\ada_projects\ravenscar_test\Ada_Drivers_Library\obj_lib_Debug\libada_drivers_library.a(nrf51-tasks.o)
                0x0000000000009dc0                nrf51__tasks__rtc_1_clear
 .rodata.nrf51__tasks__rtc_1_trigovrflw
                0x0000000000009dc4        0x4 D:\programming\ada_projects\ravenscar_test\Ada_Drivers_Library\obj_lib_Debug\libada_drivers_library.a(nrf51-tasks.o)
                0x0000000000009dc4                nrf51__tasks__rtc_1_trigovrflw
 .rodata.nrf51__tasks__watchdog_start
                0x0000000000009dc8        0x4 D:\programming\ada_projects\ravenscar_test\Ada_Drivers_Library\obj_lib_Debug\libada_drivers_library.a(nrf51-tasks.o)
                0x0000000000009dc8                nrf51__tasks__watchdog_start
 .rodata.nrf51__tasks__rng_start
                0x0000000000009dcc        0x4 D:\programming\ada_projects\ravenscar_test\Ada_Drivers_Library\obj_lib_Debug\libada_drivers_library.a(nrf51-tasks.o)
                0x0000000000009dcc                nrf51__tasks__rng_start
 .rodata.nrf51__tasks__rng_stop
                0x0000000000009dd0        0x4 D:\programming\ada_projects\ravenscar_test\Ada_Drivers_Library\obj_lib_Debug\libada_drivers_library.a(nrf51-tasks.o)
                0x0000000000009dd0                nrf51__tasks__rng_stop
 .rodata.nrf51__tasks__temperature_start
                0x0000000000009dd4        0x4 D:\programming\ada_projects\ravenscar_test\Ada_Drivers_Library\obj_lib_Debug\libada_drivers_library.a(nrf51-tasks.o)
                0x0000000000009dd4                nrf51__tasks__temperature_start
 .rodata.nrf51__tasks__temperature_stop
                0x0000000000009dd8        0x4 D:\programming\ada_projects\ravenscar_test\Ada_Drivers_Library\obj_lib_Debug\libada_drivers_library.a(nrf51-tasks.o)
                0x0000000000009dd8                nrf51__tasks__temperature_stop
 .rodata.nrf51__tasks__ecb_start
                0x0000000000009ddc        0x4 D:\programming\ada_projects\ravenscar_test\Ada_Drivers_Library\obj_lib_Debug\libada_drivers_library.a(nrf51-tasks.o)
                0x0000000000009ddc                nrf51__tasks__ecb_start
 .rodata.nrf51__tasks__ecb_stop
                0x0000000000009de0        0x4 D:\programming\ada_projects\ravenscar_test\Ada_Drivers_Library\obj_lib_Debug\libada_drivers_library.a(nrf51-tasks.o)
                0x0000000000009de0                nrf51__tasks__ecb_stop
 .rodata.nrf51__tasks__ccm_ksgen
                0x0000000000009de4        0x4 D:\programming\ada_projects\ravenscar_test\Ada_Drivers_Library\obj_lib_Debug\libada_drivers_library.a(nrf51-tasks.o)
                0x0000000000009de4                nrf51__tasks__ccm_ksgen
 .rodata.nrf51__tasks__ccm_crypt
                0x0000000000009de8        0x4 D:\programming\ada_projects\ravenscar_test\Ada_Drivers_Library\obj_lib_Debug\libada_drivers_library.a(nrf51-tasks.o)
                0x0000000000009de8                nrf51__tasks__ccm_crypt
 .rodata.nrf51__tasks__ccm_stop
                0x0000000000009dec        0x4 D:\programming\ada_projects\ravenscar_test\Ada_Drivers_Library\obj_lib_Debug\libada_drivers_library.a(nrf51-tasks.o)
                0x0000000000009dec                nrf51__tasks__ccm_stop
 .rodata.nrf51__tasks__aar_start
                0x0000000000009df0        0x4 D:\programming\ada_projects\ravenscar_test\Ada_Drivers_Library\obj_lib_Debug\libada_drivers_library.a(nrf51-tasks.o)
                0x0000000000009df0                nrf51__tasks__aar_start
 .rodata.nrf51__tasks__aar_stop
                0x0000000000009df4        0x4 D:\programming\ada_projects\ravenscar_test\Ada_Drivers_Library\obj_lib_Debug\libada_drivers_library.a(nrf51-tasks.o)
                0x0000000000009df4                nrf51__tasks__aar_stop
 .rodata.nrf51__tasks__twi_0_startrx
                0x0000000000009df8        0x4 D:\programming\ada_projects\ravenscar_test\Ada_Drivers_Library\obj_lib_Debug\libada_drivers_library.a(nrf51-tasks.o)
                0x0000000000009df8                nrf51__tasks__twi_0_startrx
 .rodata.nrf51__tasks__twi_0_starttx
                0x0000000000009dfc        0x4 D:\programming\ada_projects\ravenscar_test\Ada_Drivers_Library\obj_lib_Debug\libada_drivers_library.a(nrf51-tasks.o)
                0x0000000000009dfc                nrf51__tasks__twi_0_starttx
 .rodata.nrf51__tasks__twi_0_stop
                0x0000000000009e00        0x4 D:\programming\ada_projects\ravenscar_test\Ada_Drivers_Library\obj_lib_Debug\libada_drivers_library.a(nrf51-tasks.o)
                0x0000000000009e00                nrf51__tasks__twi_0_stop
 .rodata.nrf51__tasks__twi_0_suspend
                0x0000000000009e04        0x4 D:\programming\ada_projects\ravenscar_test\Ada_Drivers_Library\obj_lib_Debug\libada_drivers_library.a(nrf51-tasks.o)
                0x0000000000009e04                nrf51__tasks__twi_0_suspend
 .rodata.nrf51__tasks__twi_0_resume
                0x0000000000009e08        0x4 D:\programming\ada_projects\ravenscar_test\Ada_Drivers_Library\obj_lib_Debug\libada_drivers_library.a(nrf51-tasks.o)
                0x0000000000009e08                nrf51__tasks__twi_0_resume
 .rodata.nrf51__tasks__twi_1_startrx
                0x0000000000009e0c        0x4 D:\programming\ada_projects\ravenscar_test\Ada_Drivers_Library\obj_lib_Debug\libada_drivers_library.a(nrf51-tasks.o)
                0x0000000000009e0c                nrf51__tasks__twi_1_startrx
 .rodata.nrf51__tasks__twi_1_starttx
                0x0000000000009e10        0x4 D:\programming\ada_projects\ravenscar_test\Ada_Drivers_Library\obj_lib_Debug\libada_drivers_library.a(nrf51-tasks.o)
                0x0000000000009e10                nrf51__tasks__twi_1_starttx
 .rodata.nrf51__tasks__twi_1_stop
                0x0000000000009e14        0x4 D:\programming\ada_projects\ravenscar_test\Ada_Drivers_Library\obj_lib_Debug\libada_drivers_library.a(nrf51-tasks.o)
                0x0000000000009e14                nrf51__tasks__twi_1_stop
 .rodata.nrf51__tasks__twi_1_suspend
                0x0000000000009e18        0x4 D:\programming\ada_projects\ravenscar_test\Ada_Drivers_Library\obj_lib_Debug\libada_drivers_library.a(nrf51-tasks.o)
                0x0000000000009e18                nrf51__tasks__twi_1_suspend
 .rodata.nrf51__tasks__twi_1_resume
                0x0000000000009e1c        0x4 D:\programming\ada_projects\ravenscar_test\Ada_Drivers_Library\obj_lib_Debug\libada_drivers_library.a(nrf51-tasks.o)
                0x0000000000009e1c                nrf51__tasks__twi_1_resume
 .rodata.nrf51__tasks__uart_startrx
                0x0000000000009e20        0x4 D:\programming\ada_projects\ravenscar_test\Ada_Drivers_Library\obj_lib_Debug\libada_drivers_library.a(nrf51-tasks.o)
                0x0000000000009e20                nrf51__tasks__uart_startrx
 .rodata.nrf51__tasks__uart_stoprx
                0x0000000000009e24        0x4 D:\programming\ada_projects\ravenscar_test\Ada_Drivers_Library\obj_lib_Debug\libada_drivers_library.a(nrf51-tasks.o)
                0x0000000000009e24                nrf51__tasks__uart_stoprx
 .rodata.nrf51__tasks__uart_starttx
                0x0000000000009e28        0x4 D:\programming\ada_projects\ravenscar_test\Ada_Drivers_Library\obj_lib_Debug\libada_drivers_library.a(nrf51-tasks.o)
                0x0000000000009e28                nrf51__tasks__uart_starttx
 .rodata.nrf51__tasks__uart_stoptx
                0x0000000000009e2c        0x4 D:\programming\ada_projects\ravenscar_test\Ada_Drivers_Library\obj_lib_Debug\libada_drivers_library.a(nrf51-tasks.o)
                0x0000000000009e2c                nrf51__tasks__uart_stoptx
 .rodata.nrf51__tasks__qdec_start
                0x0000000000009e30        0x4 D:\programming\ada_projects\ravenscar_test\Ada_Drivers_Library\obj_lib_Debug\libada_drivers_library.a(nrf51-tasks.o)
                0x0000000000009e30                nrf51__tasks__qdec_start
 .rodata.nrf51__tasks__qdec_stop
                0x0000000000009e34        0x4 D:\programming\ada_projects\ravenscar_test\Ada_Drivers_Library\obj_lib_Debug\libada_drivers_library.a(nrf51-tasks.o)
                0x0000000000009e34                nrf51__tasks__qdec_stop
 .rodata.nrf51__tasks__qdec_readclracc
                0x0000000000009e38        0x4 D:\programming\ada_projects\ravenscar_test\Ada_Drivers_Library\obj_lib_Debug\libada_drivers_library.a(nrf51-tasks.o)
                0x0000000000009e38                nrf51__tasks__qdec_readclracc
 .rodata.nrf51__tasks__adc_start
                0x0000000000009e3c        0x4 D:\programming\ada_projects\ravenscar_test\Ada_Drivers_Library\obj_lib_Debug\libada_drivers_library.a(nrf51-tasks.o)
                0x0000000000009e3c                nrf51__tasks__adc_start
 .rodata.nrf51__tasks__adc_stop
                0x0000000000009e40        0x4 D:\programming\ada_projects\ravenscar_test\Ada_Drivers_Library\obj_lib_Debug\libada_drivers_library.a(nrf51-tasks.o)
                0x0000000000009e40                nrf51__tasks__adc_stop
 .rodata        0x0000000000009e44       0x60 D:\programming\ada_projects\ravenscar_test\Ada_Drivers_Library\obj_lib_Debug\libada_drivers_library.a(nrf51-timers.o)
 .rodata.nrf51__timers__timerP
                0x0000000000009ea4        0x4 D:\programming\ada_projects\ravenscar_test\Ada_Drivers_Library\obj_lib_Debug\libada_drivers_library.a(nrf51-timers.o)
                0x0000000000009ea4                nrf51__timers__timerP
 .rodata.nrf51__timers__timerY
                0x0000000000009ea8        0x4 D:\programming\ada_projects\ravenscar_test\Ada_Drivers_Library\obj_lib_Debug\libada_drivers_library.a(nrf51-timers.o)
                0x0000000000009ea8                nrf51__timers__timerY
 .rodata.nrf51__timers__timer_modeS
                0x0000000000009eac       0x16 D:\programming\ada_projects\ravenscar_test\Ada_Drivers_Library\obj_lib_Debug\libada_drivers_library.a(nrf51-timers.o)
                0x0000000000009eac                nrf51__timers__timer_modeS
 *fill*         0x0000000000009ec2        0x2 
 .rodata.nrf51__timers__timer_modeN
                0x0000000000009ec4        0x4 D:\programming\ada_projects\ravenscar_test\Ada_Drivers_Library\obj_lib_Debug\libada_drivers_library.a(nrf51-timers.o)
                0x0000000000009ec4                nrf51__timers__timer_modeN
 .rodata.nrf51__timers__timer_bitmodeS
                0x0000000000009ec8       0x33 D:\programming\ada_projects\ravenscar_test\Ada_Drivers_Library\obj_lib_Debug\libada_drivers_library.a(nrf51-timers.o)
                0x0000000000009ec8                nrf51__timers__timer_bitmodeS
 *fill*         0x0000000000009efb        0x1 
 .rodata.nrf51__timers__timer_bitmodeN
                0x0000000000009efc        0x8 D:\programming\ada_projects\ravenscar_test\Ada_Drivers_Library\obj_lib_Debug\libada_drivers_library.a(nrf51-timers.o)
                0x0000000000009efc                nrf51__timers__timer_bitmodeN
 .rodata.nrf51__timers__timerE31s
                0x0000000000009f04       0x13 D:\programming\ada_projects\ravenscar_test\Ada_Drivers_Library\obj_lib_Debug\libada_drivers_library.a(nrf51-timers.o)
                0x0000000000009f04                nrf51__timers__timerE31s
 *fill*         0x0000000000009f17        0x1 
 .rodata.nrf51__timers__timerB35s
                0x0000000000009f18       0x1c D:\programming\ada_projects\ravenscar_test\Ada_Drivers_Library\obj_lib_Debug\libada_drivers_library.a(nrf51-timers.o)
                0x0000000000009f18                nrf51__timers__timerB35s
 .rodata.nrf51__timers__timerR33s___UNC
                0x0000000000009f34       0x24 D:\programming\ada_projects\ravenscar_test\Ada_Drivers_Library\obj_lib_Debug\libada_drivers_library.a(nrf51-timers.o)
                0x0000000000009f34                nrf51__timers__timerR33s___UNC
 .rodata.nrf51__timers__timerR33s
                0x0000000000009f58        0x4 D:\programming\ada_projects\ravenscar_test\Ada_Drivers_Library\obj_lib_Debug\libada_drivers_library.a(nrf51-timers.o)
                0x0000000000009f58                nrf51__timers__timerR33s
 .rodata.nrf51__timers__timerT
                0x0000000000009f5c       0x5c D:\programming\ada_projects\ravenscar_test\Ada_Drivers_Library\obj_lib_Debug\libada_drivers_library.a(nrf51-timers.o)
                0x0000000000009f5c                nrf51__timers__timerT
 .rodata        0x0000000000009fb8       0xe6 D:\programming\ada_projects\ravenscar_test\Ada_Drivers_Library\obj_lib_Debug\libada_drivers_library.a(nrf51-twi.o)
 *fill*         0x000000000000a09e        0x2 
 .rodata.nrf51__twi__twi_speedS
                0x000000000000a0a0       0x21 D:\programming\ada_projects\ravenscar_test\Ada_Drivers_Library\obj_lib_Debug\libada_drivers_library.a(nrf51-twi.o)
                0x000000000000a0a0                nrf51__twi__twi_speedS
 *fill*         0x000000000000a0c1        0x3 
 .rodata.nrf51__twi__twi_speedN
                0x000000000000a0c4        0x4 D:\programming\ada_projects\ravenscar_test\Ada_Drivers_Library\obj_lib_Debug\libada_drivers_library.a(nrf51-twi.o)
                0x000000000000a0c4                nrf51__twi__twi_speedN
 .rodata.nrf51__twi__twi_masterP
                0x000000000000a0c8        0x4 D:\programming\ada_projects\ravenscar_test\Ada_Drivers_Library\obj_lib_Debug\libada_drivers_library.a(nrf51-twi.o)
                0x000000000000a0c8                nrf51__twi__twi_masterP
 .rodata.nrf51__twi__twi_masterY
                0x000000000000a0cc        0x4 D:\programming\ada_projects\ravenscar_test\Ada_Drivers_Library\obj_lib_Debug\libada_drivers_library.a(nrf51-twi.o)
                0x000000000000a0cc                nrf51__twi__twi_masterY
 .rodata.nrf51__twi__twi_masterE29s
                0x000000000000a0d0       0x15 D:\programming\ada_projects\ravenscar_test\Ada_Drivers_Library\obj_lib_Debug\libada_drivers_library.a(nrf51-twi.o)
                0x000000000000a0d0                nrf51__twi__twi_masterE29s
 *fill*         0x000000000000a0e5        0x3 
 .rodata.nrf51__twi__twi_masterB33s
                0x000000000000a0e8       0x20 D:\programming\ada_projects\ravenscar_test\Ada_Drivers_Library\obj_lib_Debug\libada_drivers_library.a(nrf51-twi.o)
                0x000000000000a0e8                nrf51__twi__twi_masterB33s
 .rodata.nrf51__twi__twi_masterR31s___UNC
                0x000000000000a108       0x24 D:\programming\ada_projects\ravenscar_test\Ada_Drivers_Library\obj_lib_Debug\libada_drivers_library.a(nrf51-twi.o)
                0x000000000000a108                nrf51__twi__twi_masterR31s___UNC
 .rodata.nrf51__twi__twi_masterR31s
                0x000000000000a12c        0x4 D:\programming\ada_projects\ravenscar_test\Ada_Drivers_Library\obj_lib_Debug\libada_drivers_library.a(nrf51-twi.o)
                0x000000000000a12c                nrf51__twi__twi_masterR31s
 .rodata.nrf51__twi__twi_masterT
                0x000000000000a130       0x34 D:\programming\ada_projects\ravenscar_test\Ada_Drivers_Library\obj_lib_Debug\libada_drivers_library.a(nrf51-twi.o)
                0x000000000000a130                nrf51__twi__twi_masterT
 .rodata        0x000000000000a164       0x1c D:\programming\ada_projects\ravenscar_test\Ada_Drivers_Library\obj_lib_Debug\libada_drivers_library.a(nrf51_svd-gpio.o)
 .rodata.nrf51_svd__gpio__pin_cnf_dir_fieldS
                0x000000000000a180        0xb D:\programming\ada_projects\ravenscar_test\Ada_Drivers_Library\obj_lib_Debug\libada_drivers_library.a(nrf51_svd-gpio.o)
                0x000000000000a180                nrf51_svd__gpio__pin_cnf_dir_fieldS
 *fill*         0x000000000000a18b        0x1 
 .rodata.nrf51_svd__gpio__pin_cnf_dir_fieldN
                0x000000000000a18c        0x4 D:\programming\ada_projects\ravenscar_test\Ada_Drivers_Library\obj_lib_Debug\libada_drivers_library.a(nrf51_svd-gpio.o)
                0x000000000000a18c                nrf51_svd__gpio__pin_cnf_dir_fieldN
 .rodata.nrf51_svd__gpio__pin_cnf_input_fieldS
                0x000000000000a190       0x11 D:\programming\ada_projects\ravenscar_test\Ada_Drivers_Library\obj_lib_Debug\libada_drivers_library.a(nrf51_svd-gpio.o)
                0x000000000000a190                nrf51_svd__gpio__pin_cnf_input_fieldS
 *fill*         0x000000000000a1a1        0x3 
 .rodata.nrf51_svd__gpio__pin_cnf_input_fieldN
                0x000000000000a1a4        0x4 D:\programming\ada_projects\ravenscar_test\Ada_Drivers_Library\obj_lib_Debug\libada_drivers_library.a(nrf51_svd-gpio.o)
                0x000000000000a1a4                nrf51_svd__gpio__pin_cnf_input_fieldN
 .rodata.nrf51_svd__gpio__pin_cnf_pull_fieldS
                0x000000000000a1a8       0x16 D:\programming\ada_projects\ravenscar_test\Ada_Drivers_Library\obj_lib_Debug\libada_drivers_library.a(nrf51_svd-gpio.o)
                0x000000000000a1a8                nrf51_svd__gpio__pin_cnf_pull_fieldS
 *fill*         0x000000000000a1be        0x2 
 .rodata.nrf51_svd__gpio__pin_cnf_pull_fieldN
                0x000000000000a1c0        0x4 D:\programming\ada_projects\ravenscar_test\Ada_Drivers_Library\obj_lib_Debug\libada_drivers_library.a(nrf51_svd-gpio.o)
                0x000000000000a1c0                nrf51_svd__gpio__pin_cnf_pull_fieldN
 .rodata.nrf51_svd__gpio__pin_cnf_pull_fieldA
                0x000000000000a1c4        0x4 D:\programming\ada_projects\ravenscar_test\Ada_Drivers_Library\obj_lib_Debug\libada_drivers_library.a(nrf51_svd-gpio.o)
                0x000000000000a1c4                nrf51_svd__gpio__pin_cnf_pull_fieldA
 .rodata.nrf51_svd__gpio__pin_cnf_drive_fieldS
                0x000000000000a1c8       0x20 D:\programming\ada_projects\ravenscar_test\Ada_Drivers_Library\obj_lib_Debug\libada_drivers_library.a(nrf51_svd-gpio.o)
                0x000000000000a1c8                nrf51_svd__gpio__pin_cnf_drive_fieldS
 .rodata.nrf51_svd__gpio__pin_cnf_drive_fieldN
                0x000000000000a1e8        0x9 D:\programming\ada_projects\ravenscar_test\Ada_Drivers_Library\obj_lib_Debug\libada_drivers_library.a(nrf51_svd-gpio.o)
                0x000000000000a1e8                nrf51_svd__gpio__pin_cnf_drive_fieldN
 *fill*         0x000000000000a1f1        0x3 
 .rodata.nrf51_svd__gpio__pin_cnf_sense_fieldS
                0x000000000000a1f4        0xf D:\programming\ada_projects\ravenscar_test\Ada_Drivers_Library\obj_lib_Debug\libada_drivers_library.a(nrf51_svd-gpio.o)
                0x000000000000a1f4                nrf51_svd__gpio__pin_cnf_sense_fieldS
 *fill*         0x000000000000a203        0x1 
 .rodata.nrf51_svd__gpio__pin_cnf_sense_fieldN
                0x000000000000a204        0x4 D:\programming\ada_projects\ravenscar_test\Ada_Drivers_Library\obj_lib_Debug\libada_drivers_library.a(nrf51_svd-gpio.o)
                0x000000000000a204                nrf51_svd__gpio__pin_cnf_sense_fieldN
 .rodata.nrf51_svd__gpio__pin_cnf_sense_fieldA
                0x000000000000a208        0x4 D:\programming\ada_projects\ravenscar_test\Ada_Drivers_Library\obj_lib_Debug\libada_drivers_library.a(nrf51_svd-gpio.o)
                0x000000000000a208                nrf51_svd__gpio__pin_cnf_sense_fieldA
 .rodata.nrf51_svd__gpio__out_pin0_fieldS
                0x000000000000a20c        0x8 D:\programming\ada_projects\ravenscar_test\Ada_Drivers_Library\obj_lib_Debug\libada_drivers_library.a(nrf51_svd-gpio.o)
                0x000000000000a20c                nrf51_svd__gpio__out_pin0_fieldS
 .rodata.nrf51_svd__gpio__out_pin0_fieldN
                0x000000000000a214        0x4 D:\programming\ada_projects\ravenscar_test\Ada_Drivers_Library\obj_lib_Debug\libada_drivers_library.a(nrf51_svd-gpio.o)
                0x000000000000a214                nrf51_svd__gpio__out_pin0_fieldN
 .rodata.nrf51_svd__gpio__outset_pin0_field_1S
                0x000000000000a218       0x1a D:\programming\ada_projects\ravenscar_test\Ada_Drivers_Library\obj_lib_Debug\libada_drivers_library.a(nrf51_svd-gpio.o)
                0x000000000000a218                nrf51_svd__gpio__outset_pin0_field_1S
 *fill*         0x000000000000a232        0x2 
 .rodata.nrf51_svd__gpio__outset_pin0_field_1N
                0x000000000000a234        0x4 D:\programming\ada_projects\ravenscar_test\Ada_Drivers_Library\obj_lib_Debug\libada_drivers_library.a(nrf51_svd-gpio.o)
                0x000000000000a234                nrf51_svd__gpio__outset_pin0_field_1N
 .rodata.nrf51_svd__gpio__outclr_pin0_field_1S
                0x000000000000a238       0x1c D:\programming\ada_projects\ravenscar_test\Ada_Drivers_Library\obj_lib_Debug\libada_drivers_library.a(nrf51_svd-gpio.o)
                0x000000000000a238                nrf51_svd__gpio__outclr_pin0_field_1S
 .rodata.nrf51_svd__gpio__outclr_pin0_field_1N
                0x000000000000a254        0x4 D:\programming\ada_projects\ravenscar_test\Ada_Drivers_Library\obj_lib_Debug\libada_drivers_library.a(nrf51_svd-gpio.o)
                0x000000000000a254                nrf51_svd__gpio__outclr_pin0_field_1N
 .rodata.nrf51_svd__gpio__in_pin0_fieldS
                0x000000000000a258        0x8 D:\programming\ada_projects\ravenscar_test\Ada_Drivers_Library\obj_lib_Debug\libada_drivers_library.a(nrf51_svd-gpio.o)
                0x000000000000a258                nrf51_svd__gpio__in_pin0_fieldS
 .rodata.nrf51_svd__gpio__in_pin0_fieldN
                0x000000000000a260        0x4 D:\programming\ada_projects\ravenscar_test\Ada_Drivers_Library\obj_lib_Debug\libada_drivers_library.a(nrf51_svd-gpio.o)
                0x000000000000a260                nrf51_svd__gpio__in_pin0_fieldN
 .rodata.nrf51_svd__gpio__dir_pin0_fieldS
                0x000000000000a264        0xb D:\programming\ada_projects\ravenscar_test\Ada_Drivers_Library\obj_lib_Debug\libada_drivers_library.a(nrf51_svd-gpio.o)
                0x000000000000a264                nrf51_svd__gpio__dir_pin0_fieldS
 *fill*         0x000000000000a26f        0x1 
 .rodata.nrf51_svd__gpio__dir_pin0_fieldN
                0x000000000000a270        0x4 D:\programming\ada_projects\ravenscar_test\Ada_Drivers_Library\obj_lib_Debug\libada_drivers_library.a(nrf51_svd-gpio.o)
                0x000000000000a270                nrf51_svd__gpio__dir_pin0_fieldN
 .rodata.nrf51_svd__gpio__dirset_pin0_field_1S
                0x000000000000a274       0x1a D:\programming\ada_projects\ravenscar_test\Ada_Drivers_Library\obj_lib_Debug\libada_drivers_library.a(nrf51_svd-gpio.o)
                0x000000000000a274                nrf51_svd__gpio__dirset_pin0_field_1S
 *fill*         0x000000000000a28e        0x2 
 .rodata.nrf51_svd__gpio__dirset_pin0_field_1N
                0x000000000000a290        0x4 D:\programming\ada_projects\ravenscar_test\Ada_Drivers_Library\obj_lib_Debug\libada_drivers_library.a(nrf51_svd-gpio.o)
                0x000000000000a290                nrf51_svd__gpio__dirset_pin0_field_1N
 .rodata.nrf51_svd__gpio__dirclr_pin0_field_1S
                0x000000000000a294       0x1c D:\programming\ada_projects\ravenscar_test\Ada_Drivers_Library\obj_lib_Debug\libada_drivers_library.a(nrf51_svd-gpio.o)
                0x000000000000a294                nrf51_svd__gpio__dirclr_pin0_field_1S
 .rodata.nrf51_svd__gpio__dirclr_pin0_field_1N
                0x000000000000a2b0        0x4 D:\programming\ada_projects\ravenscar_test\Ada_Drivers_Library\obj_lib_Debug\libada_drivers_library.a(nrf51_svd-gpio.o)
                0x000000000000a2b0                nrf51_svd__gpio__dirclr_pin0_field_1N
 .rodata.nrf51_svd__gpio__outset_pin0_fieldS
                0x000000000000a2b4        0x8 D:\programming\ada_projects\ravenscar_test\Ada_Drivers_Library\obj_lib_Debug\libada_drivers_library.a(nrf51_svd-gpio.o)
                0x000000000000a2b4                nrf51_svd__gpio__outset_pin0_fieldS
 .rodata.nrf51_svd__gpio__outset_pin0_fieldN
                0x000000000000a2bc        0x4 D:\programming\ada_projects\ravenscar_test\Ada_Drivers_Library\obj_lib_Debug\libada_drivers_library.a(nrf51_svd-gpio.o)
                0x000000000000a2bc                nrf51_svd__gpio__outset_pin0_fieldN
 .rodata.nrf51_svd__gpio__outclr_pin0_fieldS
                0x000000000000a2c0        0x8 D:\programming\ada_projects\ravenscar_test\Ada_Drivers_Library\obj_lib_Debug\libada_drivers_library.a(nrf51_svd-gpio.o)
                0x000000000000a2c0                nrf51_svd__gpio__outclr_pin0_fieldS
 .rodata.nrf51_svd__gpio__outclr_pin0_fieldN
                0x000000000000a2c8        0x4 D:\programming\ada_projects\ravenscar_test\Ada_Drivers_Library\obj_lib_Debug\libada_drivers_library.a(nrf51_svd-gpio.o)
                0x000000000000a2c8                nrf51_svd__gpio__outclr_pin0_fieldN
 .rodata.nrf51_svd__gpio__dirset_pin0_fieldS
                0x000000000000a2cc        0xb D:\programming\ada_projects\ravenscar_test\Ada_Drivers_Library\obj_lib_Debug\libada_drivers_library.a(nrf51_svd-gpio.o)
                0x000000000000a2cc                nrf51_svd__gpio__dirset_pin0_fieldS
 *fill*         0x000000000000a2d7        0x1 
 .rodata.nrf51_svd__gpio__dirset_pin0_fieldN
                0x000000000000a2d8        0x4 D:\programming\ada_projects\ravenscar_test\Ada_Drivers_Library\obj_lib_Debug\libada_drivers_library.a(nrf51_svd-gpio.o)
                0x000000000000a2d8                nrf51_svd__gpio__dirset_pin0_fieldN
 .rodata.nrf51_svd__gpio__dirclr_pin0_fieldS
                0x000000000000a2dc        0xb D:\programming\ada_projects\ravenscar_test\Ada_Drivers_Library\obj_lib_Debug\libada_drivers_library.a(nrf51_svd-gpio.o)
                0x000000000000a2dc                nrf51_svd__gpio__dirclr_pin0_fieldS
 *fill*         0x000000000000a2e7        0x1 
 .rodata.nrf51_svd__gpio__dirclr_pin0_fieldN
                0x000000000000a2e8        0x4 D:\programming\ada_projects\ravenscar_test\Ada_Drivers_Library\obj_lib_Debug\libada_drivers_library.a(nrf51_svd-gpio.o)
                0x000000000000a2e8                nrf51_svd__gpio__dirclr_pin0_fieldN
 .rodata.nrf51_svd__gpio__gpio_periph
                0x000000000000a2ec        0x4 D:\programming\ada_projects\ravenscar_test\Ada_Drivers_Library\obj_lib_Debug\libada_drivers_library.a(nrf51_svd-gpio.o)
                0x000000000000a2ec                nrf51_svd__gpio__gpio_periph
 .rodata.nrf51_svd__twi__shorts_bb_suspend_fieldS
                0x000000000000a2f0        0xf D:\programming\ada_projects\ravenscar_test\Ada_Drivers_Library\obj_lib_Debug\libada_drivers_library.a(nrf51_svd-twi.o)
                0x000000000000a2f0                nrf51_svd__twi__shorts_bb_suspend_fieldS
 *fill*         0x000000000000a2ff        0x1 
 .rodata.nrf51_svd__twi__shorts_bb_suspend_fieldN
                0x000000000000a300        0x4 D:\programming\ada_projects\ravenscar_test\Ada_Drivers_Library\obj_lib_Debug\libada_drivers_library.a(nrf51_svd-twi.o)
                0x000000000000a300                nrf51_svd__twi__shorts_bb_suspend_fieldN
 .rodata.nrf51_svd__twi__shorts_bb_stop_fieldS
                0x000000000000a304        0xf D:\programming\ada_projects\ravenscar_test\Ada_Drivers_Library\obj_lib_Debug\libada_drivers_library.a(nrf51_svd-twi.o)
                0x000000000000a304                nrf51_svd__twi__shorts_bb_stop_fieldS
 *fill*         0x000000000000a313        0x1 
 .rodata.nrf51_svd__twi__shorts_bb_stop_fieldN
                0x000000000000a314        0x4 D:\programming\ada_projects\ravenscar_test\Ada_Drivers_Library\obj_lib_Debug\libada_drivers_library.a(nrf51_svd-twi.o)
                0x000000000000a314                nrf51_svd__twi__shorts_bb_stop_fieldN
 .rodata.nrf51_svd__twi__intenset_stopped_field_1S
                0x000000000000a318       0x1f D:\programming\ada_projects\ravenscar_test\Ada_Drivers_Library\obj_lib_Debug\libada_drivers_library.a(nrf51_svd-twi.o)
                0x000000000000a318                nrf51_svd__twi__intenset_stopped_field_1S
 *fill*         0x000000000000a337        0x1 
 .rodata.nrf51_svd__twi__intenset_stopped_field_1N
                0x000000000000a338        0x4 D:\programming\ada_projects\ravenscar_test\Ada_Drivers_Library\obj_lib_Debug\libada_drivers_library.a(nrf51_svd-twi.o)
                0x000000000000a338                nrf51_svd__twi__intenset_stopped_field_1N
 .rodata.nrf51_svd__twi__intenset_rxdready_field_1S
                0x000000000000a33c       0x20 D:\programming\ada_projects\ravenscar_test\Ada_Drivers_Library\obj_lib_Debug\libada_drivers_library.a(nrf51_svd-twi.o)
                0x000000000000a33c                nrf51_svd__twi__intenset_rxdready_field_1S
 .rodata.nrf51_svd__twi__intenset_rxdready_field_1N
                0x000000000000a35c        0x4 D:\programming\ada_projects\ravenscar_test\Ada_Drivers_Library\obj_lib_Debug\libada_drivers_library.a(nrf51_svd-twi.o)
                0x000000000000a35c                nrf51_svd__twi__intenset_rxdready_field_1N
 .rodata.nrf51_svd__twi__intenset_txdsent_field_1S
                0x000000000000a360       0x1f D:\programming\ada_projects\ravenscar_test\Ada_Drivers_Library\obj_lib_Debug\libada_drivers_library.a(nrf51_svd-twi.o)
                0x000000000000a360                nrf51_svd__twi__intenset_txdsent_field_1S
 *fill*         0x000000000000a37f        0x1 
 .rodata.nrf51_svd__twi__intenset_txdsent_field_1N
                0x000000000000a380        0x4 D:\programming\ada_projects\ravenscar_test\Ada_Drivers_Library\obj_lib_Debug\libada_drivers_library.a(nrf51_svd-twi.o)
                0x000000000000a380                nrf51_svd__twi__intenset_txdsent_field_1N
 .rodata.nrf51_svd__twi__intenset_error_field_1S
                0x000000000000a384       0x1d D:\programming\ada_projects\ravenscar_test\Ada_Drivers_Library\obj_lib_Debug\libada_drivers_library.a(nrf51_svd-twi.o)
                0x000000000000a384                nrf51_svd__twi__intenset_error_field_1S
 *fill*         0x000000000000a3a1        0x3 
 .rodata.nrf51_svd__twi__intenset_error_field_1N
                0x000000000000a3a4        0x4 D:\programming\ada_projects\ravenscar_test\Ada_Drivers_Library\obj_lib_Debug\libada_drivers_library.a(nrf51_svd-twi.o)
                0x000000000000a3a4                nrf51_svd__twi__intenset_error_field_1N
 .rodata.nrf51_svd__twi__intenset_bb_field_1S
                0x000000000000a3a8       0x1a D:\programming\ada_projects\ravenscar_test\Ada_Drivers_Library\obj_lib_Debug\libada_drivers_library.a(nrf51_svd-twi.o)
                0x000000000000a3a8                nrf51_svd__twi__intenset_bb_field_1S
 *fill*         0x000000000000a3c2        0x2 
 .rodata.nrf51_svd__twi__intenset_bb_field_1N
                0x000000000000a3c4        0x4 D:\programming\ada_projects\ravenscar_test\Ada_Drivers_Library\obj_lib_Debug\libada_drivers_library.a(nrf51_svd-twi.o)
                0x000000000000a3c4                nrf51_svd__twi__intenset_bb_field_1N
 .rodata.nrf51_svd__twi__intenset_suspended_field_1S
                0x000000000000a3c8       0x21 D:\programming\ada_projects\ravenscar_test\Ada_Drivers_Library\obj_lib_Debug\libada_drivers_library.a(nrf51_svd-twi.o)
                0x000000000000a3c8                nrf51_svd__twi__intenset_suspended_field_1S
 *fill*         0x000000000000a3e9        0x3 
 .rodata.nrf51_svd__twi__intenset_suspended_field_1N
                0x000000000000a3ec        0x4 D:\programming\ada_projects\ravenscar_test\Ada_Drivers_Library\obj_lib_Debug\libada_drivers_library.a(nrf51_svd-twi.o)
                0x000000000000a3ec                nrf51_svd__twi__intenset_suspended_field_1N
 .rodata.nrf51_svd__twi__intenclr_stopped_field_1S
                0x000000000000a3f0       0x21 D:\programming\ada_projects\ravenscar_test\Ada_Drivers_Library\obj_lib_Debug\libada_drivers_library.a(nrf51_svd-twi.o)
                0x000000000000a3f0                nrf51_svd__twi__intenclr_stopped_field_1S
 *fill*         0x000000000000a411        0x3 
 .rodata.nrf51_svd__twi__intenclr_stopped_field_1N
                0x000000000000a414        0x4 D:\programming\ada_projects\ravenscar_test\Ada_Drivers_Library\obj_lib_Debug\libada_drivers_library.a(nrf51_svd-twi.o)
                0x000000000000a414                nrf51_svd__twi__intenclr_stopped_field_1N
 .rodata.nrf51_svd__twi__intenclr_rxdready_field_1S
                0x000000000000a418       0x22 D:\programming\ada_projects\ravenscar_test\Ada_Drivers_Library\obj_lib_Debug\libada_drivers_library.a(nrf51_svd-twi.o)
                0x000000000000a418                nrf51_svd__twi__intenclr_rxdready_field_1S
 *fill*         0x000000000000a43a        0x2 
 .rodata.nrf51_svd__twi__intenclr_rxdready_field_1N
                0x000000000000a43c        0x4 D:\programming\ada_projects\ravenscar_test\Ada_Drivers_Library\obj_lib_Debug\libada_drivers_library.a(nrf51_svd-twi.o)
                0x000000000000a43c                nrf51_svd__twi__intenclr_rxdready_field_1N
 .rodata.nrf51_svd__twi__intenclr_txdsent_field_1S
                0x000000000000a440       0x21 D:\programming\ada_projects\ravenscar_test\Ada_Drivers_Library\obj_lib_Debug\libada_drivers_library.a(nrf51_svd-twi.o)
                0x000000000000a440                nrf51_svd__twi__intenclr_txdsent_field_1S
 *fill*         0x000000000000a461        0x3 
 .rodata.nrf51_svd__twi__intenclr_txdsent_field_1N
                0x000000000000a464        0x4 D:\programming\ada_projects\ravenscar_test\Ada_Drivers_Library\obj_lib_Debug\libada_drivers_library.a(nrf51_svd-twi.o)
                0x000000000000a464                nrf51_svd__twi__intenclr_txdsent_field_1N
 .rodata.nrf51_svd__twi__intenclr_error_field_1S
                0x000000000000a468       0x1f D:\programming\ada_projects\ravenscar_test\Ada_Drivers_Library\obj_lib_Debug\libada_drivers_library.a(nrf51_svd-twi.o)
                0x000000000000a468                nrf51_svd__twi__intenclr_error_field_1S
 *fill*         0x000000000000a487        0x1 
 .rodata.nrf51_svd__twi__intenclr_error_field_1N
                0x000000000000a488        0x4 D:\programming\ada_projects\ravenscar_test\Ada_Drivers_Library\obj_lib_Debug\libada_drivers_library.a(nrf51_svd-twi.o)
                0x000000000000a488                nrf51_svd__twi__intenclr_error_field_1N
 .rodata.nrf51_svd__twi__intenclr_bb_field_1S
                0x000000000000a48c       0x1c D:\programming\ada_projects\ravenscar_test\Ada_Drivers_Library\obj_lib_Debug\libada_drivers_library.a(nrf51_svd-twi.o)
                0x000000000000a48c                nrf51_svd__twi__intenclr_bb_field_1S
 .rodata.nrf51_svd__twi__intenclr_bb_field_1N
                0x000000000000a4a8        0x4 D:\programming\ada_projects\ravenscar_test\Ada_Drivers_Library\obj_lib_Debug\libada_drivers_library.a(nrf51_svd-twi.o)
                0x000000000000a4a8                nrf51_svd__twi__intenclr_bb_field_1N
 .rodata.nrf51_svd__twi__intenclr_suspended_field_1S
                0x000000000000a4ac       0x23 D:\programming\ada_projects\ravenscar_test\Ada_Drivers_Library\obj_lib_Debug\libada_drivers_library.a(nrf51_svd-twi.o)
                0x000000000000a4ac                nrf51_svd__twi__intenclr_suspended_field_1S
 *fill*         0x000000000000a4cf        0x1 
 .rodata.nrf51_svd__twi__intenclr_suspended_field_1N
                0x000000000000a4d0        0x4 D:\programming\ada_projects\ravenscar_test\Ada_Drivers_Library\obj_lib_Debug\libada_drivers_library.a(nrf51_svd-twi.o)
                0x000000000000a4d0                nrf51_svd__twi__intenclr_suspended_field_1N
 .rodata.nrf51_svd__twi__errorsrc_overrun_field_1S
                0x000000000000a4d4       0x21 D:\programming\ada_projects\ravenscar_test\Ada_Drivers_Library\obj_lib_Debug\libada_drivers_library.a(nrf51_svd-twi.o)
                0x000000000000a4d4                nrf51_svd__twi__errorsrc_overrun_field_1S
 *fill*         0x000000000000a4f5        0x3 
 .rodata.nrf51_svd__twi__errorsrc_overrun_field_1N
                0x000000000000a4f8        0x4 D:\programming\ada_projects\ravenscar_test\Ada_Drivers_Library\obj_lib_Debug\libada_drivers_library.a(nrf51_svd-twi.o)
                0x000000000000a4f8                nrf51_svd__twi__errorsrc_overrun_field_1N
 .rodata.nrf51_svd__twi__errorsrc_anack_field_1S
                0x000000000000a4fc       0x1f D:\programming\ada_projects\ravenscar_test\Ada_Drivers_Library\obj_lib_Debug\libada_drivers_library.a(nrf51_svd-twi.o)
                0x000000000000a4fc                nrf51_svd__twi__errorsrc_anack_field_1S
 *fill*         0x000000000000a51b        0x1 
 .rodata.nrf51_svd__twi__errorsrc_anack_field_1N
                0x000000000000a51c        0x4 D:\programming\ada_projects\ravenscar_test\Ada_Drivers_Library\obj_lib_Debug\libada_drivers_library.a(nrf51_svd-twi.o)
                0x000000000000a51c                nrf51_svd__twi__errorsrc_anack_field_1N
 .rodata.nrf51_svd__twi__errorsrc_dnack_field_1S
                0x000000000000a520       0x1f D:\programming\ada_projects\ravenscar_test\Ada_Drivers_Library\obj_lib_Debug\libada_drivers_library.a(nrf51_svd-twi.o)
                0x000000000000a520                nrf51_svd__twi__errorsrc_dnack_field_1S
 *fill*         0x000000000000a53f        0x1 
 .rodata.nrf51_svd__twi__errorsrc_dnack_field_1N
                0x000000000000a540        0x4 D:\programming\ada_projects\ravenscar_test\Ada_Drivers_Library\obj_lib_Debug\libada_drivers_library.a(nrf51_svd-twi.o)
                0x000000000000a540                nrf51_svd__twi__errorsrc_dnack_field_1N
 .rodata.nrf51_svd__twi__enable_enable_fieldS
                0x000000000000a544        0xf D:\programming\ada_projects\ravenscar_test\Ada_Drivers_Library\obj_lib_Debug\libada_drivers_library.a(nrf51_svd-twi.o)
                0x000000000000a544                nrf51_svd__twi__enable_enable_fieldS
 *fill*         0x000000000000a553        0x1 
 .rodata.nrf51_svd__twi__enable_enable_fieldN
                0x000000000000a554        0x4 D:\programming\ada_projects\ravenscar_test\Ada_Drivers_Library\obj_lib_Debug\libada_drivers_library.a(nrf51_svd-twi.o)
                0x000000000000a554                nrf51_svd__twi__enable_enable_fieldN
 .rodata.nrf51_svd__twi__enable_enable_fieldA
                0x000000000000a558        0x2 D:\programming\ada_projects\ravenscar_test\Ada_Drivers_Library\obj_lib_Debug\libada_drivers_library.a(nrf51_svd-twi.o)
                0x000000000000a558                nrf51_svd__twi__enable_enable_fieldA
 *fill*         0x000000000000a55a        0x2 
 .rodata.nrf51_svd__twi__power_power_fieldS
                0x000000000000a55c        0xf D:\programming\ada_projects\ravenscar_test\Ada_Drivers_Library\obj_lib_Debug\libada_drivers_library.a(nrf51_svd-twi.o)
                0x000000000000a55c                nrf51_svd__twi__power_power_fieldS
 *fill*         0x000000000000a56b        0x1 
 .rodata.nrf51_svd__twi__power_power_fieldN
                0x000000000000a56c        0x4 D:\programming\ada_projects\ravenscar_test\Ada_Drivers_Library\obj_lib_Debug\libada_drivers_library.a(nrf51_svd-twi.o)
                0x000000000000a56c                nrf51_svd__twi__power_power_fieldN
 .rodata.nrf51_svd__twi__intenset_stopped_fieldS
                0x000000000000a570        0xf D:\programming\ada_projects\ravenscar_test\Ada_Drivers_Library\obj_lib_Debug\libada_drivers_library.a(nrf51_svd-twi.o)
                0x000000000000a570                nrf51_svd__twi__intenset_stopped_fieldS
 *fill*         0x000000000000a57f        0x1 
 .rodata.nrf51_svd__twi__intenset_stopped_fieldN
                0x000000000000a580        0x4 D:\programming\ada_projects\ravenscar_test\Ada_Drivers_Library\obj_lib_Debug\libada_drivers_library.a(nrf51_svd-twi.o)
                0x000000000000a580                nrf51_svd__twi__intenset_stopped_fieldN
 .rodata.nrf51_svd__twi__intenset_rxdready_fieldS
                0x000000000000a584        0xf D:\programming\ada_projects\ravenscar_test\Ada_Drivers_Library\obj_lib_Debug\libada_drivers_library.a(nrf51_svd-twi.o)
                0x000000000000a584                nrf51_svd__twi__intenset_rxdready_fieldS
 *fill*         0x000000000000a593        0x1 
 .rodata.nrf51_svd__twi__intenset_rxdready_fieldN
                0x000000000000a594        0x4 D:\programming\ada_projects\ravenscar_test\Ada_Drivers_Library\obj_lib_Debug\libada_drivers_library.a(nrf51_svd-twi.o)
                0x000000000000a594                nrf51_svd__twi__intenset_rxdready_fieldN
 .rodata.nrf51_svd__twi__intenset_txdsent_fieldS
                0x000000000000a598        0xf D:\programming\ada_projects\ravenscar_test\Ada_Drivers_Library\obj_lib_Debug\libada_drivers_library.a(nrf51_svd-twi.o)
                0x000000000000a598                nrf51_svd__twi__intenset_txdsent_fieldS
 *fill*         0x000000000000a5a7        0x1 
 .rodata.nrf51_svd__twi__intenset_txdsent_fieldN
                0x000000000000a5a8        0x4 D:\programming\ada_projects\ravenscar_test\Ada_Drivers_Library\obj_lib_Debug\libada_drivers_library.a(nrf51_svd-twi.o)
                0x000000000000a5a8                nrf51_svd__twi__intenset_txdsent_fieldN
 .rodata.nrf51_svd__twi__intenset_error_fieldS
                0x000000000000a5ac        0xf D:\programming\ada_projects\ravenscar_test\Ada_Drivers_Library\obj_lib_Debug\libada_drivers_library.a(nrf51_svd-twi.o)
                0x000000000000a5ac                nrf51_svd__twi__intenset_error_fieldS
 *fill*         0x000000000000a5bb        0x1 
 .rodata.nrf51_svd__twi__intenset_error_fieldN
                0x000000000000a5bc        0x4 D:\programming\ada_projects\ravenscar_test\Ada_Drivers_Library\obj_lib_Debug\libada_drivers_library.a(nrf51_svd-twi.o)
                0x000000000000a5bc                nrf51_svd__twi__intenset_error_fieldN
 .rodata.nrf51_svd__twi__intenset_bb_fieldS
                0x000000000000a5c0        0xf D:\programming\ada_projects\ravenscar_test\Ada_Drivers_Library\obj_lib_Debug\libada_drivers_library.a(nrf51_svd-twi.o)
                0x000000000000a5c0                nrf51_svd__twi__intenset_bb_fieldS
 *fill*         0x000000000000a5cf        0x1 
 .rodata.nrf51_svd__twi__intenset_bb_fieldN
                0x000000000000a5d0        0x4 D:\programming\ada_projects\ravenscar_test\Ada_Drivers_Library\obj_lib_Debug\libada_drivers_library.a(nrf51_svd-twi.o)
                0x000000000000a5d0                nrf51_svd__twi__intenset_bb_fieldN
 .rodata.nrf51_svd__twi__intenset_suspended_fieldS
                0x000000000000a5d4        0xf D:\programming\ada_projects\ravenscar_test\Ada_Drivers_Library\obj_lib_Debug\libada_drivers_library.a(nrf51_svd-twi.o)
                0x000000000000a5d4                nrf51_svd__twi__intenset_suspended_fieldS
 *fill*         0x000000000000a5e3        0x1 
 .rodata.nrf51_svd__twi__intenset_suspended_fieldN
                0x000000000000a5e4        0x4 D:\programming\ada_projects\ravenscar_test\Ada_Drivers_Library\obj_lib_Debug\libada_drivers_library.a(nrf51_svd-twi.o)
                0x000000000000a5e4                nrf51_svd__twi__intenset_suspended_fieldN
 .rodata.nrf51_svd__twi__intenclr_stopped_fieldS
                0x000000000000a5e8        0xf D:\programming\ada_projects\ravenscar_test\Ada_Drivers_Library\obj_lib_Debug\libada_drivers_library.a(nrf51_svd-twi.o)
                0x000000000000a5e8                nrf51_svd__twi__intenclr_stopped_fieldS
 *fill*         0x000000000000a5f7        0x1 
 .rodata.nrf51_svd__twi__intenclr_stopped_fieldN
                0x000000000000a5f8        0x4 D:\programming\ada_projects\ravenscar_test\Ada_Drivers_Library\obj_lib_Debug\libada_drivers_library.a(nrf51_svd-twi.o)
                0x000000000000a5f8                nrf51_svd__twi__intenclr_stopped_fieldN
 .rodata.nrf51_svd__twi__intenclr_rxdready_fieldS
                0x000000000000a5fc        0xf D:\programming\ada_projects\ravenscar_test\Ada_Drivers_Library\obj_lib_Debug\libada_drivers_library.a(nrf51_svd-twi.o)
                0x000000000000a5fc                nrf51_svd__twi__intenclr_rxdready_fieldS
 *fill*         0x000000000000a60b        0x1 
 .rodata.nrf51_svd__twi__intenclr_rxdready_fieldN
                0x000000000000a60c        0x4 D:\programming\ada_projects\ravenscar_test\Ada_Drivers_Library\obj_lib_Debug\libada_drivers_library.a(nrf51_svd-twi.o)
                0x000000000000a60c                nrf51_svd__twi__intenclr_rxdready_fieldN
 .rodata.nrf51_svd__twi__intenclr_txdsent_fieldS
                0x000000000000a610        0xf D:\programming\ada_projects\ravenscar_test\Ada_Drivers_Library\obj_lib_Debug\libada_drivers_library.a(nrf51_svd-twi.o)
                0x000000000000a610                nrf51_svd__twi__intenclr_txdsent_fieldS
 *fill*         0x000000000000a61f        0x1 
 .rodata.nrf51_svd__twi__intenclr_txdsent_fieldN
                0x000000000000a620        0x4 D:\programming\ada_projects\ravenscar_test\Ada_Drivers_Library\obj_lib_Debug\libada_drivers_library.a(nrf51_svd-twi.o)
                0x000000000000a620                nrf51_svd__twi__intenclr_txdsent_fieldN
 .rodata.nrf51_svd__twi__intenclr_error_fieldS
                0x000000000000a624        0xf D:\programming\ada_projects\ravenscar_test\Ada_Drivers_Library\obj_lib_Debug\libada_drivers_library.a(nrf51_svd-twi.o)
                0x000000000000a624                nrf51_svd__twi__intenclr_error_fieldS
 *fill*         0x000000000000a633        0x1 
 .rodata.nrf51_svd__twi__intenclr_error_fieldN
                0x000000000000a634        0x4 D:\programming\ada_projects\ravenscar_test\Ada_Drivers_Library\obj_lib_Debug\libada_drivers_library.a(nrf51_svd-twi.o)
                0x000000000000a634                nrf51_svd__twi__intenclr_error_fieldN
 .rodata.nrf51_svd__twi__intenclr_bb_fieldS
                0x000000000000a638        0xf D:\programming\ada_projects\ravenscar_test\Ada_Drivers_Library\obj_lib_Debug\libada_drivers_library.a(nrf51_svd-twi.o)
                0x000000000000a638                nrf51_svd__twi__intenclr_bb_fieldS
 *fill*         0x000000000000a647        0x1 
 .rodata.nrf51_svd__twi__intenclr_bb_fieldN
                0x000000000000a648        0x4 D:\programming\ada_projects\ravenscar_test\Ada_Drivers_Library\obj_lib_Debug\libada_drivers_library.a(nrf51_svd-twi.o)
                0x000000000000a648                nrf51_svd__twi__intenclr_bb_fieldN
 .rodata.nrf51_svd__twi__intenclr_suspended_fieldS
                0x000000000000a64c        0xf D:\programming\ada_projects\ravenscar_test\Ada_Drivers_Library\obj_lib_Debug\libada_drivers_library.a(nrf51_svd-twi.o)
                0x000000000000a64c                nrf51_svd__twi__intenclr_suspended_fieldS
 *fill*         0x000000000000a65b        0x1 
 .rodata.nrf51_svd__twi__intenclr_suspended_fieldN
                0x000000000000a65c        0x4 D:\programming\ada_projects\ravenscar_test\Ada_Drivers_Library\obj_lib_Debug\libada_drivers_library.a(nrf51_svd-twi.o)
                0x000000000000a65c                nrf51_svd__twi__intenclr_suspended_fieldN
 .rodata.nrf51_svd__twi__errorsrc_overrun_fieldS
                0x000000000000a660       0x11 D:\programming\ada_projects\ravenscar_test\Ada_Drivers_Library\obj_lib_Debug\libada_drivers_library.a(nrf51_svd-twi.o)
                0x000000000000a660                nrf51_svd__twi__errorsrc_overrun_fieldS
 *fill*         0x000000000000a671        0x3 
 .rodata.nrf51_svd__twi__errorsrc_overrun_fieldN
                0x000000000000a674        0x4 D:\programming\ada_projects\ravenscar_test\Ada_Drivers_Library\obj_lib_Debug\libada_drivers_library.a(nrf51_svd-twi.o)
                0x000000000000a674                nrf51_svd__twi__errorsrc_overrun_fieldN
 .rodata.nrf51_svd__twi__errorsrc_anack_fieldS
                0x000000000000a678       0x11 D:\programming\ada_projects\ravenscar_test\Ada_Drivers_Library\obj_lib_Debug\libada_drivers_library.a(nrf51_svd-twi.o)
                0x000000000000a678                nrf51_svd__twi__errorsrc_anack_fieldS
 *fill*         0x000000000000a689        0x3 
 .rodata.nrf51_svd__twi__errorsrc_anack_fieldN
                0x000000000000a68c        0x4 D:\programming\ada_projects\ravenscar_test\Ada_Drivers_Library\obj_lib_Debug\libada_drivers_library.a(nrf51_svd-twi.o)
                0x000000000000a68c                nrf51_svd__twi__errorsrc_anack_fieldN
 .rodata.nrf51_svd__twi__errorsrc_dnack_fieldS
                0x000000000000a690       0x11 D:\programming\ada_projects\ravenscar_test\Ada_Drivers_Library\obj_lib_Debug\libada_drivers_library.a(nrf51_svd-twi.o)
                0x000000000000a690                nrf51_svd__twi__errorsrc_dnack_fieldS
 *fill*         0x000000000000a6a1        0x3 
 .rodata.nrf51_svd__twi__errorsrc_dnack_fieldN
                0x000000000000a6a4        0x4 D:\programming\ada_projects\ravenscar_test\Ada_Drivers_Library\obj_lib_Debug\libada_drivers_library.a(nrf51_svd-twi.o)
                0x000000000000a6a4                nrf51_svd__twi__errorsrc_dnack_fieldN
 .rodata.nrf51_svd__twi__twi0_periph
                0x000000000000a6a8        0x4 D:\programming\ada_projects\ravenscar_test\Ada_Drivers_Library\obj_lib_Debug\libada_drivers_library.a(nrf51_svd-twi.o)
                0x000000000000a6a8                nrf51_svd__twi__twi0_periph
 .rodata.nrf51_svd__twi__twi1_periph
                0x000000000000a6ac        0x4 D:\programming\ada_projects\ravenscar_test\Ada_Drivers_Library\obj_lib_Debug\libada_drivers_library.a(nrf51_svd-twi.o)
                0x000000000000a6ac                nrf51_svd__twi__twi1_periph
 .rodata.hal__gpio__capabilityS
                0x000000000000a6b0       0x2f D:\programming\ada_projects\ravenscar_test\Ada_Drivers_Library\obj_lib_Debug\libada_drivers_library.a(hal-gpio.o)
                0x000000000000a6b0                hal__gpio__capabilityS
 *fill*         0x000000000000a6df        0x1 
 .rodata.hal__gpio__capabilityN
                0x000000000000a6e0        0x8 D:\programming\ada_projects\ravenscar_test\Ada_Drivers_Library\obj_lib_Debug\libada_drivers_library.a(hal-gpio.o)
                0x000000000000a6e0                hal__gpio__capabilityN
 .rodata.hal__gpio__gpio_pointP
                0x000000000000a6e8        0x4 D:\programming\ada_projects\ravenscar_test\Ada_Drivers_Library\obj_lib_Debug\libada_drivers_library.a(hal-gpio.o)
                0x000000000000a6e8                hal__gpio__gpio_pointP
 .rodata.hal__gpio__gpio_pointE12s
                0x000000000000a6ec       0x14 D:\programming\ada_projects\ravenscar_test\Ada_Drivers_Library\obj_lib_Debug\libada_drivers_library.a(hal-gpio.o)
                0x000000000000a6ec                hal__gpio__gpio_pointE12s
 .rodata.hal__gpio__gpio_pointB16s
                0x000000000000a700       0x1c D:\programming\ada_projects\ravenscar_test\Ada_Drivers_Library\obj_lib_Debug\libada_drivers_library.a(hal-gpio.o)
                0x000000000000a700                hal__gpio__gpio_pointB16s
 .rodata.hal__gpio__gpio_pointT
                0x000000000000a71c        0x8 D:\programming\ada_projects\ravenscar_test\Ada_Drivers_Library\obj_lib_Debug\libada_drivers_library.a(hal-gpio.o)
                0x000000000000a71c                hal__gpio__gpio_pointT
 .rodata.hal__i2c__i2c_statusS
                0x000000000000a724       0x1a D:\programming\ada_projects\ravenscar_test\Ada_Drivers_Library\obj_lib_Debug\libada_drivers_library.a(hal-i2c.o)
                0x000000000000a724                hal__i2c__i2c_statusS
 *fill*         0x000000000000a73e        0x2 
 .rodata.hal__i2c__i2c_statusN
                0x000000000000a740        0x8 D:\programming\ada_projects\ravenscar_test\Ada_Drivers_Library\obj_lib_Debug\libada_drivers_library.a(hal-i2c.o)
                0x000000000000a740                hal__i2c__i2c_statusN
 .rodata.hal__i2c__i2c_memory_address_sizeS
                0x000000000000a748       0x1d D:\programming\ada_projects\ravenscar_test\Ada_Drivers_Library\obj_lib_Debug\libada_drivers_library.a(hal-i2c.o)
                0x000000000000a748                hal__i2c__i2c_memory_address_sizeS
 *fill*         0x000000000000a765        0x3 
 .rodata.hal__i2c__i2c_memory_address_sizeN
                0x000000000000a768        0x4 D:\programming\ada_projects\ravenscar_test\Ada_Drivers_Library\obj_lib_Debug\libada_drivers_library.a(hal-i2c.o)
                0x000000000000a768                hal__i2c__i2c_memory_address_sizeN
 .rodata.hal__i2c__i2c_portP
                0x000000000000a76c        0x4 D:\programming\ada_projects\ravenscar_test\Ada_Drivers_Library\obj_lib_Debug\libada_drivers_library.a(hal-i2c.o)
                0x000000000000a76c                hal__i2c__i2c_portP
 .rodata.hal__i2c__i2c_portE14s
                0x000000000000a770       0x11 D:\programming\ada_projects\ravenscar_test\Ada_Drivers_Library\obj_lib_Debug\libada_drivers_library.a(hal-i2c.o)
                0x000000000000a770                hal__i2c__i2c_portE14s
 *fill*         0x000000000000a781        0x3 
 .rodata.hal__i2c__i2c_portB18s
                0x000000000000a784       0x1c D:\programming\ada_projects\ravenscar_test\Ada_Drivers_Library\obj_lib_Debug\libada_drivers_library.a(hal-i2c.o)
                0x000000000000a784                hal__i2c__i2c_portB18s
 .rodata.hal__i2c__i2c_portT
                0x000000000000a7a0        0x8 D:\programming\ada_projects\ravenscar_test\Ada_Drivers_Library\obj_lib_Debug\libada_drivers_library.a(hal-i2c.o)
                0x000000000000a7a0                hal__i2c__i2c_portT
 .rodata        0x000000000000a7a8        0xd D:\gnat\2018-arm-elf\arm-eabi\lib\gnat\ravenscar-sfp-microbit\adalib\libgnarl.a(a-reatim.o)
 *fill*         0x000000000000a7b5        0x3 
 .rodata.ada__real_time__duration_units
                0x000000000000a7b8        0x4 D:\gnat\2018-arm-elf\arm-eabi\lib\gnat\ravenscar-sfp-microbit\adalib\libgnarl.a(a-reatim.o)
                0x000000000000a7b8                ada__real_time__duration_units
 *fill*         0x000000000000a7bc        0x4 
 .rodata.ada__real_time__tick
                0x000000000000a7c0        0x8 D:\gnat\2018-arm-elf\arm-eabi\lib\gnat\ravenscar-sfp-microbit\adalib\libgnarl.a(a-reatim.o)
                0x000000000000a7c0                ada__real_time__tick
 .rodata.ada__real_time__time_first
                0x000000000000a7c8        0x8 D:\gnat\2018-arm-elf\arm-eabi\lib\gnat\ravenscar-sfp-microbit\adalib\libgnarl.a(a-reatim.o)
                0x000000000000a7c8                ada__real_time__time_first
 .rodata.ada__real_time__time_last
                0x000000000000a7d0        0x8 D:\gnat\2018-arm-elf\arm-eabi\lib\gnat\ravenscar-sfp-microbit\adalib\libgnarl.a(a-reatim.o)
                0x000000000000a7d0                ada__real_time__time_last
 .rodata.ada__real_time__time_span_first
                0x000000000000a7d8        0x8 D:\gnat\2018-arm-elf\arm-eabi\lib\gnat\ravenscar-sfp-microbit\adalib\libgnarl.a(a-reatim.o)
                0x000000000000a7d8                ada__real_time__time_span_first
 .rodata.ada__real_time__time_span_last
                0x000000000000a7e0        0x8 D:\gnat\2018-arm-elf\arm-eabi\lib\gnat\ravenscar-sfp-microbit\adalib\libgnarl.a(a-reatim.o)
                0x000000000000a7e0                ada__real_time__time_span_last
 .rodata.ada__real_time__time_span_unit
                0x000000000000a7e8        0x8 D:\gnat\2018-arm-elf\arm-eabi\lib\gnat\ravenscar-sfp-microbit\adalib\libgnarl.a(a-reatim.o)
                0x000000000000a7e8                ada__real_time__time_span_unit
 .rodata.ada__real_time__time_span_zero
                0x000000000000a7f0        0x8 D:\gnat\2018-arm-elf\arm-eabi\lib\gnat\ravenscar-sfp-microbit\adalib\libgnarl.a(a-reatim.o)
                0x000000000000a7f0                ada__real_time__time_span_zero
 .rodata.system__bb__board_support__alarm_interrupt_id
                0x000000000000a7f8        0x4 D:\gnat\2018-arm-elf\arm-eabi\lib\gnat\ravenscar-sfp-microbit\adalib\libgnarl.a(s-bbbosu.o)
                0x000000000000a7f8                system__bb__board_support__alarm_interrupt_id
 .rodata.system__bb__board_support__interrupt_request_vector
                0x000000000000a7fc        0x1 D:\gnat\2018-arm-elf\arm-eabi\lib\gnat\ravenscar-sfp-microbit\adalib\libgnarl.a(s-bbbosu.o)
                0x000000000000a7fc                system__bb__board_support__interrupt_request_vector
 *fill*         0x000000000000a7fd        0x3 
 .rodata.system__bb__board_support__nvic_iser0
                0x000000000000a800        0x4 D:\gnat\2018-arm-elf\arm-eabi\lib\gnat\ravenscar-sfp-microbit\adalib\libgnarl.a(s-bbbosu.o)
                0x000000000000a800                system__bb__board_support__nvic_iser0
 .rodata.system__bb__board_support__tick_period
                0x000000000000a804        0x4 D:\gnat\2018-arm-elf\arm-eabi\lib\gnat\ravenscar-sfp-microbit\adalib\libgnarl.a(s-bbbosu.o)
                0x000000000000a804                system__bb__board_support__tick_period
 .rodata.system__bb__cpu_primitives__gnat_error_handler
                0x000000000000a808       0x1c D:\gnat\2018-arm-elf\arm-eabi\lib\gnat\ravenscar-sfp-microbit\adalib\libgnarl.a(s-bbcppr.o)
 .rodata.system__bb__cpu_primitives__bus_fault_vector
                0x000000000000a824        0x1 D:\gnat\2018-arm-elf\arm-eabi\lib\gnat\ravenscar-sfp-microbit\adalib\libgnarl.a(s-bbcppr.o)
                0x000000000000a824                system__bb__cpu_primitives__bus_fault_vector
 *fill*         0x000000000000a825        0x3 
 .rodata.system__bb__cpu_primitives__gnat_error_handler.str1.4
                0x000000000000a828      0x16c D:\gnat\2018-arm-elf\arm-eabi\lib\gnat\ravenscar-sfp-microbit\adalib\libgnarl.a(s-bbcppr.o)
 .rodata.system__bb__cpu_primitives__hard_fault_vector
                0x000000000000a994        0x1 D:\gnat\2018-arm-elf\arm-eabi\lib\gnat\ravenscar-sfp-microbit\adalib\libgnarl.a(s-bbcppr.o)
                0x000000000000a994                system__bb__cpu_primitives__hard_fault_vector
 .rodata.system__bb__cpu_primitives__has_os_extensions
                0x000000000000a995        0x1 D:\gnat\2018-arm-elf\arm-eabi\lib\gnat\ravenscar-sfp-microbit\adalib\libgnarl.a(s-bbcppr.o)
                0x000000000000a995                system__bb__cpu_primitives__has_os_extensions
 .rodata.system__bb__cpu_primitives__has_vtor
                0x000000000000a996        0x1 D:\gnat\2018-arm-elf\arm-eabi\lib\gnat\ravenscar-sfp-microbit\adalib\libgnarl.a(s-bbcppr.o)
                0x000000000000a996                system__bb__cpu_primitives__has_vtor
 .rodata.system__bb__cpu_primitives__interrupt_request_vector
                0x000000000000a997        0x1 D:\gnat\2018-arm-elf\arm-eabi\lib\gnat\ravenscar-sfp-microbit\adalib\libgnarl.a(s-bbcppr.o)
                0x000000000000a997                system__bb__cpu_primitives__interrupt_request_vector
 .rodata.system__bb__cpu_primitives__is_armv6m
                0x000000000000a998        0x1 D:\gnat\2018-arm-elf\arm-eabi\lib\gnat\ravenscar-sfp-microbit\adalib\libgnarl.a(s-bbcppr.o)
                0x000000000000a998                system__bb__cpu_primitives__is_armv6m
 *fill*         0x000000000000a999        0x3 
 .rodata.system__bb__cpu_primitives__nl
                0x000000000000a99c        0x2 D:\gnat\2018-arm-elf\arm-eabi\lib\gnat\ravenscar-sfp-microbit\adalib\libgnarl.a(s-bbcppr.o)
                0x000000000000a99c                system__bb__cpu_primitives__nl
 .rodata.system__bb__cpu_primitives__nmi_vector
                0x000000000000a99e        0x1 D:\gnat\2018-arm-elf\arm-eabi\lib\gnat\ravenscar-sfp-microbit\adalib\libgnarl.a(s-bbcppr.o)
                0x000000000000a99e                system__bb__cpu_primitives__nmi_vector
 .rodata.system__bb__cpu_primitives__pend_sv_vector
                0x000000000000a99f        0x1 D:\gnat\2018-arm-elf\arm-eabi\lib\gnat\ravenscar-sfp-microbit\adalib\libgnarl.a(s-bbcppr.o)
                0x000000000000a99f                system__bb__cpu_primitives__pend_sv_vector
 .rodata.system__bb__cpu_primitives__reset_vector
                0x000000000000a9a0        0x1 D:\gnat\2018-arm-elf\arm-eabi\lib\gnat\ravenscar-sfp-microbit\adalib\libgnarl.a(s-bbcppr.o)
                0x000000000000a9a0                system__bb__cpu_primitives__reset_vector
 .rodata.system__bb__cpu_primitives__sp_process
                0x000000000000a9a1        0x1 D:\gnat\2018-arm-elf\arm-eabi\lib\gnat\ravenscar-sfp-microbit\adalib\libgnarl.a(s-bbcppr.o)
                0x000000000000a9a1                system__bb__cpu_primitives__sp_process
 .rodata.system__bb__cpu_primitives__sv_call_vector
                0x000000000000a9a2        0x1 D:\gnat\2018-arm-elf\arm-eabi\lib\gnat\ravenscar-sfp-microbit\adalib\libgnarl.a(s-bbcppr.o)
                0x000000000000a9a2                system__bb__cpu_primitives__sv_call_vector
 .rodata.system__bb__cpu_primitives__sys_tick_vector
                0x000000000000a9a3        0x1 D:\gnat\2018-arm-elf\arm-eabi\lib\gnat\ravenscar-sfp-microbit\adalib\libgnarl.a(s-bbcppr.o)
                0x000000000000a9a3                system__bb__cpu_primitives__sys_tick_vector
 .rodata.system__bb__cpu_primitives__usage_fault_vector
                0x000000000000a9a4        0x1 D:\gnat\2018-arm-elf\arm-eabi\lib\gnat\ravenscar-sfp-microbit\adalib\libgnarl.a(s-bbcppr.o)
                0x000000000000a9a4                system__bb__cpu_primitives__usage_fault_vector
 *fill*         0x000000000000a9a5        0x3 
 .rodata.system__bb__interrupts__no_interrupt
                0x000000000000a9a8        0x4 D:\gnat\2018-arm-elf\arm-eabi\lib\gnat\ravenscar-sfp-microbit\adalib\libgnarl.a(s-bbinte.o)
                0x000000000000a9a8                system__bb__interrupts__no_interrupt
 .rodata.system__bb__time__initial_composite_execution_time
                0x000000000000a9ac        0x8 D:\gnat\2018-arm-elf\arm-eabi\lib\gnat\ravenscar-sfp-microbit\adalib\libgnarl.a(s-bbtime.o)
                0x000000000000a9ac                system__bb__time__initial_composite_execution_time
 .rodata.system__bb__time__periods_in_epoch
                0x000000000000a9b4        0x4 D:\gnat\2018-arm-elf\arm-eabi\lib\gnat\ravenscar-sfp-microbit\adalib\libgnarl.a(s-bbtime.o)
                0x000000000000a9b4                system__bb__time__periods_in_epoch
 .rodata.system__bb__time__update_in_progress
                0x000000000000a9b8        0x4 D:\gnat\2018-arm-elf\arm-eabi\lib\gnat\ravenscar-sfp-microbit\adalib\libgnarl.a(s-bbtime.o)
                0x000000000000a9b8                system__bb__time__update_in_progress
 .rodata.system__tasking__idle_priority
                0x000000000000a9bc        0x4 D:\gnat\2018-arm-elf\arm-eabi\lib\gnat\ravenscar-sfp-microbit\adalib\libgnarl.a(s-taskin.o)
                0x000000000000a9bc                system__tasking__idle_priority
 .rodata.system__tasking__initialize.str1.4
                0x000000000000a9c0       0x3a D:\gnat\2018-arm-elf\arm-eabi\lib\gnat\ravenscar-sfp-microbit\adalib\libgnarl.a(s-taskin.o)
 *fill*         0x000000000000a9fa        0x2 
 .rodata.system__tasking__library_task_level
                0x000000000000a9fc        0x4 D:\gnat\2018-arm-elf\arm-eabi\lib\gnat\ravenscar-sfp-microbit\adalib\libgnarl.a(s-taskin.o)
                0x000000000000a9fc                system__tasking__library_task_level
 .rodata.system__tasking__null_task
                0x000000000000aa00        0x4 D:\gnat\2018-arm-elf\arm-eabi\lib\gnat\ravenscar-sfp-microbit\adalib\libgnarl.a(s-taskin.o)
                0x000000000000aa00                system__tasking__null_task
 .rodata.system__tasking__task_statesN
                0x000000000000aa04       0x22 D:\gnat\2018-arm-elf\arm-eabi\lib\gnat\ravenscar-sfp-microbit\adalib\libgnarl.a(s-taskin.o)
                0x000000000000aa04                system__tasking__task_statesN
 *fill*         0x000000000000aa26        0x2 
 .rodata.system__tasking__task_statesS
                0x000000000000aa28      0x130 D:\gnat\2018-arm-elf\arm-eabi\lib\gnat\ravenscar-sfp-microbit\adalib\libgnarl.a(s-taskin.o)
                0x000000000000aa28                system__tasking__task_statesS
 .rodata.system__bb__threads__null_thread_id
                0x000000000000ab58        0x4 D:\gnat\2018-arm-elf\arm-eabi\lib\gnat\ravenscar-sfp-microbit\adalib\libgnarl.a(s-bbthre.o)
                0x000000000000ab58                system__bb__threads__null_thread_id
 .rodata.system__bb__threads__thread_statesN
                0x000000000000ab5c        0x4 D:\gnat\2018-arm-elf\arm-eabi\lib\gnat\ravenscar-sfp-microbit\adalib\libgnarl.a(s-bbthre.o)
                0x000000000000ab5c                system__bb__threads__thread_statesN
 .rodata.system__bb__threads__thread_statesS
                0x000000000000ab60       0x18 D:\gnat\2018-arm-elf\arm-eabi\lib\gnat\ravenscar-sfp-microbit\adalib\libgnarl.a(s-bbthre.o)
                0x000000000000ab60                system__bb__threads__thread_statesS
 .rodata.system__bb__timing_events__timing_eventB12s
                0x000000000000ab78       0x1c D:\gnat\2018-arm-elf\arm-eabi\lib\gnat\ravenscar-sfp-microbit\adalib\libgnarl.a(s-bbtiev.o)
                0x000000000000ab78                system__bb__timing_events__timing_eventB12s
 .rodata.system__bb__timing_events__timing_eventE8s
                0x000000000000ab94       0x25 D:\gnat\2018-arm-elf\arm-eabi\lib\gnat\ravenscar-sfp-microbit\adalib\libgnarl.a(s-bbtiev.o)
                0x000000000000ab94                system__bb__timing_events__timing_eventE8s
 *fill*         0x000000000000abb9        0x3 
 .rodata.system__bb__timing_events__timing_eventP
                0x000000000000abbc        0x4 D:\gnat\2018-arm-elf\arm-eabi\lib\gnat\ravenscar-sfp-microbit\adalib\libgnarl.a(s-bbtiev.o)
                0x000000000000abbc                system__bb__timing_events__timing_eventP
 .rodata.system__bb__timing_events__timing_eventR10s
                0x000000000000abc0        0x4 D:\gnat\2018-arm-elf\arm-eabi\lib\gnat\ravenscar-sfp-microbit\adalib\libgnarl.a(s-bbtiev.o)
                0x000000000000abc0                system__bb__timing_events__timing_eventR10s
 .rodata.system__bb__timing_events__timing_eventR10s___UNC
                0x000000000000abc4        0xc D:\gnat\2018-arm-elf\arm-eabi\lib\gnat\ravenscar-sfp-microbit\adalib\libgnarl.a(s-bbtiev.o)
                0x000000000000abc4                system__bb__timing_events__timing_eventR10s___UNC
 .rodata.system__bb__timing_events__timing_eventT
                0x000000000000abd0       0x1c D:\gnat\2018-arm-elf\arm-eabi\lib\gnat\ravenscar-sfp-microbit\adalib\libgnarl.a(s-bbtiev.o)
                0x000000000000abd0                system__bb__timing_events__timing_eventT
 .rodata.system__bb__timing_events__timing_eventY
                0x000000000000abec        0x4 D:\gnat\2018-arm-elf\arm-eabi\lib\gnat\ravenscar-sfp-microbit\adalib\libgnarl.a(s-bbtiev.o)
                0x000000000000abec                system__bb__timing_events__timing_eventY
 .rodata.system__task_primitives__operations__idle_stack_size
                0x000000000000abf0        0x4 D:\gnat\2018-arm-elf\arm-eabi\lib\gnat\ravenscar-sfp-microbit\adalib\libgnarl.a(s-taprop.o)
                0x000000000000abf0                system__task_primitives__operations__idle_stack_size
 .rodata        0x000000000000abf4       0x18 D:\gnat\2018-arm-elf\arm-eabi\lib\gnat\ravenscar-sfp-microbit\adalib\libgnat.a(a-elchha.o)
 .rodata.__gnat_last_chance_handler.str1.4
                0x000000000000ac0c       0x5c D:\gnat\2018-arm-elf\arm-eabi\lib\gnat\ravenscar-sfp-microbit\adalib\libgnat.a(a-elchha.o)
                                         0x5a (size before relaxing)
 .rodata.ada__exceptions__null_id
                0x000000000000ac68        0x4 D:\gnat\2018-arm-elf\arm-eabi\lib\gnat\ravenscar-sfp-microbit\adalib\libgnat.a(a-except.o)
                0x000000000000ac68                ada__exceptions__null_id
 .rodata.ada__exceptions__empty_c_string___UNC
                0x000000000000ac6c        0xc D:\gnat\2018-arm-elf\arm-eabi\lib\gnat\ravenscar-sfp-microbit\adalib\libgnat.a(a-except.o)
                0x000000000000ac6c                ada__exceptions__empty_c_string___UNC
 .rodata.ada__exceptions__empty_c_string
                0x000000000000ac78        0x4 D:\gnat\2018-arm-elf\arm-eabi\lib\gnat\ravenscar-sfp-microbit\adalib\libgnat.a(a-except.o)
                0x000000000000ac78                ada__exceptions__empty_c_string
 .rodata.system__assertions__R2s
                0x000000000000ac7c        0x4 D:\gnat\2018-arm-elf\arm-eabi\lib\gnat\ravenscar-sfp-microbit\adalib\libgnat.a(s-assert.o)
                0x000000000000ac7c                system__assertions__R2s
 .rodata.system__assertions__assert_failureE
                0x000000000000ac80       0x21 D:\gnat\2018-arm-elf\arm-eabi\lib\gnat\ravenscar-sfp-microbit\adalib\libgnat.a(s-assert.o)
                0x000000000000ac80                system__assertions__assert_failureE
 *fill*         0x000000000000aca1        0x3 
 .rodata.system__parameters__c_malloc_linkname
                0x000000000000aca4        0xd D:\gnat\2018-arm-elf\arm-eabi\lib\gnat\ravenscar-sfp-microbit\adalib\libgnat.a(s-parame.o)
                0x000000000000aca4                system__parameters__c_malloc_linkname
 *fill*         0x000000000000acb1        0x3 
 .rodata.system__parameters__default_stack_size
                0x000000000000acb4        0x4 D:\gnat\2018-arm-elf\arm-eabi\lib\gnat\ravenscar-sfp-microbit\adalib\libgnat.a(s-parame.o)
                0x000000000000acb4                system__parameters__default_stack_size
 .rodata.system__parameters__garbage_collected
                0x000000000000acb8        0x1 D:\gnat\2018-arm-elf\arm-eabi\lib\gnat\ravenscar-sfp-microbit\adalib\libgnat.a(s-parame.o)
                0x000000000000acb8                system__parameters__garbage_collected
 *fill*         0x000000000000acb9        0x3 
 .rodata.system__parameters__minimum_stack_size
                0x000000000000acbc        0x4 D:\gnat\2018-arm-elf\arm-eabi\lib\gnat\ravenscar-sfp-microbit\adalib\libgnat.a(s-parame.o)
                0x000000000000acbc                system__parameters__minimum_stack_size
 .rodata.system__parameters__no_abort
                0x000000000000acc0        0x1 D:\gnat\2018-arm-elf\arm-eabi\lib\gnat\ravenscar-sfp-microbit\adalib\libgnat.a(s-parame.o)
                0x000000000000acc0                system__parameters__no_abort
 *fill*         0x000000000000acc1        0x3 
 .rodata.system__parameters__runtime_default_sec_stack_size
                0x000000000000acc4        0x4 D:\gnat\2018-arm-elf\arm-eabi\lib\gnat\ravenscar-sfp-microbit\adalib\libgnat.a(s-parame.o)
                0x000000000000acc4                system__parameters__runtime_default_sec_stack_size
 .rodata.system__parameters__single_lock
                0x000000000000acc8        0x1 D:\gnat\2018-arm-elf\arm-eabi\lib\gnat\ravenscar-sfp-microbit\adalib\libgnat.a(s-parame.o)
                0x000000000000acc8                system__parameters__single_lock
 .rodata.system__parameters__stack_grows_down
                0x000000000000acc9        0x1 D:\gnat\2018-arm-elf\arm-eabi\lib\gnat\ravenscar-sfp-microbit\adalib\libgnat.a(s-parame.o)
                0x000000000000acc9                system__parameters__stack_grows_down
 *fill*         0x000000000000acca        0x2 
 .rodata.system__parameters__unspecified_size
                0x000000000000accc        0x4 D:\gnat\2018-arm-elf\arm-eabi\lib\gnat\ravenscar-sfp-microbit\adalib\libgnat.a(s-parame.o)
                0x000000000000accc                system__parameters__unspecified_size
 .rodata        0x000000000000acd0        0xd D:\gnat\2018-arm-elf\arm-eabi\lib\gnat\ravenscar-sfp-microbit\adalib\libgnat.a(s-secsta.o)
 *fill*         0x000000000000acdd        0x3 
 .rodata        0x000000000000ace0       0x80 d:/gnat/2018-arm-elf/bin/../lib/gcc/arm-eabi/7.3.1/thumb/v6-m\libgcc.a(divsf3.o)
 .rodata        0x000000000000ad60       0x40 d:/gnat/2018-arm-elf/bin/../lib/gcc/arm-eabi/7.3.1/thumb/v6-m\libgcc.a(mulsf3.o)
                0x000000000000ada0                . = ALIGN (0x4)
                0x000000000000ada0                __rom_end = .
                0x000000000000ada0                __data_load = __rom_end

.rel.dyn        0x000000000000ada0        0x0
 .rel.iplt      0x000000000000ada0        0x0 main.o

.data           0x0000000020000000      0x198 load address 0x000000000000ada0
                0x0000000020000000                __data_start = .
 *(.data .data.* .gnu.linkonce.d*)
 .data          0x0000000020000000        0x0 main.o
 .data          0x0000000020000000        0x2 b__main.o
                0x0000000020000000                ada_main_E
 .data          0x0000000020000002        0x0 D:\programming\ada_projects\ravenscar_test\Ada_Drivers_Library\obj_lib_Debug\libada_drivers_library.a(cortex_m-nvic.o)
 .data.cortex_m__nvic_E
                0x0000000020000002        0x2 D:\programming\ada_projects\ravenscar_test\Ada_Drivers_Library\obj_lib_Debug\libada_drivers_library.a(cortex_m-nvic.o)
                0x0000000020000002                cortex_m__nvic_E
 .data          0x0000000020000004        0x0 D:\programming\ada_projects\ravenscar_test\Ada_Drivers_Library\obj_lib_Debug\libada_drivers_library.a(microbit-ios.o)
 .data.microbit__ios_E
                0x0000000020000004        0x2 D:\programming\ada_projects\ravenscar_test\Ada_Drivers_Library\obj_lib_Debug\libada_drivers_library.a(microbit-ios.o)
                0x0000000020000004                microbit__ios_E
 *fill*         0x0000000020000006        0x2 
 .data.microbit__ios__current_mode
                0x0000000020000008       0x15 D:\programming\ada_projects\ravenscar_test\Ada_Drivers_Library\obj_lib_Debug\libada_drivers_library.a(microbit-ios.o)
                0x0000000020000008                microbit__ios__current_mode
 *fill*         0x000000002000001d        0x3 
 .data.microbit__ios__pwm_alloc
                0x0000000020000020       0x15 D:\programming\ada_projects\ravenscar_test\Ada_Drivers_Library\obj_lib_Debug\libada_drivers_library.a(microbit-ios.o)
                0x0000000020000020                microbit__ios__pwm_alloc
 *fill*         0x0000000020000035        0x3 
 .data.microbit__ios__pwm_period
                0x0000000020000038        0x4 D:\programming\ada_projects\ravenscar_test\Ada_Drivers_Library\obj_lib_Debug\libada_drivers_library.a(microbit-ios.o)
                0x0000000020000038                microbit__ios__pwm_period
 .data          0x000000002000003c        0x0 D:\programming\ada_projects\ravenscar_test\Ada_Drivers_Library\obj_lib_Debug\libada_drivers_library.a(nrf51-adc.o)
 .data.nrf51__adc_E
                0x000000002000003c        0x2 D:\programming\ada_projects\ravenscar_test\Ada_Drivers_Library\obj_lib_Debug\libada_drivers_library.a(nrf51-adc.o)
                0x000000002000003c                nrf51__adc_E
 .data          0x000000002000003e        0x0 D:\programming\ada_projects\ravenscar_test\Ada_Drivers_Library\obj_lib_Debug\libada_drivers_library.a(nrf51-device.o)
 .data.nrf51__device_E
                0x000000002000003e        0x2 D:\programming\ada_projects\ravenscar_test\Ada_Drivers_Library\obj_lib_Debug\libada_drivers_library.a(nrf51-device.o)
                0x000000002000003e                nrf51__device_E
 .data          0x0000000020000040        0x0 D:\programming\ada_projects\ravenscar_test\Ada_Drivers_Library\obj_lib_Debug\libada_drivers_library.a(nrf51-events.o)
 .data.nrf51__events_E
                0x0000000020000040        0x2 D:\programming\ada_projects\ravenscar_test\Ada_Drivers_Library\obj_lib_Debug\libada_drivers_library.a(nrf51-events.o)
                0x0000000020000040                nrf51__events_E
 .data          0x0000000020000042        0x0 D:\programming\ada_projects\ravenscar_test\Ada_Drivers_Library\obj_lib_Debug\libada_drivers_library.a(nrf51-gpio-tasks_and_events.o)
 .data.nrf51__gpio__tasks_and_events_E
                0x0000000020000042        0x2 D:\programming\ada_projects\ravenscar_test\Ada_Drivers_Library\obj_lib_Debug\libada_drivers_library.a(nrf51-gpio-tasks_and_events.o)
                0x0000000020000042                nrf51__gpio__tasks_and_events_E
 .data          0x0000000020000044        0x0 D:\programming\ada_projects\ravenscar_test\Ada_Drivers_Library\obj_lib_Debug\libada_drivers_library.a(nrf51-gpio.o)
 .data.nrf51__gpio_E
                0x0000000020000044        0x2 D:\programming\ada_projects\ravenscar_test\Ada_Drivers_Library\obj_lib_Debug\libada_drivers_library.a(nrf51-gpio.o)
                0x0000000020000044                nrf51__gpio_E
 .data.nrf51__gpio__modeE4b
                0x0000000020000046        0x1 D:\programming\ada_projects\ravenscar_test\Ada_Drivers_Library\obj_lib_Debug\libada_drivers_library.a(nrf51-gpio.o)
                0x0000000020000046                nrf51__gpio__modeE4b
 .data.nrf51__gpio__set_modeE11b
                0x0000000020000047        0x1 D:\programming\ada_projects\ravenscar_test\Ada_Drivers_Library\obj_lib_Debug\libada_drivers_library.a(nrf51-gpio.o)
                0x0000000020000047                nrf51__gpio__set_modeE11b
 .data.nrf51__gpio__pull_resistorE17b
                0x0000000020000048        0x1 D:\programming\ada_projects\ravenscar_test\Ada_Drivers_Library\obj_lib_Debug\libada_drivers_library.a(nrf51-gpio.o)
                0x0000000020000048                nrf51__gpio__pull_resistorE17b
 .data.nrf51__gpio__set_pull_resistorE23b
                0x0000000020000049        0x1 D:\programming\ada_projects\ravenscar_test\Ada_Drivers_Library\obj_lib_Debug\libada_drivers_library.a(nrf51-gpio.o)
                0x0000000020000049                nrf51__gpio__set_pull_resistorE23b
 .data.nrf51__gpio__configure_ioE38b
                0x000000002000004a        0x1 D:\programming\ada_projects\ravenscar_test\Ada_Drivers_Library\obj_lib_Debug\libada_drivers_library.a(nrf51-gpio.o)
                0x000000002000004a                nrf51__gpio__configure_ioE38b
 .data          0x000000002000004b        0x0 D:\programming\ada_projects\ravenscar_test\Ada_Drivers_Library\obj_lib_Debug\libada_drivers_library.a(nrf51-interrupts.o)
 *fill*         0x000000002000004b        0x1 
 .data.nrf51__interrupts_E
                0x000000002000004c        0x2 D:\programming\ada_projects\ravenscar_test\Ada_Drivers_Library\obj_lib_Debug\libada_drivers_library.a(nrf51-interrupts.o)
                0x000000002000004c                nrf51__interrupts_E
 *fill*         0x000000002000004e        0x2 
 .data.nrf51__interrupts__handlers
                0x0000000020000050       0x80 D:\programming\ada_projects\ravenscar_test\Ada_Drivers_Library\obj_lib_Debug\libada_drivers_library.a(nrf51-interrupts.o)
 .data          0x00000000200000d0        0x0 D:\programming\ada_projects\ravenscar_test\Ada_Drivers_Library\obj_lib_Debug\libada_drivers_library.a(nrf51-ppi.o)
 .data.nrf51__ppi_E
                0x00000000200000d0        0x2 D:\programming\ada_projects\ravenscar_test\Ada_Drivers_Library\obj_lib_Debug\libada_drivers_library.a(nrf51-ppi.o)
                0x00000000200000d0                nrf51__ppi_E
 .data          0x00000000200000d2        0x0 D:\programming\ada_projects\ravenscar_test\Ada_Drivers_Library\obj_lib_Debug\libada_drivers_library.a(nrf51-rtc.o)
 .data.nrf51__rtc_E
                0x00000000200000d2        0x2 D:\programming\ada_projects\ravenscar_test\Ada_Drivers_Library\obj_lib_Debug\libada_drivers_library.a(nrf51-rtc.o)
                0x00000000200000d2                nrf51__rtc_E
 .data          0x00000000200000d4        0x0 D:\programming\ada_projects\ravenscar_test\Ada_Drivers_Library\obj_lib_Debug\libada_drivers_library.a(nrf51-tasks.o)
 .data.nrf51__tasks_E
                0x00000000200000d4        0x2 D:\programming\ada_projects\ravenscar_test\Ada_Drivers_Library\obj_lib_Debug\libada_drivers_library.a(nrf51-tasks.o)
                0x00000000200000d4                nrf51__tasks_E
 .data          0x00000000200000d6        0x0 D:\programming\ada_projects\ravenscar_test\Ada_Drivers_Library\obj_lib_Debug\libada_drivers_library.a(nrf51-timers.o)
 .data.nrf51__timers_E
                0x00000000200000d6        0x2 D:\programming\ada_projects\ravenscar_test\Ada_Drivers_Library\obj_lib_Debug\libada_drivers_library.a(nrf51-timers.o)
                0x00000000200000d6                nrf51__timers_E
 .data.nrf51__timers__set_prescalerE4b
                0x00000000200000d8        0x1 D:\programming\ada_projects\ravenscar_test\Ada_Drivers_Library\obj_lib_Debug\libada_drivers_library.a(nrf51-timers.o)
                0x00000000200000d8                nrf51__timers__set_prescalerE4b
 .data.nrf51__timers__set_modeE6b
                0x00000000200000d9        0x1 D:\programming\ada_projects\ravenscar_test\Ada_Drivers_Library\obj_lib_Debug\libada_drivers_library.a(nrf51-timers.o)
                0x00000000200000d9                nrf51__timers__set_modeE6b
 .data.nrf51__timers__set_bitmodeE11b
                0x00000000200000da        0x1 D:\programming\ada_projects\ravenscar_test\Ada_Drivers_Library\obj_lib_Debug\libada_drivers_library.a(nrf51-timers.o)
                0x00000000200000da                nrf51__timers__set_bitmodeE11b
 .data.nrf51__timers__bitmodeE19b
                0x00000000200000db        0x1 D:\programming\ada_projects\ravenscar_test\Ada_Drivers_Library\obj_lib_Debug\libada_drivers_library.a(nrf51-timers.o)
                0x00000000200000db                nrf51__timers__bitmodeE19b
 .data.nrf51__timers__compare_interruptE26b
                0x00000000200000dc        0x1 D:\programming\ada_projects\ravenscar_test\Ada_Drivers_Library\obj_lib_Debug\libada_drivers_library.a(nrf51-timers.o)
                0x00000000200000dc                nrf51__timers__compare_interruptE26b
 .data.nrf51__timers__startE1b
                0x00000000200000dd        0x1 D:\programming\ada_projects\ravenscar_test\Ada_Drivers_Library\obj_lib_Debug\libada_drivers_library.a(nrf51-timers.o)
                0x00000000200000dd                nrf51__timers__startE1b
 .data.nrf51__timers__stopE2b
                0x00000000200000de        0x1 D:\programming\ada_projects\ravenscar_test\Ada_Drivers_Library\obj_lib_Debug\libada_drivers_library.a(nrf51-timers.o)
                0x00000000200000de                nrf51__timers__stopE2b
 .data.nrf51__timers__clearE3b
                0x00000000200000df        0x1 D:\programming\ada_projects\ravenscar_test\Ada_Drivers_Library\obj_lib_Debug\libada_drivers_library.a(nrf51-timers.o)
                0x00000000200000df                nrf51__timers__clearE3b
 .data.nrf51__timers__compare_shortcutE27b
                0x00000000200000e0        0x1 D:\programming\ada_projects\ravenscar_test\Ada_Drivers_Library\obj_lib_Debug\libada_drivers_library.a(nrf51-timers.o)
                0x00000000200000e0                nrf51__timers__compare_shortcutE27b
 .data.nrf51__timers__set_compareE28b
                0x00000000200000e1        0x1 D:\programming\ada_projects\ravenscar_test\Ada_Drivers_Library\obj_lib_Debug\libada_drivers_library.a(nrf51-timers.o)
                0x00000000200000e1                nrf51__timers__set_compareE28b
 .data.nrf51__timers__captureE29b
                0x00000000200000e2        0x1 D:\programming\ada_projects\ravenscar_test\Ada_Drivers_Library\obj_lib_Debug\libada_drivers_library.a(nrf51-timers.o)
                0x00000000200000e2                nrf51__timers__captureE29b
 .data.nrf51__timers__captureE31b
                0x00000000200000e3        0x1 D:\programming\ada_projects\ravenscar_test\Ada_Drivers_Library\obj_lib_Debug\libada_drivers_library.a(nrf51-timers.o)
                0x00000000200000e3                nrf51__timers__captureE31b
 .data.nrf51__timers__cc_registerE33b
                0x00000000200000e4        0x1 D:\programming\ada_projects\ravenscar_test\Ada_Drivers_Library\obj_lib_Debug\libada_drivers_library.a(nrf51-timers.o)
                0x00000000200000e4                nrf51__timers__cc_registerE33b
 .data          0x00000000200000e5        0x0 D:\programming\ada_projects\ravenscar_test\Ada_Drivers_Library\obj_lib_Debug\libada_drivers_library.a(nrf51-twi.o)
 *fill*         0x00000000200000e5        0x1 
 .data.nrf51__twi_E
                0x00000000200000e6        0x2 D:\programming\ada_projects\ravenscar_test\Ada_Drivers_Library\obj_lib_Debug\libada_drivers_library.a(nrf51-twi.o)
                0x00000000200000e6                nrf51__twi_E
 .data.nrf51__twi__enableE1b
                0x00000000200000e8        0x1 D:\programming\ada_projects\ravenscar_test\Ada_Drivers_Library\obj_lib_Debug\libada_drivers_library.a(nrf51-twi.o)
                0x00000000200000e8                nrf51__twi__enableE1b
 .data.nrf51__twi__disableE2b
                0x00000000200000e9        0x1 D:\programming\ada_projects\ravenscar_test\Ada_Drivers_Library\obj_lib_Debug\libada_drivers_library.a(nrf51-twi.o)
                0x00000000200000e9                nrf51__twi__disableE2b
 .data.nrf51__twi__enabledE5b
                0x00000000200000ea        0x1 D:\programming\ada_projects\ravenscar_test\Ada_Drivers_Library\obj_lib_Debug\libada_drivers_library.a(nrf51-twi.o)
                0x00000000200000ea                nrf51__twi__enabledE5b
 .data.nrf51__twi__configureE7b
                0x00000000200000eb        0x1 D:\programming\ada_projects\ravenscar_test\Ada_Drivers_Library\obj_lib_Debug\libada_drivers_library.a(nrf51-twi.o)
                0x00000000200000eb                nrf51__twi__configureE7b
 .data.nrf51__twi__disconnectE8b
                0x00000000200000ec        0x1 D:\programming\ada_projects\ravenscar_test\Ada_Drivers_Library\obj_lib_Debug\libada_drivers_library.a(nrf51-twi.o)
                0x00000000200000ec                nrf51__twi__disconnectE8b
 .data.nrf51__twi__master_transmitE17b
                0x00000000200000ed        0x1 D:\programming\ada_projects\ravenscar_test\Ada_Drivers_Library\obj_lib_Debug\libada_drivers_library.a(nrf51-twi.o)
                0x00000000200000ed                nrf51__twi__master_transmitE17b
 .data.nrf51__twi__master_receiveE27b
                0x00000000200000ee        0x1 D:\programming\ada_projects\ravenscar_test\Ada_Drivers_Library\obj_lib_Debug\libada_drivers_library.a(nrf51-twi.o)
                0x00000000200000ee                nrf51__twi__master_receiveE27b
 .data.nrf51__twi__mem_writeE41b
                0x00000000200000ef        0x1 D:\programming\ada_projects\ravenscar_test\Ada_Drivers_Library\obj_lib_Debug\libada_drivers_library.a(nrf51-twi.o)
                0x00000000200000ef                nrf51__twi__mem_writeE41b
 .data.nrf51__twi__mem_readE55b
                0x00000000200000f0        0x1 D:\programming\ada_projects\ravenscar_test\Ada_Drivers_Library\obj_lib_Debug\libada_drivers_library.a(nrf51-twi.o)
                0x00000000200000f0                nrf51__twi__mem_readE55b
 .data          0x00000000200000f1        0x0 D:\programming\ada_projects\ravenscar_test\Ada_Drivers_Library\obj_lib_Debug\libada_drivers_library.a(nrf51_svd-gpio.o)
 .data          0x00000000200000f1        0x0 D:\programming\ada_projects\ravenscar_test\Ada_Drivers_Library\obj_lib_Debug\libada_drivers_library.a(nrf51_svd-twi.o)
 .data          0x00000000200000f1        0x0 D:\programming\ada_projects\ravenscar_test\Ada_Drivers_Library\obj_lib_Debug\libada_drivers_library.a(hal-gpio.o)
 *fill*         0x00000000200000f1        0x1 
 .data.hal__gpio_E
                0x00000000200000f2        0x2 D:\programming\ada_projects\ravenscar_test\Ada_Drivers_Library\obj_lib_Debug\libada_drivers_library.a(hal-gpio.o)
                0x00000000200000f2                hal__gpio_E
 .data          0x00000000200000f4        0x0 D:\programming\ada_projects\ravenscar_test\Ada_Drivers_Library\obj_lib_Debug\libada_drivers_library.a(hal-i2c.o)
 .data.hal__i2c_E
                0x00000000200000f4        0x2 D:\programming\ada_projects\ravenscar_test\Ada_Drivers_Library\obj_lib_Debug\libada_drivers_library.a(hal-i2c.o)
                0x00000000200000f4                hal__i2c_E
 .data          0x00000000200000f6        0x0 D:\gnat\2018-arm-elf\arm-eabi\lib\gnat\ravenscar-sfp-microbit\adalib\libgnarl.a(a-reatim.o)
 .data.ada__real_time_E
                0x00000000200000f6        0x2 D:\gnat\2018-arm-elf\arm-eabi\lib\gnat\ravenscar-sfp-microbit\adalib\libgnarl.a(a-reatim.o)
                0x00000000200000f6                ada__real_time_E
 .data          0x00000000200000f8        0x0 D:\gnat\2018-arm-elf\arm-eabi\lib\gnat\ravenscar-sfp-microbit\adalib\libgnarl.a(s-bbbosu.o)
 .data.system__bb__board_support__time__upper_alarm_handler
                0x00000000200000f8        0x4 D:\gnat\2018-arm-elf\arm-eabi\lib\gnat\ravenscar-sfp-microbit\adalib\libgnarl.a(s-bbbosu.o)
                0x00000000200000f8                system__bb__board_support__time__upper_alarm_handler
 .data          0x00000000200000fc        0x0 D:\gnat\2018-arm-elf\arm-eabi\lib\gnat\ravenscar-sfp-microbit\adalib\libgnarl.a(s-bbcppr.o)
 .data          0x00000000200000fc        0x0 D:\gnat\2018-arm-elf\arm-eabi\lib\gnat\ravenscar-sfp-microbit\adalib\libgnarl.a(s-bbinte.o)
 .data.system__bb__interrupts__interrupt_being_handled
                0x00000000200000fc        0x4 D:\gnat\2018-arm-elf\arm-eabi\lib\gnat\ravenscar-sfp-microbit\adalib\libgnarl.a(s-bbinte.o)
                0x00000000200000fc                system__bb__interrupts__interrupt_being_handled
 .data          0x0000000020000100        0x0 D:\gnat\2018-arm-elf\arm-eabi\lib\gnat\ravenscar-sfp-microbit\adalib\libgnarl.a(s-bbthqu.o)
 .data.__gnat_running_thread_table
                0x0000000020000100        0x4 D:\gnat\2018-arm-elf\arm-eabi\lib\gnat\ravenscar-sfp-microbit\adalib\libgnarl.a(s-bbthqu.o)
                0x0000000020000100                __gnat_running_thread_table
 .data.first_thread_table
                0x0000000020000104        0x4 D:\gnat\2018-arm-elf\arm-eabi\lib\gnat\ravenscar-sfp-microbit\adalib\libgnarl.a(s-bbthqu.o)
                0x0000000020000104                first_thread_table
 .data.system__bb__threads__queues__alarms_table
                0x0000000020000108        0x4 D:\gnat\2018-arm-elf\arm-eabi\lib\gnat\ravenscar-sfp-microbit\adalib\libgnarl.a(s-bbthqu.o)
                0x0000000020000108                system__bb__threads__queues__alarms_table
 .data.system__bb__threads__queues__global_list
                0x000000002000010c        0x4 D:\gnat\2018-arm-elf\arm-eabi\lib\gnat\ravenscar-sfp-microbit\adalib\libgnarl.a(s-bbthqu.o)
                0x000000002000010c                system__bb__threads__queues__global_list
 .data          0x0000000020000110        0x0 D:\gnat\2018-arm-elf\arm-eabi\lib\gnat\ravenscar-sfp-microbit\adalib\libgnarl.a(s-bbtime.o)
 .data.system__bb__time__alarm_lock
                0x0000000020000110        0x2 D:\gnat\2018-arm-elf\arm-eabi\lib\gnat\ravenscar-sfp-microbit\adalib\libgnarl.a(s-bbtime.o)
                0x0000000020000110                system__bb__time__alarm_lock
 *fill*         0x0000000020000112        0x6 
 .data.system__bb__time__max_sleep
                0x0000000020000118        0x8 D:\gnat\2018-arm-elf\arm-eabi\lib\gnat\ravenscar-sfp-microbit\adalib\libgnarl.a(s-bbtime.o)
                0x0000000020000118                system__bb__time__max_sleep
 .data.system__bb__time__pending_alarm
                0x0000000020000120        0x8 D:\gnat\2018-arm-elf\arm-eabi\lib\gnat\ravenscar-sfp-microbit\adalib\libgnarl.a(s-bbtime.o)
                0x0000000020000120                system__bb__time__pending_alarm
 .data.system__bb__time__scheduling_event_hook
                0x0000000020000128        0x4 D:\gnat\2018-arm-elf\arm-eabi\lib\gnat\ravenscar-sfp-microbit\adalib\libgnarl.a(s-bbtime.o)
                0x0000000020000128                system__bb__time__scheduling_event_hook
 .data.system__bb__time__software_clock
                0x000000002000012c        0x8 D:\gnat\2018-arm-elf\arm-eabi\lib\gnat\ravenscar-sfp-microbit\adalib\libgnarl.a(s-bbtime.o)
                0x000000002000012c                system__bb__time__software_clock
 .data          0x0000000020000134        0x0 D:\gnat\2018-arm-elf\arm-eabi\lib\gnat\ravenscar-sfp-microbit\adalib\libgnarl.a(s-bcpcst.o)
 .data          0x0000000020000134        0x0 D:\gnat\2018-arm-elf\arm-eabi\lib\gnat\ravenscar-sfp-microbit\adalib\libgnarl.a(s-taskin.o)
 .data.__gl_main_cpu
                0x0000000020000134        0x4 D:\gnat\2018-arm-elf\arm-eabi\lib\gnat\ravenscar-sfp-microbit\adalib\libgnarl.a(s-taskin.o)
                0x0000000020000134                __gl_main_cpu
 .data.__gl_main_priority
                0x0000000020000138        0x4 D:\gnat\2018-arm-elf\arm-eabi\lib\gnat\ravenscar-sfp-microbit\adalib\libgnarl.a(s-taskin.o)
                0x0000000020000138                __gl_main_priority
 .data.system__tasking__fall_back_handler
                0x000000002000013c        0x8 D:\gnat\2018-arm-elf\arm-eabi\lib\gnat\ravenscar-sfp-microbit\adalib\libgnarl.a(s-taskin.o)
                0x000000002000013c                system__tasking__fall_back_handler
 .data.system__tasking__initialized
                0x0000000020000144        0x1 D:\gnat\2018-arm-elf\arm-eabi\lib\gnat\ravenscar-sfp-microbit\adalib\libgnarl.a(s-taskin.o)
 .data          0x0000000020000145        0x0 D:\gnat\2018-arm-elf\arm-eabi\lib\gnat\ravenscar-sfp-microbit\adalib\libgnarl.a(s-bbprot.o)
 *fill*         0x0000000020000145        0x3 
 .data.system__bb__protection__wakeup_served_entry_callback
                0x0000000020000148        0x4 D:\gnat\2018-arm-elf\arm-eabi\lib\gnat\ravenscar-sfp-microbit\adalib\libgnarl.a(s-bbprot.o)
                0x0000000020000148                system__bb__protection__wakeup_served_entry_callback
 .data          0x000000002000014c        0x0 D:\gnat\2018-arm-elf\arm-eabi\lib\gnat\ravenscar-sfp-microbit\adalib\libgnarl.a(s-bbthre.o)
 .data.system__bb__threads__initialized
                0x000000002000014c        0x1 D:\gnat\2018-arm-elf\arm-eabi\lib\gnat\ravenscar-sfp-microbit\adalib\libgnarl.a(s-bbthre.o)
                0x000000002000014c                system__bb__threads__initialized
 .data          0x000000002000014d        0x0 D:\gnat\2018-arm-elf\arm-eabi\lib\gnat\ravenscar-sfp-microbit\adalib\libgnarl.a(s-bbtiev.o)
 *fill*         0x000000002000014d        0x1 
 .data.system__bb__timing_events_E
                0x000000002000014e        0x2 D:\gnat\2018-arm-elf\arm-eabi\lib\gnat\ravenscar-sfp-microbit\adalib\libgnarl.a(s-bbtiev.o)
                0x000000002000014e                system__bb__timing_events_E
 .data.system__bb__timing_events__events_table
                0x0000000020000150        0x4 D:\gnat\2018-arm-elf\arm-eabi\lib\gnat\ravenscar-sfp-microbit\adalib\libgnarl.a(s-bbtiev.o)
                0x0000000020000150                system__bb__timing_events__events_table
 .data          0x0000000020000154        0x0 D:\gnat\2018-arm-elf\arm-eabi\lib\gnat\ravenscar-sfp-microbit\adalib\libgnarl.a(s-taprop.o)
 .data.system__task_primitives__operations__environment_task
                0x0000000020000154        0x4 D:\gnat\2018-arm-elf\arm-eabi\lib\gnat\ravenscar-sfp-microbit\adalib\libgnarl.a(s-taprop.o)
                0x0000000020000154                system__task_primitives__operations__environment_task
 .data          0x0000000020000158        0x0 D:\gnat\2018-arm-elf\arm-eabi\lib\gnat\ravenscar-sfp-microbit\adalib\libgnarl.a(s-tasdeb.o)
 .data.system__tasking__debug_E
                0x0000000020000158        0x2 D:\gnat\2018-arm-elf\arm-eabi\lib\gnat\ravenscar-sfp-microbit\adalib\libgnarl.a(s-tasdeb.o)
                0x0000000020000158                system__tasking__debug_E
 *fill*         0x000000002000015a        0x2 
 .data.system__tasking__debug__first_task
                0x000000002000015c        0x4 D:\gnat\2018-arm-elf\arm-eabi\lib\gnat\ravenscar-sfp-microbit\adalib\libgnarl.a(s-tasdeb.o)
                0x000000002000015c                system__tasking__debug__first_task
 .data.system__tasking__debug__last_task
                0x0000000020000160        0x4 D:\gnat\2018-arm-elf\arm-eabi\lib\gnat\ravenscar-sfp-microbit\adalib\libgnarl.a(s-tasdeb.o)
                0x0000000020000160                system__tasking__debug__last_task
 .data          0x0000000020000164        0x0 D:\gnat\2018-arm-elf\arm-eabi\lib\gnat\ravenscar-sfp-microbit\adalib\libgnat.a(a-elchha.o)
 .data.ada__exceptions__last_chance_handler_E
                0x0000000020000164        0x2 D:\gnat\2018-arm-elf\arm-eabi\lib\gnat\ravenscar-sfp-microbit\adalib\libgnat.a(a-elchha.o)
                0x0000000020000164                ada__exceptions__last_chance_handler_E
 .data          0x0000000020000166        0x0 D:\gnat\2018-arm-elf\arm-eabi\lib\gnat\ravenscar-sfp-microbit\adalib\libgnat.a(a-except.o)
 .data.ada__exceptions_E
                0x0000000020000166        0x2 D:\gnat\2018-arm-elf\arm-eabi\lib\gnat\ravenscar-sfp-microbit\adalib\libgnat.a(a-except.o)
                0x0000000020000166                ada__exceptions_E
 .data          0x0000000020000168        0x0 D:\gnat\2018-arm-elf\arm-eabi\lib\gnat\ravenscar-sfp-microbit\adalib\libgnat.a(g-io.o)
 .data.gnat__io_E
                0x0000000020000168        0x2 D:\gnat\2018-arm-elf\arm-eabi\lib\gnat\ravenscar-sfp-microbit\adalib\libgnat.a(g-io.o)
                0x0000000020000168                gnat__io_E
 .data          0x000000002000016a        0x0 D:\gnat\2018-arm-elf\arm-eabi\lib\gnat\ravenscar-sfp-microbit\adalib\libgnat.a(s-assert.o)
 .data.system__assertions_E
                0x000000002000016a        0x2 D:\gnat\2018-arm-elf\arm-eabi\lib\gnat\ravenscar-sfp-microbit\adalib\libgnat.a(s-assert.o)
                0x000000002000016a                system__assertions_E
 .data.system__assertions__assert_failure
                0x000000002000016c       0x18 D:\gnat\2018-arm-elf\arm-eabi\lib\gnat\ravenscar-sfp-microbit\adalib\libgnat.a(s-assert.o)
                0x000000002000016c                system__assertions__assert_failure
 .data          0x0000000020000184        0x0 D:\gnat\2018-arm-elf\arm-eabi\lib\gnat\ravenscar-sfp-microbit\adalib\libgnat.a(s-macres.o)
 .data.system__machine_reset_E
                0x0000000020000184        0x2 D:\gnat\2018-arm-elf\arm-eabi\lib\gnat\ravenscar-sfp-microbit\adalib\libgnat.a(s-macres.o)
                0x0000000020000184                system__machine_reset_E
 .data          0x0000000020000186        0x0 D:\gnat\2018-arm-elf\arm-eabi\lib\gnat\ravenscar-sfp-microbit\adalib\libgnat.a(s-memcop.o)
 .data.system__memory_copy_E
                0x0000000020000186        0x2 D:\gnat\2018-arm-elf\arm-eabi\lib\gnat\ravenscar-sfp-microbit\adalib\libgnat.a(s-memcop.o)
                0x0000000020000186                system__memory_copy_E
 .data          0x0000000020000188        0x0 D:\gnat\2018-arm-elf\arm-eabi\lib\gnat\ravenscar-sfp-microbit\adalib\libgnat.a(s-memset.o)
 .data.system__memory_set_E
                0x0000000020000188        0x2 D:\gnat\2018-arm-elf\arm-eabi\lib\gnat\ravenscar-sfp-microbit\adalib\libgnat.a(s-memset.o)
                0x0000000020000188                system__memory_set_E
 .data          0x000000002000018a        0x0 D:\gnat\2018-arm-elf\arm-eabi\lib\gnat\ravenscar-sfp-microbit\adalib\libgnat.a(s-parame.o)
 .data.system__parameters_E
                0x000000002000018a        0x2 D:\gnat\2018-arm-elf\arm-eabi\lib\gnat\ravenscar-sfp-microbit\adalib\libgnat.a(s-parame.o)
                0x000000002000018a                system__parameters_E
 .data          0x000000002000018c        0x0 D:\gnat\2018-arm-elf\arm-eabi\lib\gnat\ravenscar-sfp-microbit\adalib\libgnat.a(s-secsta.o)
 .data.system__secondary_stack_E
                0x000000002000018c        0x2 D:\gnat\2018-arm-elf\arm-eabi\lib\gnat\ravenscar-sfp-microbit\adalib\libgnat.a(s-secsta.o)
                0x000000002000018c                system__secondary_stack_E
 *fill*         0x000000002000018e        0x2 
 .data.system__secondary_stack__num_of_assigned_stacks
                0x0000000020000190        0x4 D:\gnat\2018-arm-elf\arm-eabi\lib\gnat\ravenscar-sfp-microbit\adalib\libgnat.a(s-secsta.o)
                0x0000000020000190                system__secondary_stack__num_of_assigned_stacks
 .data          0x0000000020000194        0x0 D:\gnat\2018-arm-elf\arm-eabi\lib\gnat\ravenscar-sfp-microbit\adalib\libgnat.a(s-textio.o)
 .data.system__text_io_E
                0x0000000020000194        0x2 D:\gnat\2018-arm-elf\arm-eabi\lib\gnat\ravenscar-sfp-microbit\adalib\libgnat.a(s-textio.o)
                0x0000000020000194                system__text_io_E
 .data.system__text_io__initialized
                0x0000000020000196        0x1 D:\gnat\2018-arm-elf\arm-eabi\lib\gnat\ravenscar-sfp-microbit\adalib\libgnat.a(s-textio.o)
                0x0000000020000196                system__text_io__initialized
 .data          0x0000000020000197        0x0 D:\gnat\2018-arm-elf\arm-eabi\lib\gnat\ravenscar-sfp-microbit\adalib\libgnat.a(start-rom.o)
 .data          0x0000000020000197        0x0 D:\gnat\2018-arm-elf\arm-eabi\lib\gnat\ravenscar-sfp-microbit\adalib\libgnat.a(handler.o)
 .data          0x0000000020000197        0x0 D:\gnat\2018-arm-elf\arm-eabi\lib\gnat\ravenscar-sfp-microbit\adalib\libgnat.a(breakpoint_handler-cortexm.o)
 .data          0x0000000020000197        0x0 d:/gnat/2018-arm-elf/bin/../lib/gcc/arm-eabi/7.3.1/thumb/v6-m\libgcc.a(_divsi3.o)
 .data          0x0000000020000197        0x0 d:/gnat/2018-arm-elf/bin/../lib/gcc/arm-eabi/7.3.1/thumb/v6-m\libgcc.a(_dvmd_tls.o)
 .data          0x0000000020000197        0x0 d:/gnat/2018-arm-elf/bin/../lib/gcc/arm-eabi/7.3.1/thumb/v6-m\libgcc.a(_arm_cmpsf2.o)
 .data          0x0000000020000197        0x0 d:/gnat/2018-arm-elf/bin/../lib/gcc/arm-eabi/7.3.1/thumb/v6-m\libgcc.a(_aeabi_ldivmod.o)
 .data          0x0000000020000197        0x0 d:/gnat/2018-arm-elf/bin/../lib/gcc/arm-eabi/7.3.1/thumb/v6-m\libgcc.a(_aeabi_uldivmod.o)
 .data          0x0000000020000197        0x0 d:/gnat/2018-arm-elf/bin/../lib/gcc/arm-eabi/7.3.1/thumb/v6-m\libgcc.a(_muldi3.o)
 .data          0x0000000020000197        0x0 d:/gnat/2018-arm-elf/bin/../lib/gcc/arm-eabi/7.3.1/thumb/v6-m\libgcc.a(_fixunssfsi.o)
 .data          0x0000000020000197        0x0 d:/gnat/2018-arm-elf/bin/../lib/gcc/arm-eabi/7.3.1/thumb/v6-m\libgcc.a(_udivmoddi4.o)
 .data          0x0000000020000197        0x0 d:/gnat/2018-arm-elf/bin/../lib/gcc/arm-eabi/7.3.1/thumb/v6-m\libgcc.a(bpabi.o)
 .data          0x0000000020000197        0x0 d:/gnat/2018-arm-elf/bin/../lib/gcc/arm-eabi/7.3.1/thumb/v6-m\libgcc.a(addsf3.o)
 .data          0x0000000020000197        0x0 d:/gnat/2018-arm-elf/bin/../lib/gcc/arm-eabi/7.3.1/thumb/v6-m\libgcc.a(divsf3.o)
 .data          0x0000000020000197        0x0 d:/gnat/2018-arm-elf/bin/../lib/gcc/arm-eabi/7.3.1/thumb/v6-m\libgcc.a(eqsf2.o)
 .data          0x0000000020000197        0x0 d:/gnat/2018-arm-elf/bin/../lib/gcc/arm-eabi/7.3.1/thumb/v6-m\libgcc.a(gesf2.o)
 .data          0x0000000020000197        0x0 d:/gnat/2018-arm-elf/bin/../lib/gcc/arm-eabi/7.3.1/thumb/v6-m\libgcc.a(lesf2.o)
 .data          0x0000000020000197        0x0 d:/gnat/2018-arm-elf/bin/../lib/gcc/arm-eabi/7.3.1/thumb/v6-m\libgcc.a(mulsf3.o)
 .data          0x0000000020000197        0x0 d:/gnat/2018-arm-elf/bin/../lib/gcc/arm-eabi/7.3.1/thumb/v6-m\libgcc.a(subsf3.o)
 .data          0x0000000020000197        0x0 d:/gnat/2018-arm-elf/bin/../lib/gcc/arm-eabi/7.3.1/thumb/v6-m\libgcc.a(unordsf2.o)
 .data          0x0000000020000197        0x0 d:/gnat/2018-arm-elf/bin/../lib/gcc/arm-eabi/7.3.1/thumb/v6-m\libgcc.a(fixsfsi.o)
 .data          0x0000000020000197        0x0 d:/gnat/2018-arm-elf/bin/../lib/gcc/arm-eabi/7.3.1/thumb/v6-m\libgcc.a(floatsisf.o)
 .data          0x0000000020000197        0x0 d:/gnat/2018-arm-elf/bin/../lib/gcc/arm-eabi/7.3.1/thumb/v6-m\libgcc.a(floatunsisf.o)
 .data          0x0000000020000197        0x0 d:/gnat/2018-arm-elf/bin/../lib/gcc/arm-eabi/7.3.1/thumb/v6-m\libgcc.a(_clzsi2.o)
 .data          0x0000000020000197        0x0 d:/gnat/2018-arm-elf/bin/../lib/gcc/arm-eabi/7.3.1/thumb/v6-m\libgcc.a(_clzdi2.o)
 .data          0x0000000020000197        0x0 d:/gnat/2018-arm-elf/bin/../lib/gcc/arm-eabi/7.3.1/thumb/v6-m\libgcc.a(_divdi3.o)
                0x0000000020000198                . = ALIGN (0x4)
 *fill*         0x0000000020000197        0x1 
                0x0000000020000198                __data_end = .
                0x0000000000000066                __data_words = ((__data_end - __data_start) >> 0x2)

.igot.plt       0x0000000020000198        0x0 load address 0x000000000000af38
 .igot.plt      0x0000000020000198        0x0 main.o

.bss            0x0000000020000198     0x1660 load address 0x000000000000af38
                0x0000000020000198                . = ALIGN (0x8)
                0x0000000020000198                __bss_start = .
 *(.bss .bss.*)
 .bss           0x0000000020000198        0x0 main.o
 .bss           0x0000000020000198      0x210 b__main.o
 .bss           0x00000000200003a8        0x0 D:\programming\ada_projects\ravenscar_test\Ada_Drivers_Library\obj_lib_Debug\libada_drivers_library.a(cortex_m-nvic.o)
 .bss           0x00000000200003a8        0x0 D:\programming\ada_projects\ravenscar_test\Ada_Drivers_Library\obj_lib_Debug\libada_drivers_library.a(microbit-ios.o)
 .bss.microbit__ios__points
                0x00000000200003a8       0xa8 D:\programming\ada_projects\ravenscar_test\Ada_Drivers_Library\obj_lib_Debug\libada_drivers_library.a(microbit-ios.o)
                0x00000000200003a8                microbit__ios__points
 .bss.microbit__ios__pwms
                0x0000000020000450       0x24 D:\programming\ada_projects\ravenscar_test\Ada_Drivers_Library\obj_lib_Debug\libada_drivers_library.a(microbit-ios.o)
                0x0000000020000450                microbit__ios__pwms
 .bss           0x0000000020000474        0x0 D:\programming\ada_projects\ravenscar_test\Ada_Drivers_Library\obj_lib_Debug\libada_drivers_library.a(nrf51-adc.o)
 .bss           0x0000000020000474        0x0 D:\programming\ada_projects\ravenscar_test\Ada_Drivers_Library\obj_lib_Debug\libada_drivers_library.a(nrf51-device.o)
 .bss.nrf51__device__p00
                0x0000000020000474        0x8 D:\programming\ada_projects\ravenscar_test\Ada_Drivers_Library\obj_lib_Debug\libada_drivers_library.a(nrf51-device.o)
                0x0000000020000474                nrf51__device( *)
 .bss.nrf51__device__p01
                0x000000002000047c        0x8 D:\programming\ada_projects\ravenscar_test\Ada_Drivers_Library\obj_lib_Debug\libada_drivers_library.a(nrf51-device.o)
                0x000000002000047c                nrf51__device__p01
 .bss.nrf51__device__p02
                0x0000000020000484        0x8 D:\programming\ada_projects\ravenscar_test\Ada_Drivers_Library\obj_lib_Debug\libada_drivers_library.a(nrf51-device.o)
                0x0000000020000484                nrf51__device__p02
 .bss.nrf51__device__p03
                0x000000002000048c        0x8 D:\programming\ada_projects\ravenscar_test\Ada_Drivers_Library\obj_lib_Debug\libada_drivers_library.a(nrf51-device.o)
                0x000000002000048c                nrf51__device__p03
 .bss.nrf51__device__p04
                0x0000000020000494        0x8 D:\programming\ada_projects\ravenscar_test\Ada_Drivers_Library\obj_lib_Debug\libada_drivers_library.a(nrf51-device.o)
                0x0000000020000494                nrf51__device__p04
 .bss.nrf51__device__p05
                0x000000002000049c        0x8 D:\programming\ada_projects\ravenscar_test\Ada_Drivers_Library\obj_lib_Debug\libada_drivers_library.a(nrf51-device.o)
                0x000000002000049c                nrf51__device__p05
 .bss.nrf51__device__p06
                0x00000000200004a4        0x8 D:\programming\ada_projects\ravenscar_test\Ada_Drivers_Library\obj_lib_Debug\libada_drivers_library.a(nrf51-device.o)
                0x00000000200004a4                nrf51__device__p06
 .bss.nrf51__device__p07
                0x00000000200004ac        0x8 D:\programming\ada_projects\ravenscar_test\Ada_Drivers_Library\obj_lib_Debug\libada_drivers_library.a(nrf51-device.o)
                0x00000000200004ac                nrf51__device__p07
 .bss.nrf51__device__p08
                0x00000000200004b4        0x8 D:\programming\ada_projects\ravenscar_test\Ada_Drivers_Library\obj_lib_Debug\libada_drivers_library.a(nrf51-device.o)
                0x00000000200004b4                nrf51__device__p08
 .bss.nrf51__device__p09
                0x00000000200004bc        0x8 D:\programming\ada_projects\ravenscar_test\Ada_Drivers_Library\obj_lib_Debug\libada_drivers_library.a(nrf51-device.o)
                0x00000000200004bc                nrf51__device__p09
 .bss.nrf51__device__p10
                0x00000000200004c4        0x8 D:\programming\ada_projects\ravenscar_test\Ada_Drivers_Library\obj_lib_Debug\libada_drivers_library.a(nrf51-device.o)
                0x00000000200004c4                nrf51__device__p10
 .bss.nrf51__device__p11
                0x00000000200004cc        0x8 D:\programming\ada_projects\ravenscar_test\Ada_Drivers_Library\obj_lib_Debug\libada_drivers_library.a(nrf51-device.o)
                0x00000000200004cc                nrf51__device__p11
 .bss.nrf51__device__p12
                0x00000000200004d4        0x8 D:\programming\ada_projects\ravenscar_test\Ada_Drivers_Library\obj_lib_Debug\libada_drivers_library.a(nrf51-device.o)
                0x00000000200004d4                nrf51__device__p12
 .bss.nrf51__device__p13
                0x00000000200004dc        0x8 D:\programming\ada_projects\ravenscar_test\Ada_Drivers_Library\obj_lib_Debug\libada_drivers_library.a(nrf51-device.o)
                0x00000000200004dc                nrf51__device__p13
 .bss.nrf51__device__p14
                0x00000000200004e4        0x8 D:\programming\ada_projects\ravenscar_test\Ada_Drivers_Library\obj_lib_Debug\libada_drivers_library.a(nrf51-device.o)
                0x00000000200004e4                nrf51__device__p14
 .bss.nrf51__device__p15
                0x00000000200004ec        0x8 D:\programming\ada_projects\ravenscar_test\Ada_Drivers_Library\obj_lib_Debug\libada_drivers_library.a(nrf51-device.o)
                0x00000000200004ec                nrf51__device__p15
 .bss.nrf51__device__p16
                0x00000000200004f4        0x8 D:\programming\ada_projects\ravenscar_test\Ada_Drivers_Library\obj_lib_Debug\libada_drivers_library.a(nrf51-device.o)
                0x00000000200004f4                nrf51__device__p16
 .bss.nrf51__device__p17
                0x00000000200004fc        0x8 D:\programming\ada_projects\ravenscar_test\Ada_Drivers_Library\obj_lib_Debug\libada_drivers_library.a(nrf51-device.o)
                0x00000000200004fc                nrf51__device__p17
 .bss.nrf51__device__p18
                0x0000000020000504        0x8 D:\programming\ada_projects\ravenscar_test\Ada_Drivers_Library\obj_lib_Debug\libada_drivers_library.a(nrf51-device.o)
                0x0000000020000504                nrf51__device__p18
 .bss.nrf51__device__p19
                0x000000002000050c        0x8 D:\programming\ada_projects\ravenscar_test\Ada_Drivers_Library\obj_lib_Debug\libada_drivers_library.a(nrf51-device.o)
                0x000000002000050c                nrf51__device__p19
 .bss.nrf51__device__p20
                0x0000000020000514        0x8 D:\programming\ada_projects\ravenscar_test\Ada_Drivers_Library\obj_lib_Debug\libada_drivers_library.a(nrf51-device.o)
                0x0000000020000514                nrf51__device__p20
 .bss.nrf51__device__p21
                0x000000002000051c        0x8 D:\programming\ada_projects\ravenscar_test\Ada_Drivers_Library\obj_lib_Debug\libada_drivers_library.a(nrf51-device.o)
                0x000000002000051c                nrf51__device__p21
 .bss.nrf51__device__p22
                0x0000000020000524        0x8 D:\programming\ada_projects\ravenscar_test\Ada_Drivers_Library\obj_lib_Debug\libada_drivers_library.a(nrf51-device.o)
                0x0000000020000524                nrf51__device__p22
 .bss.nrf51__device__p23
                0x000000002000052c        0x8 D:\programming\ada_projects\ravenscar_test\Ada_Drivers_Library\obj_lib_Debug\libada_drivers_library.a(nrf51-device.o)
                0x000000002000052c                nrf51__device__p23
 .bss.nrf51__device__p24
                0x0000000020000534        0x8 D:\programming\ada_projects\ravenscar_test\Ada_Drivers_Library\obj_lib_Debug\libada_drivers_library.a(nrf51-device.o)
                0x0000000020000534                nrf51__device__p24
 .bss.nrf51__device__p25
                0x000000002000053c        0x8 D:\programming\ada_projects\ravenscar_test\Ada_Drivers_Library\obj_lib_Debug\libada_drivers_library.a(nrf51-device.o)
                0x000000002000053c                nrf51__device__p25
 .bss.nrf51__device__p26
                0x0000000020000544        0x8 D:\programming\ada_projects\ravenscar_test\Ada_Drivers_Library\obj_lib_Debug\libada_drivers_library.a(nrf51-device.o)
                0x0000000020000544                nrf51__device__p26
 .bss.nrf51__device__p27
                0x000000002000054c        0x8 D:\programming\ada_projects\ravenscar_test\Ada_Drivers_Library\obj_lib_Debug\libada_drivers_library.a(nrf51-device.o)
                0x000000002000054c                nrf51__device__p27
 .bss.nrf51__device__p28
                0x0000000020000554        0x8 D:\programming\ada_projects\ravenscar_test\Ada_Drivers_Library\obj_lib_Debug\libada_drivers_library.a(nrf51-device.o)
                0x0000000020000554                nrf51__device__p28
 .bss.nrf51__device__p29
                0x000000002000055c        0x8 D:\programming\ada_projects\ravenscar_test\Ada_Drivers_Library\obj_lib_Debug\libada_drivers_library.a(nrf51-device.o)
                0x000000002000055c                nrf51__device__p29
 .bss.nrf51__device__p30
                0x0000000020000564        0x8 D:\programming\ada_projects\ravenscar_test\Ada_Drivers_Library\obj_lib_Debug\libada_drivers_library.a(nrf51-device.o)
                0x0000000020000564                nrf51__device__p30
 .bss.nrf51__device__p31
                0x000000002000056c        0x8 D:\programming\ada_projects\ravenscar_test\Ada_Drivers_Library\obj_lib_Debug\libada_drivers_library.a(nrf51-device.o)
                0x000000002000056c                nrf51__device__p31
 .bss.nrf51__device__rtc_0
                0x0000000020000574        0x4 D:\programming\ada_projects\ravenscar_test\Ada_Drivers_Library\obj_lib_Debug\libada_drivers_library.a(nrf51-device.o)
                0x0000000020000574                nrf51__device__rtc_0
 .bss.nrf51__device__rtc_1
                0x0000000020000578        0x4 D:\programming\ada_projects\ravenscar_test\Ada_Drivers_Library\obj_lib_Debug\libada_drivers_library.a(nrf51-device.o)
                0x0000000020000578                nrf51__device__rtc_1
 .bss.nrf51__device__twi_0
                0x000000002000057c        0xc D:\programming\ada_projects\ravenscar_test\Ada_Drivers_Library\obj_lib_Debug\libada_drivers_library.a(nrf51-device.o)
                0x000000002000057c                nrf51__device__twi_0
 .bss.nrf51__device__twi_1
                0x0000000020000588        0xc D:\programming\ada_projects\ravenscar_test\Ada_Drivers_Library\obj_lib_Debug\libada_drivers_library.a(nrf51-device.o)
                0x0000000020000588                nrf51__device__twi_1
 .bss.nrf51__device__timer_0
                0x0000000020000594        0x8 D:\programming\ada_projects\ravenscar_test\Ada_Drivers_Library\obj_lib_Debug\libada_drivers_library.a(nrf51-device.o)
                0x0000000020000594                nrf51__device__timer_0
 .bss.nrf51__device__timer_1
                0x000000002000059c        0x8 D:\programming\ada_projects\ravenscar_test\Ada_Drivers_Library\obj_lib_Debug\libada_drivers_library.a(nrf51-device.o)
                0x000000002000059c                nrf51__device__timer_1
 .bss.nrf51__device__timer_2
                0x00000000200005a4        0x8 D:\programming\ada_projects\ravenscar_test\Ada_Drivers_Library\obj_lib_Debug\libada_drivers_library.a(nrf51-device.o)
                0x00000000200005a4                nrf51__device__timer_2
 .bss           0x00000000200005ac        0x0 D:\programming\ada_projects\ravenscar_test\Ada_Drivers_Library\obj_lib_Debug\libada_drivers_library.a(nrf51-events.o)
 .bss           0x00000000200005ac        0x0 D:\programming\ada_projects\ravenscar_test\Ada_Drivers_Library\obj_lib_Debug\libada_drivers_library.a(nrf51-gpio-tasks_and_events.o)
 .bss           0x00000000200005ac        0x0 D:\programming\ada_projects\ravenscar_test\Ada_Drivers_Library\obj_lib_Debug\libada_drivers_library.a(nrf51-gpio.o)
 .bss           0x00000000200005ac        0x0 D:\programming\ada_projects\ravenscar_test\Ada_Drivers_Library\obj_lib_Debug\libada_drivers_library.a(nrf51-interrupts.o)
 .bss           0x00000000200005ac        0x0 D:\programming\ada_projects\ravenscar_test\Ada_Drivers_Library\obj_lib_Debug\libada_drivers_library.a(nrf51-ppi.o)
 .bss           0x00000000200005ac        0x0 D:\programming\ada_projects\ravenscar_test\Ada_Drivers_Library\obj_lib_Debug\libada_drivers_library.a(nrf51-rtc.o)
 .bss           0x00000000200005ac        0x0 D:\programming\ada_projects\ravenscar_test\Ada_Drivers_Library\obj_lib_Debug\libada_drivers_library.a(nrf51-tasks.o)
 .bss           0x00000000200005ac        0x0 D:\programming\ada_projects\ravenscar_test\Ada_Drivers_Library\obj_lib_Debug\libada_drivers_library.a(nrf51-timers.o)
 .bss           0x00000000200005ac        0x0 D:\programming\ada_projects\ravenscar_test\Ada_Drivers_Library\obj_lib_Debug\libada_drivers_library.a(nrf51-twi.o)
 .bss           0x00000000200005ac        0x0 D:\programming\ada_projects\ravenscar_test\Ada_Drivers_Library\obj_lib_Debug\libada_drivers_library.a(nrf51_svd-gpio.o)
 .bss           0x00000000200005ac        0x0 D:\programming\ada_projects\ravenscar_test\Ada_Drivers_Library\obj_lib_Debug\libada_drivers_library.a(nrf51_svd-twi.o)
 .bss           0x00000000200005ac        0x0 D:\programming\ada_projects\ravenscar_test\Ada_Drivers_Library\obj_lib_Debug\libada_drivers_library.a(hal-gpio.o)
 .bss           0x00000000200005ac        0x0 D:\programming\ada_projects\ravenscar_test\Ada_Drivers_Library\obj_lib_Debug\libada_drivers_library.a(hal-i2c.o)
 .bss           0x00000000200005ac        0x0 D:\gnat\2018-arm-elf\arm-eabi\lib\gnat\ravenscar-sfp-microbit\adalib\libgnarl.a(a-reatim.o)
 .bss           0x00000000200005ac        0x0 D:\gnat\2018-arm-elf\arm-eabi\lib\gnat\ravenscar-sfp-microbit\adalib\libgnarl.a(s-bbbosu.o)
 .bss.__gnat_alarm_time
                0x00000000200005ac        0x4 D:\gnat\2018-arm-elf\arm-eabi\lib\gnat\ravenscar-sfp-microbit\adalib\libgnarl.a(s-bbbosu.o)
                0x00000000200005ac                __gnat_alarm_time
 .bss.system__bb__board_support__next_tick_time
                0x00000000200005b0        0x4 D:\gnat\2018-arm-elf\arm-eabi\lib\gnat\ravenscar-sfp-microbit\adalib\libgnarl.a(s-bbbosu.o)
                0x00000000200005b0                system__bb__board_support__next_tick_time
 .bss           0x00000000200005b4        0x0 D:\gnat\2018-arm-elf\arm-eabi\lib\gnat\ravenscar-sfp-microbit\adalib\libgnarl.a(s-bbcppr.o)
 .bss.__gnat_bb_exception_handlers
                0x00000000200005b4       0x44 D:\gnat\2018-arm-elf\arm-eabi\lib\gnat\ravenscar-sfp-microbit\adalib\libgnarl.a(s-bbcppr.o)
                0x00000000200005b4                __gnat_bb_exception_handlers
 .bss           0x00000000200005f8        0x0 D:\gnat\2018-arm-elf\arm-eabi\lib\gnat\ravenscar-sfp-microbit\adalib\libgnarl.a(s-bbinte.o)
 .bss.interrupt_stack_table
                0x00000000200005f8        0x4 D:\gnat\2018-arm-elf\arm-eabi\lib\gnat\ravenscar-sfp-microbit\adalib\libgnarl.a(s-bbinte.o)
                0x00000000200005f8                interrupt_stack_table
 .bss.system__bb__interrupts__interrupt_handlers_table
                0x00000000200005fc       0x70 D:\gnat\2018-arm-elf\arm-eabi\lib\gnat\ravenscar-sfp-microbit\adalib\libgnarl.a(s-bbinte.o)
                0x00000000200005fc                system__bb__interrupts__interrupt_handlers_table
 .bss           0x000000002000066c        0x0 D:\gnat\2018-arm-elf\arm-eabi\lib\gnat\ravenscar-sfp-microbit\adalib\libgnarl.a(s-bbthqu.o)
 .bss           0x000000002000066c        0x0 D:\gnat\2018-arm-elf\arm-eabi\lib\gnat\ravenscar-sfp-microbit\adalib\libgnarl.a(s-bbtime.o)
 .bss           0x000000002000066c        0x0 D:\gnat\2018-arm-elf\arm-eabi\lib\gnat\ravenscar-sfp-microbit\adalib\libgnarl.a(s-bcpcst.o)
 .bss           0x000000002000066c        0x0 D:\gnat\2018-arm-elf\arm-eabi\lib\gnat\ravenscar-sfp-microbit\adalib\libgnarl.a(s-taskin.o)
 *fill*         0x000000002000066c        0x4 
 .bss.system__tasking__environment_task
                0x0000000020000670       0xb8 D:\gnat\2018-arm-elf\arm-eabi\lib\gnat\ravenscar-sfp-microbit\adalib\libgnarl.a(s-taskin.o)
 .bss           0x0000000020000728        0x0 D:\gnat\2018-arm-elf\arm-eabi\lib\gnat\ravenscar-sfp-microbit\adalib\libgnarl.a(s-bbprot.o)
 .bss           0x0000000020000728        0x0 D:\gnat\2018-arm-elf\arm-eabi\lib\gnat\ravenscar-sfp-microbit\adalib\libgnarl.a(s-bbthre.o)
 .bss           0x0000000020000728        0x0 D:\gnat\2018-arm-elf\arm-eabi\lib\gnat\ravenscar-sfp-microbit\adalib\libgnarl.a(s-bbtiev.o)
 .bss           0x0000000020000728        0x0 D:\gnat\2018-arm-elf\arm-eabi\lib\gnat\ravenscar-sfp-microbit\adalib\libgnarl.a(s-taprop.o)
 .bss.__gnat_idle_stack_table
                0x0000000020000728        0x4 D:\gnat\2018-arm-elf\arm-eabi\lib\gnat\ravenscar-sfp-microbit\adalib\libgnarl.a(s-taprop.o)
                0x0000000020000728                __gnat_idle_stack_table
 *fill*         0x000000002000072c        0x4 
 .bss.system__task_primitives__operations__idle_stacks
                0x0000000020000730      0x800 D:\gnat\2018-arm-elf\arm-eabi\lib\gnat\ravenscar-sfp-microbit\adalib\libgnarl.a(s-taprop.o)
                0x0000000020000730                system__task_primitives__operations__idle_stacks
 .bss.system__task_primitives__operations__idle_tasks
                0x0000000020000f30       0xb8 D:\gnat\2018-arm-elf\arm-eabi\lib\gnat\ravenscar-sfp-microbit\adalib\libgnarl.a(s-taprop.o)
                0x0000000020000f30                system__task_primitives__operations__idle_tasks
 .bss           0x0000000020000fe8        0x0 D:\gnat\2018-arm-elf\arm-eabi\lib\gnat\ravenscar-sfp-microbit\adalib\libgnarl.a(s-tasdeb.o)
 .bss           0x0000000020000fe8        0x0 D:\gnat\2018-arm-elf\arm-eabi\lib\gnat\ravenscar-sfp-microbit\adalib\libgnat.a(a-elchha.o)
 .bss           0x0000000020000fe8        0x0 D:\gnat\2018-arm-elf\arm-eabi\lib\gnat\ravenscar-sfp-microbit\adalib\libgnat.a(a-except.o)
 .bss           0x0000000020000fe8        0x0 D:\gnat\2018-arm-elf\arm-eabi\lib\gnat\ravenscar-sfp-microbit\adalib\libgnat.a(g-io.o)
 .bss           0x0000000020000fe8        0x0 D:\gnat\2018-arm-elf\arm-eabi\lib\gnat\ravenscar-sfp-microbit\adalib\libgnat.a(s-assert.o)
 .bss           0x0000000020000fe8        0x0 D:\gnat\2018-arm-elf\arm-eabi\lib\gnat\ravenscar-sfp-microbit\adalib\libgnat.a(s-macres.o)
 .bss           0x0000000020000fe8        0x0 D:\gnat\2018-arm-elf\arm-eabi\lib\gnat\ravenscar-sfp-microbit\adalib\libgnat.a(s-memcop.o)
 .bss           0x0000000020000fe8        0x0 D:\gnat\2018-arm-elf\arm-eabi\lib\gnat\ravenscar-sfp-microbit\adalib\libgnat.a(s-memset.o)
 .bss           0x0000000020000fe8        0x0 D:\gnat\2018-arm-elf\arm-eabi\lib\gnat\ravenscar-sfp-microbit\adalib\libgnat.a(s-parame.o)
 .bss           0x0000000020000fe8        0x0 D:\gnat\2018-arm-elf\arm-eabi\lib\gnat\ravenscar-sfp-microbit\adalib\libgnat.a(s-secsta.o)
 .bss.__gnat_binder_ss_count
                0x0000000020000fe8        0x4 D:\gnat\2018-arm-elf\arm-eabi\lib\gnat\ravenscar-sfp-microbit\adalib\libgnat.a(s-secsta.o)
                0x0000000020000fe8                __gnat_binder_ss_count
 .bss.__gnat_default_ss_pool
                0x0000000020000fec        0x4 D:\gnat\2018-arm-elf\arm-eabi\lib\gnat\ravenscar-sfp-microbit\adalib\libgnat.a(s-secsta.o)
                0x0000000020000fec                __gnat_default_ss_pool
 .bss.__gnat_default_ss_size
                0x0000000020000ff0        0x4 D:\gnat\2018-arm-elf\arm-eabi\lib\gnat\ravenscar-sfp-microbit\adalib\libgnat.a(s-secsta.o)
                0x0000000020000ff0                __gnat_default_ss_size
 .bss.system__secondary_stack__ss_pool
                0x0000000020000ff4        0x4 D:\gnat\2018-arm-elf\arm-eabi\lib\gnat\ravenscar-sfp-microbit\adalib\libgnat.a(s-secsta.o)
                0x0000000020000ff4                system__secondary_stack__ss_pool
 .bss           0x0000000020000ff8        0x0 D:\gnat\2018-arm-elf\arm-eabi\lib\gnat\ravenscar-sfp-microbit\adalib\libgnat.a(s-textio.o)
 .bss           0x0000000020000ff8        0x0 D:\gnat\2018-arm-elf\arm-eabi\lib\gnat\ravenscar-sfp-microbit\adalib\libgnat.a(start-rom.o)
 .bss           0x0000000020000ff8        0x0 D:\gnat\2018-arm-elf\arm-eabi\lib\gnat\ravenscar-sfp-microbit\adalib\libgnat.a(handler.o)
 .bss           0x0000000020000ff8        0x0 D:\gnat\2018-arm-elf\arm-eabi\lib\gnat\ravenscar-sfp-microbit\adalib\libgnat.a(breakpoint_handler-cortexm.o)
 .bss           0x0000000020000ff8        0x0 d:/gnat/2018-arm-elf/bin/../lib/gcc/arm-eabi/7.3.1/thumb/v6-m\libgcc.a(_divsi3.o)
 .bss           0x0000000020000ff8        0x0 d:/gnat/2018-arm-elf/bin/../lib/gcc/arm-eabi/7.3.1/thumb/v6-m\libgcc.a(_dvmd_tls.o)
 .bss           0x0000000020000ff8        0x0 d:/gnat/2018-arm-elf/bin/../lib/gcc/arm-eabi/7.3.1/thumb/v6-m\libgcc.a(_arm_cmpsf2.o)
 .bss           0x0000000020000ff8        0x0 d:/gnat/2018-arm-elf/bin/../lib/gcc/arm-eabi/7.3.1/thumb/v6-m\libgcc.a(_aeabi_ldivmod.o)
 .bss           0x0000000020000ff8        0x0 d:/gnat/2018-arm-elf/bin/../lib/gcc/arm-eabi/7.3.1/thumb/v6-m\libgcc.a(_aeabi_uldivmod.o)
 .bss           0x0000000020000ff8        0x0 d:/gnat/2018-arm-elf/bin/../lib/gcc/arm-eabi/7.3.1/thumb/v6-m\libgcc.a(_muldi3.o)
 .bss           0x0000000020000ff8        0x0 d:/gnat/2018-arm-elf/bin/../lib/gcc/arm-eabi/7.3.1/thumb/v6-m\libgcc.a(_fixunssfsi.o)
 .bss           0x0000000020000ff8        0x0 d:/gnat/2018-arm-elf/bin/../lib/gcc/arm-eabi/7.3.1/thumb/v6-m\libgcc.a(_udivmoddi4.o)
 .bss           0x0000000020000ff8        0x0 d:/gnat/2018-arm-elf/bin/../lib/gcc/arm-eabi/7.3.1/thumb/v6-m\libgcc.a(bpabi.o)
 .bss           0x0000000020000ff8        0x0 d:/gnat/2018-arm-elf/bin/../lib/gcc/arm-eabi/7.3.1/thumb/v6-m\libgcc.a(addsf3.o)
 .bss           0x0000000020000ff8        0x0 d:/gnat/2018-arm-elf/bin/../lib/gcc/arm-eabi/7.3.1/thumb/v6-m\libgcc.a(divsf3.o)
 .bss           0x0000000020000ff8        0x0 d:/gnat/2018-arm-elf/bin/../lib/gcc/arm-eabi/7.3.1/thumb/v6-m\libgcc.a(eqsf2.o)
 .bss           0x0000000020000ff8        0x0 d:/gnat/2018-arm-elf/bin/../lib/gcc/arm-eabi/7.3.1/thumb/v6-m\libgcc.a(gesf2.o)
 .bss           0x0000000020000ff8        0x0 d:/gnat/2018-arm-elf/bin/../lib/gcc/arm-eabi/7.3.1/thumb/v6-m\libgcc.a(lesf2.o)
 .bss           0x0000000020000ff8        0x0 d:/gnat/2018-arm-elf/bin/../lib/gcc/arm-eabi/7.3.1/thumb/v6-m\libgcc.a(mulsf3.o)
 .bss           0x0000000020000ff8        0x0 d:/gnat/2018-arm-elf/bin/../lib/gcc/arm-eabi/7.3.1/thumb/v6-m\libgcc.a(subsf3.o)
 .bss           0x0000000020000ff8        0x0 d:/gnat/2018-arm-elf/bin/../lib/gcc/arm-eabi/7.3.1/thumb/v6-m\libgcc.a(unordsf2.o)
 .bss           0x0000000020000ff8        0x0 d:/gnat/2018-arm-elf/bin/../lib/gcc/arm-eabi/7.3.1/thumb/v6-m\libgcc.a(fixsfsi.o)
 .bss           0x0000000020000ff8        0x0 d:/gnat/2018-arm-elf/bin/../lib/gcc/arm-eabi/7.3.1/thumb/v6-m\libgcc.a(floatsisf.o)
 .bss           0x0000000020000ff8        0x0 d:/gnat/2018-arm-elf/bin/../lib/gcc/arm-eabi/7.3.1/thumb/v6-m\libgcc.a(floatunsisf.o)
 .bss           0x0000000020000ff8        0x0 d:/gnat/2018-arm-elf/bin/../lib/gcc/arm-eabi/7.3.1/thumb/v6-m\libgcc.a(_clzsi2.o)
 .bss           0x0000000020000ff8        0x0 d:/gnat/2018-arm-elf/bin/../lib/gcc/arm-eabi/7.3.1/thumb/v6-m\libgcc.a(_clzdi2.o)
 .bss           0x0000000020000ff8        0x0 d:/gnat/2018-arm-elf/bin/../lib/gcc/arm-eabi/7.3.1/thumb/v6-m\libgcc.a(_divdi3.o)
 *(COMMON)
                0x0000000020000ff8                . = ALIGN (0x8)
                0x0000000020000ff8                __bss_end = .
                0x0000000020000ff8                __interrupt_stack_start = .
 *(.interrupt_stacks)
 .interrupt_stacks
                0x0000000020000ff8      0x400 D:\gnat\2018-arm-elf\arm-eabi\lib\gnat\ravenscar-sfp-microbit\adalib\libgnarl.a(s-bbinte.o)
                0x0000000020000ff8                system__bb__interrupts__interrupt_stacks
                0x00000000200013f8                . = ALIGN (0x8)
                0x00000000200013f8                __interrupt_stack_end = .
                0x00000000200013f8                __stack_start = .
                0x00000000200017f8                . = (. + DEFINED (__stack_size)?__stack_size:_DEFAULT_STACK_SIZE)
 *fill*         0x00000000200013f8      0x400 
                0x00000000200017f8                . = ALIGN (0x8)
                0x00000000200017f8                __stack_end = .
                0x00000000200017f8                _end = .
                0x00000000200017f8                __heap_start = .
                0x0000000020004000                __heap_end = (ORIGIN (sram_bs) + LENGTH (sram_bs))
                0x0000000000000398                __bss_words = ((__bss_end - __bss_start) >> 0x2)

.debug
 *(.debug)

.line
 *(.line)

.debug_srcinfo
 *(.debug_srcinfo)

.debug_sfnames
 *(.debug_sfnames)

.debug_aranges  0x0000000000000000      0x878
 *(.debug_aranges)
 .debug_aranges
                0x0000000000000000       0x20 main.o
 .debug_aranges
                0x0000000000000020       0x20 b__main.o
 .debug_aranges
                0x0000000000000040       0x50 D:\programming\ada_projects\ravenscar_test\Ada_Drivers_Library\obj_lib_Debug\libada_drivers_library.a(cortex_m-nvic.o)
 .debug_aranges
                0x0000000000000090       0x98 D:\programming\ada_projects\ravenscar_test\Ada_Drivers_Library\obj_lib_Debug\libada_drivers_library.a(microbit-ios.o)
 .debug_aranges
                0x0000000000000128       0x48 D:\programming\ada_projects\ravenscar_test\Ada_Drivers_Library\obj_lib_Debug\libada_drivers_library.a(nrf51-adc.o)
 .debug_aranges
                0x0000000000000170       0x20 D:\programming\ada_projects\ravenscar_test\Ada_Drivers_Library\obj_lib_Debug\libada_drivers_library.a(nrf51-device.o)
 .debug_aranges
                0x0000000000000190       0x48 D:\programming\ada_projects\ravenscar_test\Ada_Drivers_Library\obj_lib_Debug\libada_drivers_library.a(nrf51-events.o)
 .debug_aranges
                0x00000000000001d8       0x40 D:\programming\ada_projects\ravenscar_test\Ada_Drivers_Library\obj_lib_Debug\libada_drivers_library.a(nrf51-gpio-tasks_and_events.o)
 .debug_aranges
                0x0000000000000218       0x70 D:\programming\ada_projects\ravenscar_test\Ada_Drivers_Library\obj_lib_Debug\libada_drivers_library.a(nrf51-gpio.o)
 .debug_aranges
                0x0000000000000288       0x48 D:\programming\ada_projects\ravenscar_test\Ada_Drivers_Library\obj_lib_Debug\libada_drivers_library.a(nrf51-interrupts.o)
 .debug_aranges
                0x00000000000002d0       0x50 D:\programming\ada_projects\ravenscar_test\Ada_Drivers_Library\obj_lib_Debug\libada_drivers_library.a(nrf51-ppi.o)
 .debug_aranges
                0x0000000000000320       0x60 D:\programming\ada_projects\ravenscar_test\Ada_Drivers_Library\obj_lib_Debug\libada_drivers_library.a(nrf51-rtc.o)
 .debug_aranges
                0x0000000000000380       0x30 D:\programming\ada_projects\ravenscar_test\Ada_Drivers_Library\obj_lib_Debug\libada_drivers_library.a(nrf51-tasks.o)
 .debug_aranges
                0x00000000000003b0       0xc0 D:\programming\ada_projects\ravenscar_test\Ada_Drivers_Library\obj_lib_Debug\libada_drivers_library.a(nrf51-timers.o)
 .debug_aranges
                0x0000000000000470       0x70 D:\programming\ada_projects\ravenscar_test\Ada_Drivers_Library\obj_lib_Debug\libada_drivers_library.a(nrf51-twi.o)
 .debug_aranges
                0x00000000000004e0       0x18 D:\programming\ada_projects\ravenscar_test\Ada_Drivers_Library\obj_lib_Debug\libada_drivers_library.a(nrf51_svd-gpio.o)
 .debug_aranges
                0x00000000000004f8       0x18 D:\programming\ada_projects\ravenscar_test\Ada_Drivers_Library\obj_lib_Debug\libada_drivers_library.a(nrf51_svd-twi.o)
 .debug_aranges
                0x0000000000000510       0x18 D:\programming\ada_projects\ravenscar_test\Ada_Drivers_Library\obj_lib_Debug\libada_drivers_library.a(hal-gpio.o)
 .debug_aranges
                0x0000000000000528       0x18 D:\programming\ada_projects\ravenscar_test\Ada_Drivers_Library\obj_lib_Debug\libada_drivers_library.a(hal-i2c.o)
 .debug_aranges
                0x0000000000000540       0x20 D:\gnat\2018-arm-elf\arm-eabi\lib\gnat\ravenscar-sfp-microbit\adalib\libgnarl.a(s-tasdeb.o)
 .debug_aranges
                0x0000000000000560       0x18 D:\gnat\2018-arm-elf\arm-eabi\lib\gnat\ravenscar-sfp-microbit\adalib\libgnat.a(a-except.o)
 .debug_aranges
                0x0000000000000578       0x20 D:\gnat\2018-arm-elf\arm-eabi\lib\gnat\ravenscar-sfp-microbit\adalib\libgnat.a(s-assert.o)
 .debug_aranges
                0x0000000000000598       0x20 d:/gnat/2018-arm-elf/bin/../lib/gcc/arm-eabi/7.3.1/thumb/v6-m\libgcc.a(_divsi3.o)
 .debug_aranges
                0x00000000000005b8       0x20 d:/gnat/2018-arm-elf/bin/../lib/gcc/arm-eabi/7.3.1/thumb/v6-m\libgcc.a(_dvmd_tls.o)
 .debug_aranges
                0x00000000000005d8       0x20 d:/gnat/2018-arm-elf/bin/../lib/gcc/arm-eabi/7.3.1/thumb/v6-m\libgcc.a(_arm_cmpsf2.o)
 .debug_aranges
                0x00000000000005f8       0x20 d:/gnat/2018-arm-elf/bin/../lib/gcc/arm-eabi/7.3.1/thumb/v6-m\libgcc.a(_aeabi_ldivmod.o)
 .debug_aranges
                0x0000000000000618       0x20 d:/gnat/2018-arm-elf/bin/../lib/gcc/arm-eabi/7.3.1/thumb/v6-m\libgcc.a(_aeabi_uldivmod.o)
 .debug_aranges
                0x0000000000000638       0x20 d:/gnat/2018-arm-elf/bin/../lib/gcc/arm-eabi/7.3.1/thumb/v6-m\libgcc.a(_muldi3.o)
 .debug_aranges
                0x0000000000000658       0x20 d:/gnat/2018-arm-elf/bin/../lib/gcc/arm-eabi/7.3.1/thumb/v6-m\libgcc.a(_fixunssfsi.o)
 .debug_aranges
                0x0000000000000678       0x20 d:/gnat/2018-arm-elf/bin/../lib/gcc/arm-eabi/7.3.1/thumb/v6-m\libgcc.a(_udivmoddi4.o)
 .debug_aranges
                0x0000000000000698       0x20 d:/gnat/2018-arm-elf/bin/../lib/gcc/arm-eabi/7.3.1/thumb/v6-m\libgcc.a(bpabi.o)
 .debug_aranges
                0x00000000000006b8       0x20 d:/gnat/2018-arm-elf/bin/../lib/gcc/arm-eabi/7.3.1/thumb/v6-m\libgcc.a(addsf3.o)
 .debug_aranges
                0x00000000000006d8       0x20 d:/gnat/2018-arm-elf/bin/../lib/gcc/arm-eabi/7.3.1/thumb/v6-m\libgcc.a(divsf3.o)
 .debug_aranges
                0x00000000000006f8       0x20 d:/gnat/2018-arm-elf/bin/../lib/gcc/arm-eabi/7.3.1/thumb/v6-m\libgcc.a(eqsf2.o)
 .debug_aranges
                0x0000000000000718       0x20 d:/gnat/2018-arm-elf/bin/../lib/gcc/arm-eabi/7.3.1/thumb/v6-m\libgcc.a(gesf2.o)
 .debug_aranges
                0x0000000000000738       0x20 d:/gnat/2018-arm-elf/bin/../lib/gcc/arm-eabi/7.3.1/thumb/v6-m\libgcc.a(lesf2.o)
 .debug_aranges
                0x0000000000000758       0x20 d:/gnat/2018-arm-elf/bin/../lib/gcc/arm-eabi/7.3.1/thumb/v6-m\libgcc.a(mulsf3.o)
 .debug_aranges
                0x0000000000000778       0x20 d:/gnat/2018-arm-elf/bin/../lib/gcc/arm-eabi/7.3.1/thumb/v6-m\libgcc.a(subsf3.o)
 .debug_aranges
                0x0000000000000798       0x20 d:/gnat/2018-arm-elf/bin/../lib/gcc/arm-eabi/7.3.1/thumb/v6-m\libgcc.a(unordsf2.o)
 .debug_aranges
                0x00000000000007b8       0x20 d:/gnat/2018-arm-elf/bin/../lib/gcc/arm-eabi/7.3.1/thumb/v6-m\libgcc.a(fixsfsi.o)
 .debug_aranges
                0x00000000000007d8       0x20 d:/gnat/2018-arm-elf/bin/../lib/gcc/arm-eabi/7.3.1/thumb/v6-m\libgcc.a(floatsisf.o)
 .debug_aranges
                0x00000000000007f8       0x20 d:/gnat/2018-arm-elf/bin/../lib/gcc/arm-eabi/7.3.1/thumb/v6-m\libgcc.a(floatunsisf.o)
 .debug_aranges
                0x0000000000000818       0x20 d:/gnat/2018-arm-elf/bin/../lib/gcc/arm-eabi/7.3.1/thumb/v6-m\libgcc.a(_clzsi2.o)
 .debug_aranges
                0x0000000000000838       0x20 d:/gnat/2018-arm-elf/bin/../lib/gcc/arm-eabi/7.3.1/thumb/v6-m\libgcc.a(_clzdi2.o)
 .debug_aranges
                0x0000000000000858       0x20 d:/gnat/2018-arm-elf/bin/../lib/gcc/arm-eabi/7.3.1/thumb/v6-m\libgcc.a(_divdi3.o)

.debug_pubnames
 *(.debug_pubnames)

.debug_info     0x0000000000000000     0xe2e3
 *(.debug_info .gnu.linkonce.wi.*)
 .debug_info    0x0000000000000000       0x3b main.o
 .debug_info    0x000000000000003b      0x4ab b__main.o
 .debug_info    0x00000000000004e6      0x2e7 D:\programming\ada_projects\ravenscar_test\Ada_Drivers_Library\obj_lib_Debug\libada_drivers_library.a(cortex_m-nvic.o)
 .debug_info    0x00000000000007cd     0x1103 D:\programming\ada_projects\ravenscar_test\Ada_Drivers_Library\obj_lib_Debug\libada_drivers_library.a(microbit-ios.o)
 .debug_info    0x00000000000018d0      0x233 D:\programming\ada_projects\ravenscar_test\Ada_Drivers_Library\obj_lib_Debug\libada_drivers_library.a(nrf51-adc.o)
 .debug_info    0x0000000000001b03     0x1dd1 D:\programming\ada_projects\ravenscar_test\Ada_Drivers_Library\obj_lib_Debug\libada_drivers_library.a(nrf51-device.o)
 .debug_info    0x00000000000038d4      0x807 D:\programming\ada_projects\ravenscar_test\Ada_Drivers_Library\obj_lib_Debug\libada_drivers_library.a(nrf51-events.o)
 .debug_info    0x00000000000040db      0x370 D:\programming\ada_projects\ravenscar_test\Ada_Drivers_Library\obj_lib_Debug\libada_drivers_library.a(nrf51-gpio-tasks_and_events.o)
 .debug_info    0x000000000000444b      0x672 D:\programming\ada_projects\ravenscar_test\Ada_Drivers_Library\obj_lib_Debug\libada_drivers_library.a(nrf51-gpio.o)
 .debug_info    0x0000000000004abd      0x2a6 D:\programming\ada_projects\ravenscar_test\Ada_Drivers_Library\obj_lib_Debug\libada_drivers_library.a(nrf51-interrupts.o)
 .debug_info    0x0000000000004d63      0x2bc D:\programming\ada_projects\ravenscar_test\Ada_Drivers_Library\obj_lib_Debug\libada_drivers_library.a(nrf51-ppi.o)
 .debug_info    0x000000000000501f      0xced D:\programming\ada_projects\ravenscar_test\Ada_Drivers_Library\obj_lib_Debug\libada_drivers_library.a(nrf51-rtc.o)
 .debug_info    0x0000000000005d0c      0x834 D:\programming\ada_projects\ravenscar_test\Ada_Drivers_Library\obj_lib_Debug\libada_drivers_library.a(nrf51-tasks.o)
 .debug_info    0x0000000000006540      0xc90 D:\programming\ada_projects\ravenscar_test\Ada_Drivers_Library\obj_lib_Debug\libada_drivers_library.a(nrf51-timers.o)
 .debug_info    0x00000000000071d0      0xf6f D:\programming\ada_projects\ravenscar_test\Ada_Drivers_Library\obj_lib_Debug\libada_drivers_library.a(nrf51-twi.o)
 .debug_info    0x000000000000813f      0x6cd D:\programming\ada_projects\ravenscar_test\Ada_Drivers_Library\obj_lib_Debug\libada_drivers_library.a(nrf51_svd-gpio.o)
 .debug_info    0x000000000000880c      0x890 D:\programming\ada_projects\ravenscar_test\Ada_Drivers_Library\obj_lib_Debug\libada_drivers_library.a(nrf51_svd-twi.o)
 .debug_info    0x000000000000909c       0x41 D:\programming\ada_projects\ravenscar_test\Ada_Drivers_Library\obj_lib_Debug\libada_drivers_library.a(hal-gpio.o)
 .debug_info    0x00000000000090dd       0x64 D:\programming\ada_projects\ravenscar_test\Ada_Drivers_Library\obj_lib_Debug\libada_drivers_library.a(hal-i2c.o)
 .debug_info    0x0000000000009141      0x65b D:\gnat\2018-arm-elf\arm-eabi\lib\gnat\ravenscar-sfp-microbit\adalib\libgnarl.a(s-tasdeb.o)
 .debug_info    0x000000000000979c      0x149 D:\gnat\2018-arm-elf\arm-eabi\lib\gnat\ravenscar-sfp-microbit\adalib\libgnat.a(a-except.o)
 .debug_info    0x00000000000098e5      0x1cf D:\gnat\2018-arm-elf\arm-eabi\lib\gnat\ravenscar-sfp-microbit\adalib\libgnat.a(s-assert.o)
 .debug_info    0x0000000000009ab4       0x26 d:/gnat/2018-arm-elf/bin/../lib/gcc/arm-eabi/7.3.1/thumb/v6-m\libgcc.a(_divsi3.o)
 .debug_info    0x0000000000009ada       0x26 d:/gnat/2018-arm-elf/bin/../lib/gcc/arm-eabi/7.3.1/thumb/v6-m\libgcc.a(_dvmd_tls.o)
 .debug_info    0x0000000000009b00       0x26 d:/gnat/2018-arm-elf/bin/../lib/gcc/arm-eabi/7.3.1/thumb/v6-m\libgcc.a(_arm_cmpsf2.o)
 .debug_info    0x0000000000009b26       0x26 d:/gnat/2018-arm-elf/bin/../lib/gcc/arm-eabi/7.3.1/thumb/v6-m\libgcc.a(_aeabi_ldivmod.o)
 .debug_info    0x0000000000009b4c       0x26 d:/gnat/2018-arm-elf/bin/../lib/gcc/arm-eabi/7.3.1/thumb/v6-m\libgcc.a(_aeabi_uldivmod.o)
 .debug_info    0x0000000000009b72      0xac2 d:/gnat/2018-arm-elf/bin/../lib/gcc/arm-eabi/7.3.1/thumb/v6-m\libgcc.a(_muldi3.o)
 .debug_info    0x000000000000a634      0x9e4 d:/gnat/2018-arm-elf/bin/../lib/gcc/arm-eabi/7.3.1/thumb/v6-m\libgcc.a(_fixunssfsi.o)
 .debug_info    0x000000000000b018      0xa3d d:/gnat/2018-arm-elf/bin/../lib/gcc/arm-eabi/7.3.1/thumb/v6-m\libgcc.a(_udivmoddi4.o)
 .debug_info    0x000000000000ba55       0xd2 d:/gnat/2018-arm-elf/bin/../lib/gcc/arm-eabi/7.3.1/thumb/v6-m\libgcc.a(bpabi.o)
 .debug_info    0x000000000000bb27      0x32c d:/gnat/2018-arm-elf/bin/../lib/gcc/arm-eabi/7.3.1/thumb/v6-m\libgcc.a(addsf3.o)
 .debug_info    0x000000000000be53      0x32d d:/gnat/2018-arm-elf/bin/../lib/gcc/arm-eabi/7.3.1/thumb/v6-m\libgcc.a(divsf3.o)
 .debug_info    0x000000000000c180      0x228 d:/gnat/2018-arm-elf/bin/../lib/gcc/arm-eabi/7.3.1/thumb/v6-m\libgcc.a(eqsf2.o)
 .debug_info    0x000000000000c3a8      0x234 d:/gnat/2018-arm-elf/bin/../lib/gcc/arm-eabi/7.3.1/thumb/v6-m\libgcc.a(gesf2.o)
 .debug_info    0x000000000000c5dc      0x237 d:/gnat/2018-arm-elf/bin/../lib/gcc/arm-eabi/7.3.1/thumb/v6-m\libgcc.a(lesf2.o)
 .debug_info    0x000000000000c813      0x393 d:/gnat/2018-arm-elf/bin/../lib/gcc/arm-eabi/7.3.1/thumb/v6-m\libgcc.a(mulsf3.o)
 .debug_info    0x000000000000cba6      0x32c d:/gnat/2018-arm-elf/bin/../lib/gcc/arm-eabi/7.3.1/thumb/v6-m\libgcc.a(subsf3.o)
 .debug_info    0x000000000000ced2      0x21d d:/gnat/2018-arm-elf/bin/../lib/gcc/arm-eabi/7.3.1/thumb/v6-m\libgcc.a(unordsf2.o)
 .debug_info    0x000000000000d0ef      0x1d0 d:/gnat/2018-arm-elf/bin/../lib/gcc/arm-eabi/7.3.1/thumb/v6-m\libgcc.a(fixsfsi.o)
 .debug_info    0x000000000000d2bf      0x24a d:/gnat/2018-arm-elf/bin/../lib/gcc/arm-eabi/7.3.1/thumb/v6-m\libgcc.a(floatsisf.o)
 .debug_info    0x000000000000d509      0x23e d:/gnat/2018-arm-elf/bin/../lib/gcc/arm-eabi/7.3.1/thumb/v6-m\libgcc.a(floatunsisf.o)
 .debug_info    0x000000000000d747       0x26 d:/gnat/2018-arm-elf/bin/../lib/gcc/arm-eabi/7.3.1/thumb/v6-m\libgcc.a(_clzsi2.o)
 .debug_info    0x000000000000d76d       0x26 d:/gnat/2018-arm-elf/bin/../lib/gcc/arm-eabi/7.3.1/thumb/v6-m\libgcc.a(_clzdi2.o)
 .debug_info    0x000000000000d793      0xb50 d:/gnat/2018-arm-elf/bin/../lib/gcc/arm-eabi/7.3.1/thumb/v6-m\libgcc.a(_divdi3.o)

.debug_abbrev   0x0000000000000000     0x3b52
 *(.debug_abbrev)
 .debug_abbrev  0x0000000000000000       0x2c main.o
 .debug_abbrev  0x000000000000002c      0x202 b__main.o
 .debug_abbrev  0x000000000000022e      0x1af D:\programming\ada_projects\ravenscar_test\Ada_Drivers_Library\obj_lib_Debug\libada_drivers_library.a(cortex_m-nvic.o)
 .debug_abbrev  0x00000000000003dd      0x3f4 D:\programming\ada_projects\ravenscar_test\Ada_Drivers_Library\obj_lib_Debug\libada_drivers_library.a(microbit-ios.o)
 .debug_abbrev  0x00000000000007d1      0x102 D:\programming\ada_projects\ravenscar_test\Ada_Drivers_Library\obj_lib_Debug\libada_drivers_library.a(nrf51-adc.o)
 .debug_abbrev  0x00000000000008d3      0x2dd D:\programming\ada_projects\ravenscar_test\Ada_Drivers_Library\obj_lib_Debug\libada_drivers_library.a(nrf51-device.o)
 .debug_abbrev  0x0000000000000bb0       0xf6 D:\programming\ada_projects\ravenscar_test\Ada_Drivers_Library\obj_lib_Debug\libada_drivers_library.a(nrf51-events.o)
 .debug_abbrev  0x0000000000000ca6      0x12a D:\programming\ada_projects\ravenscar_test\Ada_Drivers_Library\obj_lib_Debug\libada_drivers_library.a(nrf51-gpio-tasks_and_events.o)
 .debug_abbrev  0x0000000000000dd0      0x1f4 D:\programming\ada_projects\ravenscar_test\Ada_Drivers_Library\obj_lib_Debug\libada_drivers_library.a(nrf51-gpio.o)
 .debug_abbrev  0x0000000000000fc4      0x159 D:\programming\ada_projects\ravenscar_test\Ada_Drivers_Library\obj_lib_Debug\libada_drivers_library.a(nrf51-interrupts.o)
 .debug_abbrev  0x000000000000111d      0x147 D:\programming\ada_projects\ravenscar_test\Ada_Drivers_Library\obj_lib_Debug\libada_drivers_library.a(nrf51-ppi.o)
 .debug_abbrev  0x0000000000001264      0x2eb D:\programming\ada_projects\ravenscar_test\Ada_Drivers_Library\obj_lib_Debug\libada_drivers_library.a(nrf51-rtc.o)
 .debug_abbrev  0x000000000000154f       0xc2 D:\programming\ada_projects\ravenscar_test\Ada_Drivers_Library\obj_lib_Debug\libada_drivers_library.a(nrf51-tasks.o)
 .debug_abbrev  0x0000000000001611      0x34a D:\programming\ada_projects\ravenscar_test\Ada_Drivers_Library\obj_lib_Debug\libada_drivers_library.a(nrf51-timers.o)
 .debug_abbrev  0x000000000000195b      0x329 D:\programming\ada_projects\ravenscar_test\Ada_Drivers_Library\obj_lib_Debug\libada_drivers_library.a(nrf51-twi.o)
 .debug_abbrev  0x0000000000001c84      0x1c1 D:\programming\ada_projects\ravenscar_test\Ada_Drivers_Library\obj_lib_Debug\libada_drivers_library.a(nrf51_svd-gpio.o)
 .debug_abbrev  0x0000000000001e45      0x190 D:\programming\ada_projects\ravenscar_test\Ada_Drivers_Library\obj_lib_Debug\libada_drivers_library.a(nrf51_svd-twi.o)
 .debug_abbrev  0x0000000000001fd5       0x28 D:\programming\ada_projects\ravenscar_test\Ada_Drivers_Library\obj_lib_Debug\libada_drivers_library.a(hal-gpio.o)
 .debug_abbrev  0x0000000000001ffd       0x28 D:\programming\ada_projects\ravenscar_test\Ada_Drivers_Library\obj_lib_Debug\libada_drivers_library.a(hal-i2c.o)
 .debug_abbrev  0x0000000000002025      0x232 D:\gnat\2018-arm-elf\arm-eabi\lib\gnat\ravenscar-sfp-microbit\adalib\libgnarl.a(s-tasdeb.o)
 .debug_abbrev  0x0000000000002257       0xc6 D:\gnat\2018-arm-elf\arm-eabi\lib\gnat\ravenscar-sfp-microbit\adalib\libgnat.a(a-except.o)
 .debug_abbrev  0x000000000000231d      0x100 D:\gnat\2018-arm-elf\arm-eabi\lib\gnat\ravenscar-sfp-microbit\adalib\libgnat.a(s-assert.o)
 .debug_abbrev  0x000000000000241d       0x14 d:/gnat/2018-arm-elf/bin/../lib/gcc/arm-eabi/7.3.1/thumb/v6-m\libgcc.a(_divsi3.o)
 .debug_abbrev  0x0000000000002431       0x14 d:/gnat/2018-arm-elf/bin/../lib/gcc/arm-eabi/7.3.1/thumb/v6-m\libgcc.a(_dvmd_tls.o)
 .debug_abbrev  0x0000000000002445       0x14 d:/gnat/2018-arm-elf/bin/../lib/gcc/arm-eabi/7.3.1/thumb/v6-m\libgcc.a(_arm_cmpsf2.o)
 .debug_abbrev  0x0000000000002459       0x14 d:/gnat/2018-arm-elf/bin/../lib/gcc/arm-eabi/7.3.1/thumb/v6-m\libgcc.a(_aeabi_ldivmod.o)
 .debug_abbrev  0x000000000000246d       0x14 d:/gnat/2018-arm-elf/bin/../lib/gcc/arm-eabi/7.3.1/thumb/v6-m\libgcc.a(_aeabi_uldivmod.o)
 .debug_abbrev  0x0000000000002481      0x18e d:/gnat/2018-arm-elf/bin/../lib/gcc/arm-eabi/7.3.1/thumb/v6-m\libgcc.a(_muldi3.o)
 .debug_abbrev  0x000000000000260f      0x140 d:/gnat/2018-arm-elf/bin/../lib/gcc/arm-eabi/7.3.1/thumb/v6-m\libgcc.a(_fixunssfsi.o)
 .debug_abbrev  0x000000000000274f      0x15e d:/gnat/2018-arm-elf/bin/../lib/gcc/arm-eabi/7.3.1/thumb/v6-m\libgcc.a(_udivmoddi4.o)
 .debug_abbrev  0x00000000000028ad       0xb3 d:/gnat/2018-arm-elf/bin/../lib/gcc/arm-eabi/7.3.1/thumb/v6-m\libgcc.a(bpabi.o)
 .debug_abbrev  0x0000000000002960      0x18e d:/gnat/2018-arm-elf/bin/../lib/gcc/arm-eabi/7.3.1/thumb/v6-m\libgcc.a(addsf3.o)
 .debug_abbrev  0x0000000000002aee      0x16d d:/gnat/2018-arm-elf/bin/../lib/gcc/arm-eabi/7.3.1/thumb/v6-m\libgcc.a(divsf3.o)
 .debug_abbrev  0x0000000000002c5b      0x155 d:/gnat/2018-arm-elf/bin/../lib/gcc/arm-eabi/7.3.1/thumb/v6-m\libgcc.a(eqsf2.o)
 .debug_abbrev  0x0000000000002db0      0x175 d:/gnat/2018-arm-elf/bin/../lib/gcc/arm-eabi/7.3.1/thumb/v6-m\libgcc.a(gesf2.o)
 .debug_abbrev  0x0000000000002f25      0x166 d:/gnat/2018-arm-elf/bin/../lib/gcc/arm-eabi/7.3.1/thumb/v6-m\libgcc.a(lesf2.o)
 .debug_abbrev  0x000000000000308b      0x174 d:/gnat/2018-arm-elf/bin/../lib/gcc/arm-eabi/7.3.1/thumb/v6-m\libgcc.a(mulsf3.o)
 .debug_abbrev  0x00000000000031ff      0x18e d:/gnat/2018-arm-elf/bin/../lib/gcc/arm-eabi/7.3.1/thumb/v6-m\libgcc.a(subsf3.o)
 .debug_abbrev  0x000000000000338d      0x155 d:/gnat/2018-arm-elf/bin/../lib/gcc/arm-eabi/7.3.1/thumb/v6-m\libgcc.a(unordsf2.o)
 .debug_abbrev  0x00000000000034e2      0x159 d:/gnat/2018-arm-elf/bin/../lib/gcc/arm-eabi/7.3.1/thumb/v6-m\libgcc.a(fixsfsi.o)
 .debug_abbrev  0x000000000000363b      0x187 d:/gnat/2018-arm-elf/bin/../lib/gcc/arm-eabi/7.3.1/thumb/v6-m\libgcc.a(floatsisf.o)
 .debug_abbrev  0x00000000000037c2      0x187 d:/gnat/2018-arm-elf/bin/../lib/gcc/arm-eabi/7.3.1/thumb/v6-m\libgcc.a(floatunsisf.o)
 .debug_abbrev  0x0000000000003949       0x14 d:/gnat/2018-arm-elf/bin/../lib/gcc/arm-eabi/7.3.1/thumb/v6-m\libgcc.a(_clzsi2.o)
 .debug_abbrev  0x000000000000395d       0x14 d:/gnat/2018-arm-elf/bin/../lib/gcc/arm-eabi/7.3.1/thumb/v6-m\libgcc.a(_clzdi2.o)
 .debug_abbrev  0x0000000000003971      0x1e1 d:/gnat/2018-arm-elf/bin/../lib/gcc/arm-eabi/7.3.1/thumb/v6-m\libgcc.a(_divdi3.o)

.debug_line     0x0000000000000000     0x4313
 *(.debug_line)
 .debug_line    0x0000000000000000       0x67 main.o
 .debug_line    0x0000000000000067       0xeb b__main.o
 .debug_line    0x0000000000000152      0x18e D:\programming\ada_projects\ravenscar_test\Ada_Drivers_Library\obj_lib_Debug\libada_drivers_library.a(cortex_m-nvic.o)
 .debug_line    0x00000000000002e0      0x6a8 D:\programming\ada_projects\ravenscar_test\Ada_Drivers_Library\obj_lib_Debug\libada_drivers_library.a(microbit-ios.o)
 .debug_line    0x0000000000000988      0x198 D:\programming\ada_projects\ravenscar_test\Ada_Drivers_Library\obj_lib_Debug\libada_drivers_library.a(nrf51-adc.o)
 .debug_line    0x0000000000000b20      0x28e D:\programming\ada_projects\ravenscar_test\Ada_Drivers_Library\obj_lib_Debug\libada_drivers_library.a(nrf51-device.o)
 .debug_line    0x0000000000000dae      0x172 D:\programming\ada_projects\ravenscar_test\Ada_Drivers_Library\obj_lib_Debug\libada_drivers_library.a(nrf51-events.o)
 .debug_line    0x0000000000000f20      0x1ea D:\programming\ada_projects\ravenscar_test\Ada_Drivers_Library\obj_lib_Debug\libada_drivers_library.a(nrf51-gpio-tasks_and_events.o)
 .debug_line    0x000000000000110a      0x413 D:\programming\ada_projects\ravenscar_test\Ada_Drivers_Library\obj_lib_Debug\libada_drivers_library.a(nrf51-gpio.o)
 .debug_line    0x000000000000151d      0x12f D:\programming\ada_projects\ravenscar_test\Ada_Drivers_Library\obj_lib_Debug\libada_drivers_library.a(nrf51-interrupts.o)
 .debug_line    0x000000000000164c      0x209 D:\programming\ada_projects\ravenscar_test\Ada_Drivers_Library\obj_lib_Debug\libada_drivers_library.a(nrf51-ppi.o)
 .debug_line    0x0000000000001855      0x2a9 D:\programming\ada_projects\ravenscar_test\Ada_Drivers_Library\obj_lib_Debug\libada_drivers_library.a(nrf51-rtc.o)
 .debug_line    0x0000000000001afe       0xc6 D:\programming\ada_projects\ravenscar_test\Ada_Drivers_Library\obj_lib_Debug\libada_drivers_library.a(nrf51-tasks.o)
 .debug_line    0x0000000000001bc4      0x4c5 D:\programming\ada_projects\ravenscar_test\Ada_Drivers_Library\obj_lib_Debug\libada_drivers_library.a(nrf51-timers.o)
 .debug_line    0x0000000000002089      0x47b D:\programming\ada_projects\ravenscar_test\Ada_Drivers_Library\obj_lib_Debug\libada_drivers_library.a(nrf51-twi.o)
 .debug_line    0x0000000000002504       0xc0 D:\programming\ada_projects\ravenscar_test\Ada_Drivers_Library\obj_lib_Debug\libada_drivers_library.a(nrf51_svd-gpio.o)
 .debug_line    0x00000000000025c4      0x112 D:\programming\ada_projects\ravenscar_test\Ada_Drivers_Library\obj_lib_Debug\libada_drivers_library.a(nrf51_svd-twi.o)
 .debug_line    0x00000000000026d6       0x1d D:\programming\ada_projects\ravenscar_test\Ada_Drivers_Library\obj_lib_Debug\libada_drivers_library.a(hal-gpio.o)
 .debug_line    0x00000000000026f3       0x1d D:\programming\ada_projects\ravenscar_test\Ada_Drivers_Library\obj_lib_Debug\libada_drivers_library.a(hal-i2c.o)
 .debug_line    0x0000000000002710      0x2a7 D:\gnat\2018-arm-elf\arm-eabi\lib\gnat\ravenscar-sfp-microbit\adalib\libgnarl.a(s-tasdeb.o)
 .debug_line    0x00000000000029b7       0xbc D:\gnat\2018-arm-elf\arm-eabi\lib\gnat\ravenscar-sfp-microbit\adalib\libgnat.a(a-except.o)
 .debug_line    0x0000000000002a73      0x15e D:\gnat\2018-arm-elf\arm-eabi\lib\gnat\ravenscar-sfp-microbit\adalib\libgnat.a(s-assert.o)
 .debug_line    0x0000000000002bd1       0x74 d:/gnat/2018-arm-elf/bin/../lib/gcc/arm-eabi/7.3.1/thumb/v6-m\libgcc.a(_divsi3.o)
 .debug_line    0x0000000000002c45       0x61 d:/gnat/2018-arm-elf/bin/../lib/gcc/arm-eabi/7.3.1/thumb/v6-m\libgcc.a(_dvmd_tls.o)
 .debug_line    0x0000000000002ca6       0x76 d:/gnat/2018-arm-elf/bin/../lib/gcc/arm-eabi/7.3.1/thumb/v6-m\libgcc.a(_arm_cmpsf2.o)
 .debug_line    0x0000000000002d1c       0x6c d:/gnat/2018-arm-elf/bin/../lib/gcc/arm-eabi/7.3.1/thumb/v6-m\libgcc.a(_aeabi_ldivmod.o)
 .debug_line    0x0000000000002d88       0x6c d:/gnat/2018-arm-elf/bin/../lib/gcc/arm-eabi/7.3.1/thumb/v6-m\libgcc.a(_aeabi_uldivmod.o)
 .debug_line    0x0000000000002df4      0x12d d:/gnat/2018-arm-elf/bin/../lib/gcc/arm-eabi/7.3.1/thumb/v6-m\libgcc.a(_muldi3.o)
 .debug_line    0x0000000000002f21      0x110 d:/gnat/2018-arm-elf/bin/../lib/gcc/arm-eabi/7.3.1/thumb/v6-m\libgcc.a(_fixunssfsi.o)
 .debug_line    0x0000000000003031      0x146 d:/gnat/2018-arm-elf/bin/../lib/gcc/arm-eabi/7.3.1/thumb/v6-m\libgcc.a(_udivmoddi4.o)
 .debug_line    0x0000000000003177       0x61 d:/gnat/2018-arm-elf/bin/../lib/gcc/arm-eabi/7.3.1/thumb/v6-m\libgcc.a(bpabi.o)
 .debug_line    0x00000000000031d8      0x2c3 d:/gnat/2018-arm-elf/bin/../lib/gcc/arm-eabi/7.3.1/thumb/v6-m\libgcc.a(addsf3.o)
 .debug_line    0x000000000000349b      0x184 d:/gnat/2018-arm-elf/bin/../lib/gcc/arm-eabi/7.3.1/thumb/v6-m\libgcc.a(divsf3.o)
 .debug_line    0x000000000000361f       0xee d:/gnat/2018-arm-elf/bin/../lib/gcc/arm-eabi/7.3.1/thumb/v6-m\libgcc.a(eqsf2.o)
 .debug_line    0x000000000000370d      0x112 d:/gnat/2018-arm-elf/bin/../lib/gcc/arm-eabi/7.3.1/thumb/v6-m\libgcc.a(gesf2.o)
 .debug_line    0x000000000000381f      0x112 d:/gnat/2018-arm-elf/bin/../lib/gcc/arm-eabi/7.3.1/thumb/v6-m\libgcc.a(lesf2.o)
 .debug_line    0x0000000000003931      0x175 d:/gnat/2018-arm-elf/bin/../lib/gcc/arm-eabi/7.3.1/thumb/v6-m\libgcc.a(mulsf3.o)
 .debug_line    0x0000000000003aa6      0x2d6 d:/gnat/2018-arm-elf/bin/../lib/gcc/arm-eabi/7.3.1/thumb/v6-m\libgcc.a(subsf3.o)
 .debug_line    0x0000000000003d7c       0xce d:/gnat/2018-arm-elf/bin/../lib/gcc/arm-eabi/7.3.1/thumb/v6-m\libgcc.a(unordsf2.o)
 .debug_line    0x0000000000003e4a       0xcb d:/gnat/2018-arm-elf/bin/../lib/gcc/arm-eabi/7.3.1/thumb/v6-m\libgcc.a(fixsfsi.o)
 .debug_line    0x0000000000003f15       0xe5 d:/gnat/2018-arm-elf/bin/../lib/gcc/arm-eabi/7.3.1/thumb/v6-m\libgcc.a(floatsisf.o)
 .debug_line    0x0000000000003ffa       0xe7 d:/gnat/2018-arm-elf/bin/../lib/gcc/arm-eabi/7.3.1/thumb/v6-m\libgcc.a(floatunsisf.o)
 .debug_line    0x00000000000040e1       0x75 d:/gnat/2018-arm-elf/bin/../lib/gcc/arm-eabi/7.3.1/thumb/v6-m\libgcc.a(_clzsi2.o)
 .debug_line    0x0000000000004156       0x6b d:/gnat/2018-arm-elf/bin/../lib/gcc/arm-eabi/7.3.1/thumb/v6-m\libgcc.a(_clzdi2.o)
 .debug_line    0x00000000000041c1      0x152 d:/gnat/2018-arm-elf/bin/../lib/gcc/arm-eabi/7.3.1/thumb/v6-m\libgcc.a(_divdi3.o)

.debug_frame    0x0000000000000000     0x1ad4
 *(.debug_frame)
 .debug_frame   0x0000000000000000       0x2c main.o
 .debug_frame   0x000000000000002c       0x8c b__main.o
 .debug_frame   0x00000000000000b8      0x110 D:\programming\ada_projects\ravenscar_test\Ada_Drivers_Library\obj_lib_Debug\libada_drivers_library.a(cortex_m-nvic.o)
 .debug_frame   0x00000000000001c8      0x270 D:\programming\ada_projects\ravenscar_test\Ada_Drivers_Library\obj_lib_Debug\libada_drivers_library.a(microbit-ios.o)
 .debug_frame   0x0000000000000438       0xcc D:\programming\ada_projects\ravenscar_test\Ada_Drivers_Library\obj_lib_Debug\libada_drivers_library.a(nrf51-adc.o)
 .debug_frame   0x0000000000000504       0x2c D:\programming\ada_projects\ravenscar_test\Ada_Drivers_Library\obj_lib_Debug\libada_drivers_library.a(nrf51-device.o)
 .debug_frame   0x0000000000000530       0xd0 D:\programming\ada_projects\ravenscar_test\Ada_Drivers_Library\obj_lib_Debug\libada_drivers_library.a(nrf51-events.o)
 .debug_frame   0x0000000000000600       0xb0 D:\programming\ada_projects\ravenscar_test\Ada_Drivers_Library\obj_lib_Debug\libada_drivers_library.a(nrf51-gpio-tasks_and_events.o)
 .debug_frame   0x00000000000006b0      0x218 D:\programming\ada_projects\ravenscar_test\Ada_Drivers_Library\obj_lib_Debug\libada_drivers_library.a(nrf51-gpio.o)
 .debug_frame   0x00000000000008c8       0xd0 D:\programming\ada_projects\ravenscar_test\Ada_Drivers_Library\obj_lib_Debug\libada_drivers_library.a(nrf51-interrupts.o)
 .debug_frame   0x0000000000000998       0xf4 D:\programming\ada_projects\ravenscar_test\Ada_Drivers_Library\obj_lib_Debug\libada_drivers_library.a(nrf51-ppi.o)
 .debug_frame   0x0000000000000a8c      0x150 D:\programming\ada_projects\ravenscar_test\Ada_Drivers_Library\obj_lib_Debug\libada_drivers_library.a(nrf51-rtc.o)
 .debug_frame   0x0000000000000bdc       0x70 D:\programming\ada_projects\ravenscar_test\Ada_Drivers_Library\obj_lib_Debug\libada_drivers_library.a(nrf51-tasks.o)
 .debug_frame   0x0000000000000c4c      0x334 D:\programming\ada_projects\ravenscar_test\Ada_Drivers_Library\obj_lib_Debug\libada_drivers_library.a(nrf51-timers.o)
 .debug_frame   0x0000000000000f80      0x200 D:\programming\ada_projects\ravenscar_test\Ada_Drivers_Library\obj_lib_Debug\libada_drivers_library.a(nrf51-twi.o)
 .debug_frame   0x0000000000001180      0x458 D:\programming\ada_projects\ravenscar_test\Ada_Drivers_Library\obj_lib_Debug\libada_drivers_library.a(nrf51_svd-gpio.o)
 .debug_frame   0x00000000000015d8      0x170 D:\programming\ada_projects\ravenscar_test\Ada_Drivers_Library\obj_lib_Debug\libada_drivers_library.a(nrf51_svd-twi.o)
 .debug_frame   0x0000000000001748       0x30 D:\gnat\2018-arm-elf\arm-eabi\lib\gnat\ravenscar-sfp-microbit\adalib\libgnarl.a(s-tasdeb.o)
 .debug_frame   0x0000000000001778       0x34 D:\gnat\2018-arm-elf\arm-eabi\lib\gnat\ravenscar-sfp-microbit\adalib\libgnat.a(s-assert.o)
 .debug_frame   0x00000000000017ac       0x20 d:/gnat/2018-arm-elf/bin/../lib/gcc/arm-eabi/7.3.1/thumb/v6-m\libgcc.a(_divsi3.o)
 .debug_frame   0x00000000000017cc       0x34 d:/gnat/2018-arm-elf/bin/../lib/gcc/arm-eabi/7.3.1/thumb/v6-m\libgcc.a(_muldi3.o)
 .debug_frame   0x0000000000001800       0x28 d:/gnat/2018-arm-elf/bin/../lib/gcc/arm-eabi/7.3.1/thumb/v6-m\libgcc.a(_fixunssfsi.o)
 .debug_frame   0x0000000000001828       0x3c d:/gnat/2018-arm-elf/bin/../lib/gcc/arm-eabi/7.3.1/thumb/v6-m\libgcc.a(_udivmoddi4.o)
 .debug_frame   0x0000000000001864       0x30 d:/gnat/2018-arm-elf/bin/../lib/gcc/arm-eabi/7.3.1/thumb/v6-m\libgcc.a(bpabi.o)
 .debug_frame   0x0000000000001894       0x38 d:/gnat/2018-arm-elf/bin/../lib/gcc/arm-eabi/7.3.1/thumb/v6-m\libgcc.a(addsf3.o)
 .debug_frame   0x00000000000018cc       0x3c d:/gnat/2018-arm-elf/bin/../lib/gcc/arm-eabi/7.3.1/thumb/v6-m\libgcc.a(divsf3.o)
 .debug_frame   0x0000000000001908       0x2c d:/gnat/2018-arm-elf/bin/../lib/gcc/arm-eabi/7.3.1/thumb/v6-m\libgcc.a(eqsf2.o)
 .debug_frame   0x0000000000001934       0x2c d:/gnat/2018-arm-elf/bin/../lib/gcc/arm-eabi/7.3.1/thumb/v6-m\libgcc.a(gesf2.o)
 .debug_frame   0x0000000000001960       0x2c d:/gnat/2018-arm-elf/bin/../lib/gcc/arm-eabi/7.3.1/thumb/v6-m\libgcc.a(lesf2.o)
 .debug_frame   0x000000000000198c       0x3c d:/gnat/2018-arm-elf/bin/../lib/gcc/arm-eabi/7.3.1/thumb/v6-m\libgcc.a(mulsf3.o)
 .debug_frame   0x00000000000019c8       0x38 d:/gnat/2018-arm-elf/bin/../lib/gcc/arm-eabi/7.3.1/thumb/v6-m\libgcc.a(subsf3.o)
 .debug_frame   0x0000000000001a00       0x20 d:/gnat/2018-arm-elf/bin/../lib/gcc/arm-eabi/7.3.1/thumb/v6-m\libgcc.a(unordsf2.o)
 .debug_frame   0x0000000000001a20       0x20 d:/gnat/2018-arm-elf/bin/../lib/gcc/arm-eabi/7.3.1/thumb/v6-m\libgcc.a(fixsfsi.o)
 .debug_frame   0x0000000000001a40       0x2c d:/gnat/2018-arm-elf/bin/../lib/gcc/arm-eabi/7.3.1/thumb/v6-m\libgcc.a(floatsisf.o)
 .debug_frame   0x0000000000001a6c       0x2c d:/gnat/2018-arm-elf/bin/../lib/gcc/arm-eabi/7.3.1/thumb/v6-m\libgcc.a(floatunsisf.o)
 .debug_frame   0x0000000000001a98       0x3c d:/gnat/2018-arm-elf/bin/../lib/gcc/arm-eabi/7.3.1/thumb/v6-m\libgcc.a(_divdi3.o)

.debug_str      0x0000000000000000     0xa902
 *(.debug_str)
 .debug_str     0x0000000000000000      0x1b5 main.o
                                        0x1ba (size before relaxing)
 .debug_str     0x00000000000001b5      0x7f4 b__main.o
                                        0x860 (size before relaxing)
 .debug_str     0x00000000000009a9      0x49d D:\programming\ada_projects\ravenscar_test\Ada_Drivers_Library\obj_lib_Debug\libada_drivers_library.a(cortex_m-nvic.o)
                                        0x4ec (size before relaxing)
 .debug_str     0x0000000000000e46     0x1b19 D:\programming\ada_projects\ravenscar_test\Ada_Drivers_Library\obj_lib_Debug\libada_drivers_library.a(microbit-ios.o)
                                       0x1df5 (size before relaxing)
 .debug_str     0x000000000000295f      0x2e3 D:\programming\ada_projects\ravenscar_test\Ada_Drivers_Library\obj_lib_Debug\libada_drivers_library.a(nrf51-adc.o)
                                        0x59e (size before relaxing)
 .debug_str     0x0000000000002c42     0x1b7b D:\programming\ada_projects\ravenscar_test\Ada_Drivers_Library\obj_lib_Debug\libada_drivers_library.a(nrf51-device.o)
                                       0x2abe (size before relaxing)
 .debug_str     0x00000000000047bd      0xa9f D:\programming\ada_projects\ravenscar_test\Ada_Drivers_Library\obj_lib_Debug\libada_drivers_library.a(nrf51-events.o)
                                        0xe92 (size before relaxing)
 .debug_str     0x000000000000525c      0x535 D:\programming\ada_projects\ravenscar_test\Ada_Drivers_Library\obj_lib_Debug\libada_drivers_library.a(nrf51-gpio-tasks_and_events.o)
                                        0x89b (size before relaxing)
 .debug_str     0x0000000000005791      0x51d D:\programming\ada_projects\ravenscar_test\Ada_Drivers_Library\obj_lib_Debug\libada_drivers_library.a(nrf51-gpio.o)
                                        0xba1 (size before relaxing)
 .debug_str     0x0000000000005cae      0x1d0 D:\programming\ada_projects\ravenscar_test\Ada_Drivers_Library\obj_lib_Debug\libada_drivers_library.a(nrf51-interrupts.o)
                                        0x8c8 (size before relaxing)
 .debug_str     0x0000000000005e7e      0x2d5 D:\programming\ada_projects\ravenscar_test\Ada_Drivers_Library\obj_lib_Debug\libada_drivers_library.a(nrf51-ppi.o)
                                        0x5c1 (size before relaxing)
 .debug_str     0x0000000000006153      0x215 D:\programming\ada_projects\ravenscar_test\Ada_Drivers_Library\obj_lib_Debug\libada_drivers_library.a(nrf51-rtc.o)
                                       0x115c (size before relaxing)
 .debug_str     0x0000000000006368      0xaae D:\programming\ada_projects\ravenscar_test\Ada_Drivers_Library\obj_lib_Debug\libada_drivers_library.a(nrf51-tasks.o)
                                        0xf78 (size before relaxing)
 .debug_str     0x0000000000006e16      0x368 D:\programming\ada_projects\ravenscar_test\Ada_Drivers_Library\obj_lib_Debug\libada_drivers_library.a(nrf51-timers.o)
                                       0x11f7 (size before relaxing)
 .debug_str     0x000000000000717e      0x2ec D:\programming\ada_projects\ravenscar_test\Ada_Drivers_Library\obj_lib_Debug\libada_drivers_library.a(nrf51-twi.o)
                                       0x14c1 (size before relaxing)
 .debug_str     0x000000000000746a      0x690 D:\programming\ada_projects\ravenscar_test\Ada_Drivers_Library\obj_lib_Debug\libada_drivers_library.a(nrf51_svd-gpio.o)
                                        0xc06 (size before relaxing)
 .debug_str     0x0000000000007afa       0x94 D:\programming\ada_projects\ravenscar_test\Ada_Drivers_Library\obj_lib_Debug\libada_drivers_library.a(nrf51_svd-twi.o)
                                        0xef0 (size before relaxing)
 .debug_str     0x0000000000007b8e       0x45 D:\programming\ada_projects\ravenscar_test\Ada_Drivers_Library\obj_lib_Debug\libada_drivers_library.a(hal-gpio.o)
                                        0x271 (size before relaxing)
 .debug_str     0x0000000000007bd3       0x44 D:\programming\ada_projects\ravenscar_test\Ada_Drivers_Library\obj_lib_Debug\libada_drivers_library.a(hal-i2c.o)
                                        0x2cc (size before relaxing)
 .debug_str     0x0000000000007c17      0xc19 D:\gnat\2018-arm-elf\arm-eabi\lib\gnat\ravenscar-sfp-microbit\adalib\libgnarl.a(s-tasdeb.o)
                                        0xf31 (size before relaxing)
 .debug_str     0x0000000000008830      0x3d1 D:\gnat\2018-arm-elf\arm-eabi\lib\gnat\ravenscar-sfp-microbit\adalib\libgnat.a(a-except.o)
                                        0x482 (size before relaxing)
 .debug_str     0x0000000000008c01      0x3fd D:\gnat\2018-arm-elf\arm-eabi\lib\gnat\ravenscar-sfp-microbit\adalib\libgnat.a(s-assert.o)
                                        0x4f8 (size before relaxing)
 .debug_str     0x0000000000008ffe       0x93 d:/gnat/2018-arm-elf/bin/../lib/gcc/arm-eabi/7.3.1/thumb/v6-m\libgcc.a(_divsi3.o)
 .debug_str     0x0000000000009091       0x93 d:/gnat/2018-arm-elf/bin/../lib/gcc/arm-eabi/7.3.1/thumb/v6-m\libgcc.a(_dvmd_tls.o)
 .debug_str     0x0000000000009091       0x31 d:/gnat/2018-arm-elf/bin/../lib/gcc/arm-eabi/7.3.1/thumb/v6-m\libgcc.a(_arm_cmpsf2.o)
                                         0x93 (size before relaxing)
 .debug_str     0x00000000000090c2       0x93 d:/gnat/2018-arm-elf/bin/../lib/gcc/arm-eabi/7.3.1/thumb/v6-m\libgcc.a(_aeabi_ldivmod.o)
 .debug_str     0x00000000000090c2       0x93 d:/gnat/2018-arm-elf/bin/../lib/gcc/arm-eabi/7.3.1/thumb/v6-m\libgcc.a(_aeabi_uldivmod.o)
 .debug_str     0x00000000000090c2     0x1321 d:/gnat/2018-arm-elf/bin/../lib/gcc/arm-eabi/7.3.1/thumb/v6-m\libgcc.a(_muldi3.o)
                                       0x13b7 (size before relaxing)
 .debug_str     0x000000000000a3e3       0x3d d:/gnat/2018-arm-elf/bin/../lib/gcc/arm-eabi/7.3.1/thumb/v6-m\libgcc.a(_fixunssfsi.o)
                                       0x13a6 (size before relaxing)
 .debug_str     0x000000000000a420       0xd9 d:/gnat/2018-arm-elf/bin/../lib/gcc/arm-eabi/7.3.1/thumb/v6-m\libgcc.a(_udivmoddi4.o)
                                       0x138d (size before relaxing)
 .debug_str     0x000000000000a4f9       0x6b d:/gnat/2018-arm-elf/bin/../lib/gcc/arm-eabi/7.3.1/thumb/v6-m\libgcc.a(bpabi.o)
                                        0x191 (size before relaxing)
 .debug_str     0x000000000000a564      0x131 d:/gnat/2018-arm-elf/bin/../lib/gcc/arm-eabi/7.3.1/thumb/v6-m\libgcc.a(addsf3.o)
                                        0x2d0 (size before relaxing)
 .debug_str     0x000000000000a695      0x10a d:/gnat/2018-arm-elf/bin/../lib/gcc/arm-eabi/7.3.1/thumb/v6-m\libgcc.a(divsf3.o)
                                        0x2f5 (size before relaxing)
 .debug_str     0x000000000000a79f       0x2f d:/gnat/2018-arm-elf/bin/../lib/gcc/arm-eabi/7.3.1/thumb/v6-m\libgcc.a(eqsf2.o)
                                        0x1fe (size before relaxing)
 .debug_str     0x000000000000a7ce       0x34 d:/gnat/2018-arm-elf/bin/../lib/gcc/arm-eabi/7.3.1/thumb/v6-m\libgcc.a(gesf2.o)
                                        0x222 (size before relaxing)
 .debug_str     0x000000000000a802       0x10 d:/gnat/2018-arm-elf/bin/../lib/gcc/arm-eabi/7.3.1/thumb/v6-m\libgcc.a(lesf2.o)
                                        0x222 (size before relaxing)
 .debug_str     0x000000000000a812       0x50 d:/gnat/2018-arm-elf/bin/../lib/gcc/arm-eabi/7.3.1/thumb/v6-m\libgcc.a(mulsf3.o)
                                        0x2f5 (size before relaxing)
 .debug_str     0x000000000000a862        0x9 d:/gnat/2018-arm-elf/bin/../lib/gcc/arm-eabi/7.3.1/thumb/v6-m\libgcc.a(subsf3.o)
                                        0x2d0 (size before relaxing)
 .debug_str     0x000000000000a86b       0x1a d:/gnat/2018-arm-elf/bin/../lib/gcc/arm-eabi/7.3.1/thumb/v6-m\libgcc.a(unordsf2.o)
                                        0x208 (size before relaxing)
 .debug_str     0x000000000000a885       0x1d d:/gnat/2018-arm-elf/bin/../lib/gcc/arm-eabi/7.3.1/thumb/v6-m\libgcc.a(fixsfsi.o)
                                        0x208 (size before relaxing)
 .debug_str     0x000000000000a8a2       0x45 d:/gnat/2018-arm-elf/bin/../lib/gcc/arm-eabi/7.3.1/thumb/v6-m\libgcc.a(floatsisf.o)
                                        0x297 (size before relaxing)
 .debug_str     0x000000000000a8e7       0x1b d:/gnat/2018-arm-elf/bin/../lib/gcc/arm-eabi/7.3.1/thumb/v6-m\libgcc.a(floatunsisf.o)
                                        0x293 (size before relaxing)
 .debug_str     0x000000000000a902       0x93 d:/gnat/2018-arm-elf/bin/../lib/gcc/arm-eabi/7.3.1/thumb/v6-m\libgcc.a(_clzsi2.o)
 .debug_str     0x000000000000a902       0x93 d:/gnat/2018-arm-elf/bin/../lib/gcc/arm-eabi/7.3.1/thumb/v6-m\libgcc.a(_clzdi2.o)
 .debug_str     0x000000000000a902     0x13ba d:/gnat/2018-arm-elf/bin/../lib/gcc/arm-eabi/7.3.1/thumb/v6-m\libgcc.a(_divdi3.o)

.debug_loc      0x0000000000000000     0x3f47
 *(.debug_loc)
 .debug_loc     0x0000000000000000       0x48 D:\gnat\2018-arm-elf\arm-eabi\lib\gnat\ravenscar-sfp-microbit\adalib\libgnat.a(s-assert.o)
 .debug_loc     0x0000000000000048      0x19b d:/gnat/2018-arm-elf/bin/../lib/gcc/arm-eabi/7.3.1/thumb/v6-m\libgcc.a(_muldi3.o)
 .debug_loc     0x00000000000001e3       0x39 d:/gnat/2018-arm-elf/bin/../lib/gcc/arm-eabi/7.3.1/thumb/v6-m\libgcc.a(_fixunssfsi.o)
 .debug_loc     0x000000000000021c      0x398 d:/gnat/2018-arm-elf/bin/../lib/gcc/arm-eabi/7.3.1/thumb/v6-m\libgcc.a(_udivmoddi4.o)
 .debug_loc     0x00000000000005b4       0x70 d:/gnat/2018-arm-elf/bin/../lib/gcc/arm-eabi/7.3.1/thumb/v6-m\libgcc.a(bpabi.o)
 .debug_loc     0x0000000000000624      0xd8f d:/gnat/2018-arm-elf/bin/../lib/gcc/arm-eabi/7.3.1/thumb/v6-m\libgcc.a(addsf3.o)
 .debug_loc     0x00000000000013b3      0x794 d:/gnat/2018-arm-elf/bin/../lib/gcc/arm-eabi/7.3.1/thumb/v6-m\libgcc.a(divsf3.o)
 .debug_loc     0x0000000000001b47       0xc7 d:/gnat/2018-arm-elf/bin/../lib/gcc/arm-eabi/7.3.1/thumb/v6-m\libgcc.a(eqsf2.o)
 .debug_loc     0x0000000000001c0e      0x172 d:/gnat/2018-arm-elf/bin/../lib/gcc/arm-eabi/7.3.1/thumb/v6-m\libgcc.a(gesf2.o)
 .debug_loc     0x0000000000001d80      0x192 d:/gnat/2018-arm-elf/bin/../lib/gcc/arm-eabi/7.3.1/thumb/v6-m\libgcc.a(lesf2.o)
 .debug_loc     0x0000000000001f12      0x916 d:/gnat/2018-arm-elf/bin/../lib/gcc/arm-eabi/7.3.1/thumb/v6-m\libgcc.a(mulsf3.o)
 .debug_loc     0x0000000000002828      0xd96 d:/gnat/2018-arm-elf/bin/../lib/gcc/arm-eabi/7.3.1/thumb/v6-m\libgcc.a(subsf3.o)
 .debug_loc     0x00000000000035be       0x64 d:/gnat/2018-arm-elf/bin/../lib/gcc/arm-eabi/7.3.1/thumb/v6-m\libgcc.a(unordsf2.o)
 .debug_loc     0x0000000000003622       0xb3 d:/gnat/2018-arm-elf/bin/../lib/gcc/arm-eabi/7.3.1/thumb/v6-m\libgcc.a(fixsfsi.o)
 .debug_loc     0x00000000000036d5      0x209 d:/gnat/2018-arm-elf/bin/../lib/gcc/arm-eabi/7.3.1/thumb/v6-m\libgcc.a(floatsisf.o)
 .debug_loc     0x00000000000038de      0x20a d:/gnat/2018-arm-elf/bin/../lib/gcc/arm-eabi/7.3.1/thumb/v6-m\libgcc.a(floatunsisf.o)
 .debug_loc     0x0000000000003ae8      0x45f d:/gnat/2018-arm-elf/bin/../lib/gcc/arm-eabi/7.3.1/thumb/v6-m\libgcc.a(_divdi3.o)

.debug_macinfo
 *(.debug_macinfo)

.debug_pubtypes
 *(.debug_pubtypes)

.debug_ranges   0x0000000000000000      0x980
 *(.debug_ranges)
 .debug_ranges  0x0000000000000000       0x40 D:\programming\ada_projects\ravenscar_test\Ada_Drivers_Library\obj_lib_Debug\libada_drivers_library.a(cortex_m-nvic.o)
 .debug_ranges  0x0000000000000040       0x88 D:\programming\ada_projects\ravenscar_test\Ada_Drivers_Library\obj_lib_Debug\libada_drivers_library.a(microbit-ios.o)
 .debug_ranges  0x00000000000000c8       0x38 D:\programming\ada_projects\ravenscar_test\Ada_Drivers_Library\obj_lib_Debug\libada_drivers_library.a(nrf51-adc.o)
 .debug_ranges  0x0000000000000100       0x10 D:\programming\ada_projects\ravenscar_test\Ada_Drivers_Library\obj_lib_Debug\libada_drivers_library.a(nrf51-device.o)
 .debug_ranges  0x0000000000000110       0x38 D:\programming\ada_projects\ravenscar_test\Ada_Drivers_Library\obj_lib_Debug\libada_drivers_library.a(nrf51-events.o)
 .debug_ranges  0x0000000000000148       0x30 D:\programming\ada_projects\ravenscar_test\Ada_Drivers_Library\obj_lib_Debug\libada_drivers_library.a(nrf51-gpio-tasks_and_events.o)
 .debug_ranges  0x0000000000000178       0x60 D:\programming\ada_projects\ravenscar_test\Ada_Drivers_Library\obj_lib_Debug\libada_drivers_library.a(nrf51-gpio.o)
 .debug_ranges  0x00000000000001d8       0x38 D:\programming\ada_projects\ravenscar_test\Ada_Drivers_Library\obj_lib_Debug\libada_drivers_library.a(nrf51-interrupts.o)
 .debug_ranges  0x0000000000000210       0x40 D:\programming\ada_projects\ravenscar_test\Ada_Drivers_Library\obj_lib_Debug\libada_drivers_library.a(nrf51-ppi.o)
 .debug_ranges  0x0000000000000250       0x50 D:\programming\ada_projects\ravenscar_test\Ada_Drivers_Library\obj_lib_Debug\libada_drivers_library.a(nrf51-rtc.o)
 .debug_ranges  0x00000000000002a0       0x20 D:\programming\ada_projects\ravenscar_test\Ada_Drivers_Library\obj_lib_Debug\libada_drivers_library.a(nrf51-tasks.o)
 .debug_ranges  0x00000000000002c0       0xb0 D:\programming\ada_projects\ravenscar_test\Ada_Drivers_Library\obj_lib_Debug\libada_drivers_library.a(nrf51-timers.o)
 .debug_ranges  0x0000000000000370       0x60 D:\programming\ada_projects\ravenscar_test\Ada_Drivers_Library\obj_lib_Debug\libada_drivers_library.a(nrf51-twi.o)
 .debug_ranges  0x00000000000003d0       0x10 D:\gnat\2018-arm-elf\arm-eabi\lib\gnat\ravenscar-sfp-microbit\adalib\libgnarl.a(s-tasdeb.o)
 .debug_ranges  0x00000000000003e0       0x10 D:\gnat\2018-arm-elf\arm-eabi\lib\gnat\ravenscar-sfp-microbit\adalib\libgnat.a(s-assert.o)
 .debug_ranges  0x00000000000003f0       0x28 d:/gnat/2018-arm-elf/bin/../lib/gcc/arm-eabi/7.3.1/thumb/v6-m\libgcc.a(_muldi3.o)
 .debug_ranges  0x0000000000000418      0x170 d:/gnat/2018-arm-elf/bin/../lib/gcc/arm-eabi/7.3.1/thumb/v6-m\libgcc.a(addsf3.o)
 .debug_ranges  0x0000000000000588       0x80 d:/gnat/2018-arm-elf/bin/../lib/gcc/arm-eabi/7.3.1/thumb/v6-m\libgcc.a(divsf3.o)
 .debug_ranges  0x0000000000000608       0x30 d:/gnat/2018-arm-elf/bin/../lib/gcc/arm-eabi/7.3.1/thumb/v6-m\libgcc.a(eqsf2.o)
 .debug_ranges  0x0000000000000638       0x60 d:/gnat/2018-arm-elf/bin/../lib/gcc/arm-eabi/7.3.1/thumb/v6-m\libgcc.a(gesf2.o)
 .debug_ranges  0x0000000000000698       0x70 d:/gnat/2018-arm-elf/bin/../lib/gcc/arm-eabi/7.3.1/thumb/v6-m\libgcc.a(lesf2.o)
 .debug_ranges  0x0000000000000708       0x68 d:/gnat/2018-arm-elf/bin/../lib/gcc/arm-eabi/7.3.1/thumb/v6-m\libgcc.a(mulsf3.o)
 .debug_ranges  0x0000000000000770      0x180 d:/gnat/2018-arm-elf/bin/../lib/gcc/arm-eabi/7.3.1/thumb/v6-m\libgcc.a(subsf3.o)
 .debug_ranges  0x00000000000008f0       0x30 d:/gnat/2018-arm-elf/bin/../lib/gcc/arm-eabi/7.3.1/thumb/v6-m\libgcc.a(unordsf2.o)
 .debug_ranges  0x0000000000000920       0x18 d:/gnat/2018-arm-elf/bin/../lib/gcc/arm-eabi/7.3.1/thumb/v6-m\libgcc.a(fixsfsi.o)
 .debug_ranges  0x0000000000000938       0x18 d:/gnat/2018-arm-elf/bin/../lib/gcc/arm-eabi/7.3.1/thumb/v6-m\libgcc.a(floatsisf.o)
 .debug_ranges  0x0000000000000950       0x18 d:/gnat/2018-arm-elf/bin/../lib/gcc/arm-eabi/7.3.1/thumb/v6-m\libgcc.a(floatunsisf.o)
 .debug_ranges  0x0000000000000968       0x18 d:/gnat/2018-arm-elf/bin/../lib/gcc/arm-eabi/7.3.1/thumb/v6-m\libgcc.a(_divdi3.o)

.comment        0x0000000000000000       0x3d
 .comment       0x0000000000000000       0x3d main.o
                                         0x3e (size before relaxing)
 .comment       0x000000000000003d       0x3e b__main.o
 .comment       0x000000000000003d       0x3e D:\programming\ada_projects\ravenscar_test\Ada_Drivers_Library\obj_lib_Debug\libada_drivers_library.a(cortex_m-nvic.o)
 .comment       0x000000000000003d       0x3e D:\programming\ada_projects\ravenscar_test\Ada_Drivers_Library\obj_lib_Debug\libada_drivers_library.a(microbit-ios.o)
 .comment       0x000000000000003d       0x3e D:\programming\ada_projects\ravenscar_test\Ada_Drivers_Library\obj_lib_Debug\libada_drivers_library.a(nrf51-adc.o)
 .comment       0x000000000000003d       0x3e D:\programming\ada_projects\ravenscar_test\Ada_Drivers_Library\obj_lib_Debug\libada_drivers_library.a(nrf51-device.o)
 .comment       0x000000000000003d       0x3e D:\programming\ada_projects\ravenscar_test\Ada_Drivers_Library\obj_lib_Debug\libada_drivers_library.a(nrf51-events.o)
 .comment       0x000000000000003d       0x3e D:\programming\ada_projects\ravenscar_test\Ada_Drivers_Library\obj_lib_Debug\libada_drivers_library.a(nrf51-gpio-tasks_and_events.o)
 .comment       0x000000000000003d       0x3e D:\programming\ada_projects\ravenscar_test\Ada_Drivers_Library\obj_lib_Debug\libada_drivers_library.a(nrf51-gpio.o)
 .comment       0x000000000000003d       0x3e D:\programming\ada_projects\ravenscar_test\Ada_Drivers_Library\obj_lib_Debug\libada_drivers_library.a(nrf51-interrupts.o)
 .comment       0x000000000000003d       0x3e D:\programming\ada_projects\ravenscar_test\Ada_Drivers_Library\obj_lib_Debug\libada_drivers_library.a(nrf51-ppi.o)
 .comment       0x000000000000003d       0x3e D:\programming\ada_projects\ravenscar_test\Ada_Drivers_Library\obj_lib_Debug\libada_drivers_library.a(nrf51-rtc.o)
 .comment       0x000000000000003d       0x3e D:\programming\ada_projects\ravenscar_test\Ada_Drivers_Library\obj_lib_Debug\libada_drivers_library.a(nrf51-tasks.o)
 .comment       0x000000000000003d       0x3e D:\programming\ada_projects\ravenscar_test\Ada_Drivers_Library\obj_lib_Debug\libada_drivers_library.a(nrf51-timers.o)
 .comment       0x000000000000003d       0x3e D:\programming\ada_projects\ravenscar_test\Ada_Drivers_Library\obj_lib_Debug\libada_drivers_library.a(nrf51-twi.o)
 .comment       0x000000000000003d       0x3e D:\programming\ada_projects\ravenscar_test\Ada_Drivers_Library\obj_lib_Debug\libada_drivers_library.a(nrf51_svd-gpio.o)
 .comment       0x000000000000003d       0x3e D:\programming\ada_projects\ravenscar_test\Ada_Drivers_Library\obj_lib_Debug\libada_drivers_library.a(nrf51_svd-twi.o)
 .comment       0x000000000000003d       0x3e D:\programming\ada_projects\ravenscar_test\Ada_Drivers_Library\obj_lib_Debug\libada_drivers_library.a(hal-gpio.o)
 .comment       0x000000000000003d       0x3e D:\programming\ada_projects\ravenscar_test\Ada_Drivers_Library\obj_lib_Debug\libada_drivers_library.a(hal-i2c.o)
 .comment       0x000000000000003d       0x3e D:\gnat\2018-arm-elf\arm-eabi\lib\gnat\ravenscar-sfp-microbit\adalib\libgnarl.a(a-reatim.o)
 .comment       0x000000000000003d       0x3e D:\gnat\2018-arm-elf\arm-eabi\lib\gnat\ravenscar-sfp-microbit\adalib\libgnarl.a(s-bbbosu.o)
 .comment       0x000000000000003d       0x3e D:\gnat\2018-arm-elf\arm-eabi\lib\gnat\ravenscar-sfp-microbit\adalib\libgnarl.a(s-bbcppr.o)
 .comment       0x000000000000003d       0x3e D:\gnat\2018-arm-elf\arm-eabi\lib\gnat\ravenscar-sfp-microbit\adalib\libgnarl.a(s-bbinte.o)
 .comment       0x000000000000003d       0x3e D:\gnat\2018-arm-elf\arm-eabi\lib\gnat\ravenscar-sfp-microbit\adalib\libgnarl.a(s-bbthqu.o)
 .comment       0x000000000000003d       0x3e D:\gnat\2018-arm-elf\arm-eabi\lib\gnat\ravenscar-sfp-microbit\adalib\libgnarl.a(s-bbtime.o)
 .comment       0x000000000000003d       0x3e D:\gnat\2018-arm-elf\arm-eabi\lib\gnat\ravenscar-sfp-microbit\adalib\libgnarl.a(s-bcpcst.o)
 .comment       0x000000000000003d       0x3e D:\gnat\2018-arm-elf\arm-eabi\lib\gnat\ravenscar-sfp-microbit\adalib\libgnarl.a(s-taskin.o)
 .comment       0x000000000000003d       0x3e D:\gnat\2018-arm-elf\arm-eabi\lib\gnat\ravenscar-sfp-microbit\adalib\libgnarl.a(s-bbprot.o)
 .comment       0x000000000000003d       0x3e D:\gnat\2018-arm-elf\arm-eabi\lib\gnat\ravenscar-sfp-microbit\adalib\libgnarl.a(s-bbthre.o)
 .comment       0x000000000000003d       0x3e D:\gnat\2018-arm-elf\arm-eabi\lib\gnat\ravenscar-sfp-microbit\adalib\libgnarl.a(s-bbtiev.o)
 .comment       0x000000000000003d       0x3e D:\gnat\2018-arm-elf\arm-eabi\lib\gnat\ravenscar-sfp-microbit\adalib\libgnarl.a(s-taprop.o)
 .comment       0x000000000000003d       0x3e D:\gnat\2018-arm-elf\arm-eabi\lib\gnat\ravenscar-sfp-microbit\adalib\libgnarl.a(s-tasdeb.o)
 .comment       0x000000000000003d       0x3e D:\gnat\2018-arm-elf\arm-eabi\lib\gnat\ravenscar-sfp-microbit\adalib\libgnat.a(a-elchha.o)
 .comment       0x000000000000003d       0x3e D:\gnat\2018-arm-elf\arm-eabi\lib\gnat\ravenscar-sfp-microbit\adalib\libgnat.a(a-except.o)
 .comment       0x000000000000003d       0x3e D:\gnat\2018-arm-elf\arm-eabi\lib\gnat\ravenscar-sfp-microbit\adalib\libgnat.a(g-io.o)
 .comment       0x000000000000003d       0x3e D:\gnat\2018-arm-elf\arm-eabi\lib\gnat\ravenscar-sfp-microbit\adalib\libgnat.a(s-assert.o)
 .comment       0x000000000000003d       0x3e D:\gnat\2018-arm-elf\arm-eabi\lib\gnat\ravenscar-sfp-microbit\adalib\libgnat.a(s-macres.o)
 .comment       0x000000000000003d       0x3e D:\gnat\2018-arm-elf\arm-eabi\lib\gnat\ravenscar-sfp-microbit\adalib\libgnat.a(s-memcop.o)
 .comment       0x000000000000003d       0x3e D:\gnat\2018-arm-elf\arm-eabi\lib\gnat\ravenscar-sfp-microbit\adalib\libgnat.a(s-memset.o)
 .comment       0x000000000000003d       0x3e D:\gnat\2018-arm-elf\arm-eabi\lib\gnat\ravenscar-sfp-microbit\adalib\libgnat.a(s-parame.o)
 .comment       0x000000000000003d       0x3e D:\gnat\2018-arm-elf\arm-eabi\lib\gnat\ravenscar-sfp-microbit\adalib\libgnat.a(s-secsta.o)
 .comment       0x000000000000003d       0x3e D:\gnat\2018-arm-elf\arm-eabi\lib\gnat\ravenscar-sfp-microbit\adalib\libgnat.a(s-textio.o)
 .comment       0x000000000000003d       0x3e d:/gnat/2018-arm-elf/bin/../lib/gcc/arm-eabi/7.3.1/thumb/v6-m\libgcc.a(_muldi3.o)
 .comment       0x000000000000003d       0x3e d:/gnat/2018-arm-elf/bin/../lib/gcc/arm-eabi/7.3.1/thumb/v6-m\libgcc.a(_fixunssfsi.o)
 .comment       0x000000000000003d       0x3e d:/gnat/2018-arm-elf/bin/../lib/gcc/arm-eabi/7.3.1/thumb/v6-m\libgcc.a(_udivmoddi4.o)
 .comment       0x000000000000003d       0x3e d:/gnat/2018-arm-elf/bin/../lib/gcc/arm-eabi/7.3.1/thumb/v6-m\libgcc.a(bpabi.o)
 .comment       0x000000000000003d       0x3e d:/gnat/2018-arm-elf/bin/../lib/gcc/arm-eabi/7.3.1/thumb/v6-m\libgcc.a(addsf3.o)
 .comment       0x000000000000003d       0x3e d:/gnat/2018-arm-elf/bin/../lib/gcc/arm-eabi/7.3.1/thumb/v6-m\libgcc.a(divsf3.o)
 .comment       0x000000000000003d       0x3e d:/gnat/2018-arm-elf/bin/../lib/gcc/arm-eabi/7.3.1/thumb/v6-m\libgcc.a(eqsf2.o)
 .comment       0x000000000000003d       0x3e d:/gnat/2018-arm-elf/bin/../lib/gcc/arm-eabi/7.3.1/thumb/v6-m\libgcc.a(gesf2.o)
 .comment       0x000000000000003d       0x3e d:/gnat/2018-arm-elf/bin/../lib/gcc/arm-eabi/7.3.1/thumb/v6-m\libgcc.a(lesf2.o)
 .comment       0x000000000000003d       0x3e d:/gnat/2018-arm-elf/bin/../lib/gcc/arm-eabi/7.3.1/thumb/v6-m\libgcc.a(mulsf3.o)
 .comment       0x000000000000003d       0x3e d:/gnat/2018-arm-elf/bin/../lib/gcc/arm-eabi/7.3.1/thumb/v6-m\libgcc.a(subsf3.o)
 .comment       0x000000000000003d       0x3e d:/gnat/2018-arm-elf/bin/../lib/gcc/arm-eabi/7.3.1/thumb/v6-m\libgcc.a(unordsf2.o)
 .comment       0x000000000000003d       0x3e d:/gnat/2018-arm-elf/bin/../lib/gcc/arm-eabi/7.3.1/thumb/v6-m\libgcc.a(fixsfsi.o)
 .comment       0x000000000000003d       0x3e d:/gnat/2018-arm-elf/bin/../lib/gcc/arm-eabi/7.3.1/thumb/v6-m\libgcc.a(floatsisf.o)
 .comment       0x000000000000003d       0x3e d:/gnat/2018-arm-elf/bin/../lib/gcc/arm-eabi/7.3.1/thumb/v6-m\libgcc.a(floatunsisf.o)
 .comment       0x000000000000003d       0x3e d:/gnat/2018-arm-elf/bin/../lib/gcc/arm-eabi/7.3.1/thumb/v6-m\libgcc.a(_divdi3.o)

.ARM.attributes
                0x0000000000000000       0x2f
 .ARM.attributes
                0x0000000000000000       0x2f main.o
 .ARM.attributes
                0x000000000000002f       0x2f b__main.o
 .ARM.attributes
                0x000000000000005e       0x2f D:\programming\ada_projects\ravenscar_test\Ada_Drivers_Library\obj_lib_Debug\libada_drivers_library.a(cortex_m-nvic.o)
 .ARM.attributes
                0x000000000000008d       0x2f D:\programming\ada_projects\ravenscar_test\Ada_Drivers_Library\obj_lib_Debug\libada_drivers_library.a(microbit-ios.o)
 .ARM.attributes
                0x00000000000000bc       0x2f D:\programming\ada_projects\ravenscar_test\Ada_Drivers_Library\obj_lib_Debug\libada_drivers_library.a(nrf51-adc.o)
 .ARM.attributes
                0x00000000000000eb       0x2f D:\programming\ada_projects\ravenscar_test\Ada_Drivers_Library\obj_lib_Debug\libada_drivers_library.a(nrf51-device.o)
 .ARM.attributes
                0x000000000000011a       0x2f D:\programming\ada_projects\ravenscar_test\Ada_Drivers_Library\obj_lib_Debug\libada_drivers_library.a(nrf51-events.o)
 .ARM.attributes
                0x0000000000000149       0x2f D:\programming\ada_projects\ravenscar_test\Ada_Drivers_Library\obj_lib_Debug\libada_drivers_library.a(nrf51-gpio-tasks_and_events.o)
 .ARM.attributes
                0x0000000000000178       0x2f D:\programming\ada_projects\ravenscar_test\Ada_Drivers_Library\obj_lib_Debug\libada_drivers_library.a(nrf51-gpio.o)
 .ARM.attributes
                0x00000000000001a7       0x2f D:\programming\ada_projects\ravenscar_test\Ada_Drivers_Library\obj_lib_Debug\libada_drivers_library.a(nrf51-interrupts.o)
 .ARM.attributes
                0x00000000000001d6       0x2f D:\programming\ada_projects\ravenscar_test\Ada_Drivers_Library\obj_lib_Debug\libada_drivers_library.a(nrf51-ppi.o)
 .ARM.attributes
                0x0000000000000205       0x2f D:\programming\ada_projects\ravenscar_test\Ada_Drivers_Library\obj_lib_Debug\libada_drivers_library.a(nrf51-rtc.o)
 .ARM.attributes
                0x0000000000000234       0x2f D:\programming\ada_projects\ravenscar_test\Ada_Drivers_Library\obj_lib_Debug\libada_drivers_library.a(nrf51-tasks.o)
 .ARM.attributes
                0x0000000000000263       0x2f D:\programming\ada_projects\ravenscar_test\Ada_Drivers_Library\obj_lib_Debug\libada_drivers_library.a(nrf51-timers.o)
 .ARM.attributes
                0x0000000000000292       0x2f D:\programming\ada_projects\ravenscar_test\Ada_Drivers_Library\obj_lib_Debug\libada_drivers_library.a(nrf51-twi.o)
 .ARM.attributes
                0x00000000000002c1       0x2f D:\programming\ada_projects\ravenscar_test\Ada_Drivers_Library\obj_lib_Debug\libada_drivers_library.a(nrf51_svd-gpio.o)
 .ARM.attributes
                0x00000000000002f0       0x2f D:\programming\ada_projects\ravenscar_test\Ada_Drivers_Library\obj_lib_Debug\libada_drivers_library.a(nrf51_svd-twi.o)
 .ARM.attributes
                0x000000000000031f       0x2f D:\programming\ada_projects\ravenscar_test\Ada_Drivers_Library\obj_lib_Debug\libada_drivers_library.a(hal-gpio.o)
 .ARM.attributes
                0x000000000000034e       0x2f D:\programming\ada_projects\ravenscar_test\Ada_Drivers_Library\obj_lib_Debug\libada_drivers_library.a(hal-i2c.o)
 .ARM.attributes
                0x000000000000037d       0x2f D:\gnat\2018-arm-elf\arm-eabi\lib\gnat\ravenscar-sfp-microbit\adalib\libgnarl.a(a-reatim.o)
 .ARM.attributes
                0x00000000000003ac       0x2f D:\gnat\2018-arm-elf\arm-eabi\lib\gnat\ravenscar-sfp-microbit\adalib\libgnarl.a(s-bbbosu.o)
 .ARM.attributes
                0x00000000000003db       0x2f D:\gnat\2018-arm-elf\arm-eabi\lib\gnat\ravenscar-sfp-microbit\adalib\libgnarl.a(s-bbcppr.o)
 .ARM.attributes
                0x000000000000040a       0x2f D:\gnat\2018-arm-elf\arm-eabi\lib\gnat\ravenscar-sfp-microbit\adalib\libgnarl.a(s-bbinte.o)
 .ARM.attributes
                0x0000000000000439       0x2f D:\gnat\2018-arm-elf\arm-eabi\lib\gnat\ravenscar-sfp-microbit\adalib\libgnarl.a(s-bbthqu.o)
 .ARM.attributes
                0x0000000000000468       0x2f D:\gnat\2018-arm-elf\arm-eabi\lib\gnat\ravenscar-sfp-microbit\adalib\libgnarl.a(s-bbtime.o)
 .ARM.attributes
                0x0000000000000497       0x2f D:\gnat\2018-arm-elf\arm-eabi\lib\gnat\ravenscar-sfp-microbit\adalib\libgnarl.a(s-bcpcst.o)
 .ARM.attributes
                0x00000000000004c6       0x2f D:\gnat\2018-arm-elf\arm-eabi\lib\gnat\ravenscar-sfp-microbit\adalib\libgnarl.a(s-taskin.o)
 .ARM.attributes
                0x00000000000004f5       0x2f D:\gnat\2018-arm-elf\arm-eabi\lib\gnat\ravenscar-sfp-microbit\adalib\libgnarl.a(s-bbprot.o)
 .ARM.attributes
                0x0000000000000524       0x2f D:\gnat\2018-arm-elf\arm-eabi\lib\gnat\ravenscar-sfp-microbit\adalib\libgnarl.a(s-bbthre.o)
 .ARM.attributes
                0x0000000000000553       0x2f D:\gnat\2018-arm-elf\arm-eabi\lib\gnat\ravenscar-sfp-microbit\adalib\libgnarl.a(s-bbtiev.o)
 .ARM.attributes
                0x0000000000000582       0x2f D:\gnat\2018-arm-elf\arm-eabi\lib\gnat\ravenscar-sfp-microbit\adalib\libgnarl.a(s-taprop.o)
 .ARM.attributes
                0x00000000000005b1       0x2f D:\gnat\2018-arm-elf\arm-eabi\lib\gnat\ravenscar-sfp-microbit\adalib\libgnarl.a(s-tasdeb.o)
 .ARM.attributes
                0x00000000000005e0       0x2f D:\gnat\2018-arm-elf\arm-eabi\lib\gnat\ravenscar-sfp-microbit\adalib\libgnat.a(a-elchha.o)
 .ARM.attributes
                0x000000000000060f       0x2f D:\gnat\2018-arm-elf\arm-eabi\lib\gnat\ravenscar-sfp-microbit\adalib\libgnat.a(a-except.o)
 .ARM.attributes
                0x000000000000063e       0x2f D:\gnat\2018-arm-elf\arm-eabi\lib\gnat\ravenscar-sfp-microbit\adalib\libgnat.a(g-io.o)
 .ARM.attributes
                0x000000000000066d       0x2f D:\gnat\2018-arm-elf\arm-eabi\lib\gnat\ravenscar-sfp-microbit\adalib\libgnat.a(s-assert.o)
 .ARM.attributes
                0x000000000000069c       0x2f D:\gnat\2018-arm-elf\arm-eabi\lib\gnat\ravenscar-sfp-microbit\adalib\libgnat.a(s-macres.o)
 .ARM.attributes
                0x00000000000006cb       0x2f D:\gnat\2018-arm-elf\arm-eabi\lib\gnat\ravenscar-sfp-microbit\adalib\libgnat.a(s-memcop.o)
 .ARM.attributes
                0x00000000000006fa       0x2f D:\gnat\2018-arm-elf\arm-eabi\lib\gnat\ravenscar-sfp-microbit\adalib\libgnat.a(s-memset.o)
 .ARM.attributes
                0x0000000000000729       0x2f D:\gnat\2018-arm-elf\arm-eabi\lib\gnat\ravenscar-sfp-microbit\adalib\libgnat.a(s-parame.o)
 .ARM.attributes
                0x0000000000000758       0x2f D:\gnat\2018-arm-elf\arm-eabi\lib\gnat\ravenscar-sfp-microbit\adalib\libgnat.a(s-secsta.o)
 .ARM.attributes
                0x0000000000000787       0x2f D:\gnat\2018-arm-elf\arm-eabi\lib\gnat\ravenscar-sfp-microbit\adalib\libgnat.a(s-textio.o)
 .ARM.attributes
                0x00000000000007b6       0x21 D:\gnat\2018-arm-elf\arm-eabi\lib\gnat\ravenscar-sfp-microbit\adalib\libgnat.a(start-rom.o)
 .ARM.attributes
                0x00000000000007d7       0x21 D:\gnat\2018-arm-elf\arm-eabi\lib\gnat\ravenscar-sfp-microbit\adalib\libgnat.a(handler.o)
 .ARM.attributes
                0x00000000000007f8       0x21 D:\gnat\2018-arm-elf\arm-eabi\lib\gnat\ravenscar-sfp-microbit\adalib\libgnat.a(breakpoint_handler-cortexm.o)
 .ARM.attributes
                0x0000000000000819       0x1e d:/gnat/2018-arm-elf/bin/../lib/gcc/arm-eabi/7.3.1/thumb/v6-m\libgcc.a(_divsi3.o)
 .ARM.attributes
                0x0000000000000837       0x1e d:/gnat/2018-arm-elf/bin/../lib/gcc/arm-eabi/7.3.1/thumb/v6-m\libgcc.a(_dvmd_tls.o)
 .ARM.attributes
                0x0000000000000855       0x1e d:/gnat/2018-arm-elf/bin/../lib/gcc/arm-eabi/7.3.1/thumb/v6-m\libgcc.a(_arm_cmpsf2.o)
 .ARM.attributes
                0x0000000000000873       0x1e d:/gnat/2018-arm-elf/bin/../lib/gcc/arm-eabi/7.3.1/thumb/v6-m\libgcc.a(_aeabi_ldivmod.o)
 .ARM.attributes
                0x0000000000000891       0x1e d:/gnat/2018-arm-elf/bin/../lib/gcc/arm-eabi/7.3.1/thumb/v6-m\libgcc.a(_aeabi_uldivmod.o)
 .ARM.attributes
                0x00000000000008af       0x2c d:/gnat/2018-arm-elf/bin/../lib/gcc/arm-eabi/7.3.1/thumb/v6-m\libgcc.a(_muldi3.o)
 .ARM.attributes
                0x00000000000008db       0x2c d:/gnat/2018-arm-elf/bin/../lib/gcc/arm-eabi/7.3.1/thumb/v6-m\libgcc.a(_fixunssfsi.o)
 .ARM.attributes
                0x0000000000000907       0x2c d:/gnat/2018-arm-elf/bin/../lib/gcc/arm-eabi/7.3.1/thumb/v6-m\libgcc.a(_udivmoddi4.o)
 .ARM.attributes
                0x0000000000000933       0x2c d:/gnat/2018-arm-elf/bin/../lib/gcc/arm-eabi/7.3.1/thumb/v6-m\libgcc.a(bpabi.o)
 .ARM.attributes
                0x000000000000095f       0x2c d:/gnat/2018-arm-elf/bin/../lib/gcc/arm-eabi/7.3.1/thumb/v6-m\libgcc.a(addsf3.o)
 .ARM.attributes
                0x000000000000098b       0x2c d:/gnat/2018-arm-elf/bin/../lib/gcc/arm-eabi/7.3.1/thumb/v6-m\libgcc.a(divsf3.o)
 .ARM.attributes
                0x00000000000009b7       0x2c d:/gnat/2018-arm-elf/bin/../lib/gcc/arm-eabi/7.3.1/thumb/v6-m\libgcc.a(eqsf2.o)
 .ARM.attributes
                0x00000000000009e3       0x2c d:/gnat/2018-arm-elf/bin/../lib/gcc/arm-eabi/7.3.1/thumb/v6-m\libgcc.a(gesf2.o)
 .ARM.attributes
                0x0000000000000a0f       0x2c d:/gnat/2018-arm-elf/bin/../lib/gcc/arm-eabi/7.3.1/thumb/v6-m\libgcc.a(lesf2.o)
 .ARM.attributes
                0x0000000000000a3b       0x2c d:/gnat/2018-arm-elf/bin/../lib/gcc/arm-eabi/7.3.1/thumb/v6-m\libgcc.a(mulsf3.o)
 .ARM.attributes
                0x0000000000000a67       0x2c d:/gnat/2018-arm-elf/bin/../lib/gcc/arm-eabi/7.3.1/thumb/v6-m\libgcc.a(subsf3.o)
 .ARM.attributes
                0x0000000000000a93       0x2c d:/gnat/2018-arm-elf/bin/../lib/gcc/arm-eabi/7.3.1/thumb/v6-m\libgcc.a(unordsf2.o)
 .ARM.attributes
                0x0000000000000abf       0x2c d:/gnat/2018-arm-elf/bin/../lib/gcc/arm-eabi/7.3.1/thumb/v6-m\libgcc.a(fixsfsi.o)
 .ARM.attributes
                0x0000000000000aeb       0x2c d:/gnat/2018-arm-elf/bin/../lib/gcc/arm-eabi/7.3.1/thumb/v6-m\libgcc.a(floatsisf.o)
 .ARM.attributes
                0x0000000000000b17       0x2c d:/gnat/2018-arm-elf/bin/../lib/gcc/arm-eabi/7.3.1/thumb/v6-m\libgcc.a(floatunsisf.o)
 .ARM.attributes
                0x0000000000000b43       0x1e d:/gnat/2018-arm-elf/bin/../lib/gcc/arm-eabi/7.3.1/thumb/v6-m\libgcc.a(_clzsi2.o)
 .ARM.attributes
                0x0000000000000b61       0x1e d:/gnat/2018-arm-elf/bin/../lib/gcc/arm-eabi/7.3.1/thumb/v6-m\libgcc.a(_clzdi2.o)
 .ARM.attributes
                0x0000000000000b7f       0x2c d:/gnat/2018-arm-elf/bin/../lib/gcc/arm-eabi/7.3.1/thumb/v6-m\libgcc.a(_divdi3.o)

.gnu.attributes
 *(.gnu.attributes)

/DISCARD/
 *(.note.GNU-stack)
 *(.gnu_debuglink)
 *(.gnu.lto_*)
OUTPUT(main elf32-littlearm)
