Archive member included to satisfy reference by file (symbol)

D:\programming\ada_projects\Ada_Drivers_Library\boards\MicroBit\obj\zfp_lib_Debug\libada_drivers_library.a(cortex_m-nvic.o)
                              b__main.o (cortex_m__nvic_E)
D:\programming\ada_projects\Ada_Drivers_Library\boards\MicroBit\obj\zfp_lib_Debug\libada_drivers_library.a(microbit-ios.o)
                              main.o (microbit__ios__set)
D:\programming\ada_projects\Ada_Drivers_Library\boards\MicroBit\obj\zfp_lib_Debug\libada_drivers_library.a(nrf51-adc.o)
                              D:\programming\ada_projects\Ada_Drivers_Library\boards\MicroBit\obj\zfp_lib_Debug\libada_drivers_library.a(microbit-ios.o) (nrf51__adc__start_pin_conversion)
D:\programming\ada_projects\Ada_Drivers_Library\boards\MicroBit\obj\zfp_lib_Debug\libada_drivers_library.a(nrf51-device.o)
                              b__main.o (nrf51__device___elabs)
D:\programming\ada_projects\Ada_Drivers_Library\boards\MicroBit\obj\zfp_lib_Debug\libada_drivers_library.a(nrf51-events.o)
                              D:\programming\ada_projects\Ada_Drivers_Library\boards\MicroBit\obj\zfp_lib_Debug\libada_drivers_library.a(microbit-ios.o) (nrf51__events__enable_interrupt)
D:\programming\ada_projects\Ada_Drivers_Library\boards\MicroBit\obj\zfp_lib_Debug\libada_drivers_library.a(nrf51-gpio-tasks_and_events.o)
                              D:\programming\ada_projects\Ada_Drivers_Library\boards\MicroBit\obj\zfp_lib_Debug\libada_drivers_library.a(microbit-ios.o) (nrf51__gpio__tasks_and_events__disable)
D:\programming\ada_projects\Ada_Drivers_Library\boards\MicroBit\obj\zfp_lib_Debug\libada_drivers_library.a(nrf51-gpio.o)
                              D:\programming\ada_projects\Ada_Drivers_Library\boards\MicroBit\obj\zfp_lib_Debug\libada_drivers_library.a(microbit-ios.o) (nrf51__gpio__gpio_configurationIP)
D:\programming\ada_projects\Ada_Drivers_Library\boards\MicroBit\obj\zfp_lib_Debug\libada_drivers_library.a(nrf51-interrupts.o)
                              D:\programming\ada_projects\Ada_Drivers_Library\boards\MicroBit\obj\zfp_lib_Debug\libada_drivers_library.a(microbit-ios.o) (nrf51__interrupts__enable)
D:\programming\ada_projects\Ada_Drivers_Library\boards\MicroBit\obj\zfp_lib_Debug\libada_drivers_library.a(nrf51-ppi.o)
                              D:\programming\ada_projects\Ada_Drivers_Library\boards\MicroBit\obj\zfp_lib_Debug\libada_drivers_library.a(microbit-ios.o) (nrf51__ppi__configure)
D:\programming\ada_projects\Ada_Drivers_Library\boards\MicroBit\obj\zfp_lib_Debug\libada_drivers_library.a(nrf51-rtc.o)
                              D:\programming\ada_projects\Ada_Drivers_Library\boards\MicroBit\obj\zfp_lib_Debug\libada_drivers_library.a(nrf51-device.o) (nrf51__rtc__real_time_counterIP)
D:\programming\ada_projects\Ada_Drivers_Library\boards\MicroBit\obj\zfp_lib_Debug\libada_drivers_library.a(nrf51-tasks.o)
                              D:\programming\ada_projects\Ada_Drivers_Library\boards\MicroBit\obj\zfp_lib_Debug\libada_drivers_library.a(nrf51-adc.o) (nrf51__tasks__trigger)
D:\programming\ada_projects\Ada_Drivers_Library\boards\MicroBit\obj\zfp_lib_Debug\libada_drivers_library.a(nrf51-timers.o)
                              D:\programming\ada_projects\Ada_Drivers_Library\boards\MicroBit\obj\zfp_lib_Debug\libada_drivers_library.a(nrf51-device.o) (nrf51__timers__timerIP)
D:\programming\ada_projects\Ada_Drivers_Library\boards\MicroBit\obj\zfp_lib_Debug\libada_drivers_library.a(nrf51-twi.o)
                              D:\programming\ada_projects\Ada_Drivers_Library\boards\MicroBit\obj\zfp_lib_Debug\libada_drivers_library.a(nrf51-device.o) (nrf51__twi__twi_masterIP)
D:\programming\ada_projects\Ada_Drivers_Library\boards\MicroBit\obj\zfp_lib_Debug\libada_drivers_library.a(nrf51_svd-gpio.o)
                              D:\programming\ada_projects\Ada_Drivers_Library\boards\MicroBit\obj\zfp_lib_Debug\libada_drivers_library.a(nrf51-gpio.o) (nrf51_svd__gpio__pin_cnf_pull_fieldRP)
D:\programming\ada_projects\Ada_Drivers_Library\boards\MicroBit\obj\zfp_lib_Debug\libada_drivers_library.a(nrf51_svd-twi.o)
                              D:\programming\ada_projects\Ada_Drivers_Library\boards\MicroBit\obj\zfp_lib_Debug\libada_drivers_library.a(nrf51-twi.o) (nrf51_svd__twi__errorsrc_registerIP)
D:\programming\ada_projects\Ada_Drivers_Library\boards\MicroBit\obj\zfp_lib_Debug\libada_drivers_library.a(hal-gpio.o)
                              D:\programming\ada_projects\Ada_Drivers_Library\boards\MicroBit\obj\zfp_lib_Debug\libada_drivers_library.a(nrf51-gpio.o) (hal__gpio__gpio_pointT)
D:\programming\ada_projects\Ada_Drivers_Library\boards\MicroBit\obj\zfp_lib_Debug\libada_drivers_library.a(hal-i2c.o)
                              D:\programming\ada_projects\Ada_Drivers_Library\boards\MicroBit\obj\zfp_lib_Debug\libada_drivers_library.a(nrf51-twi.o) (hal__i2c__i2c_portT)
D:\gnat\2018-arm-elf\arm-eabi\lib\gnat\ravenscar-sfp-microbit\adalib\libgnarl.a(a-reatim.o)
                              main.o (ada__real_time__Oadd)
D:\gnat\2018-arm-elf\arm-eabi\lib\gnat\ravenscar-sfp-microbit\adalib\libgnarl.a(a-retide.o)
                              main.o (ada__real_time__delays__delay_until)
D:\gnat\2018-arm-elf\arm-eabi\lib\gnat\ravenscar-sfp-microbit\adalib\libgnarl.a(s-bbbosu.o)
                              D:\gnat\2018-arm-elf\arm-eabi\lib\gnat\ravenscar-sfp-microbit\adalib\libgnarl.a(a-reatim.o) (system__bb__board_support__time__read_clock)
D:\gnat\2018-arm-elf\arm-eabi\lib\gnat\ravenscar-sfp-microbit\adalib\libgnarl.a(s-bbcppr.o)
                              D:\gnat\2018-arm-elf\arm-eabi\lib\gnat\ravenscar-sfp-microbit\adalib\libgnarl.a(s-bbbosu.o) (system__bb__cpu_primitives__install_trap_handler)
D:\gnat\2018-arm-elf\arm-eabi\lib\gnat\ravenscar-sfp-microbit\adalib\libgnarl.a(s-bbinte.o)
                              D:\gnat\2018-arm-elf\arm-eabi\lib\gnat\ravenscar-sfp-microbit\adalib\libgnarl.a(s-bbbosu.o) (system__bb__interrupts__interrupt_wrapper)
D:\gnat\2018-arm-elf\arm-eabi\lib\gnat\ravenscar-sfp-microbit\adalib\libgnarl.a(s-bbthqu.o)
                              D:\gnat\2018-arm-elf\arm-eabi\lib\gnat\ravenscar-sfp-microbit\adalib\libgnarl.a(s-bbinte.o) (system__bb__threads__queues__change_priority)
D:\gnat\2018-arm-elf\arm-eabi\lib\gnat\ravenscar-sfp-microbit\adalib\libgnarl.a(s-bbtime.o)
                              D:\gnat\2018-arm-elf\arm-eabi\lib\gnat\ravenscar-sfp-microbit\adalib\libgnarl.a(a-retide.o) (system__bb__time__delay_until)
D:\gnat\2018-arm-elf\arm-eabi\lib\gnat\ravenscar-sfp-microbit\adalib\libgnarl.a(s-bcpcst.o)
                              D:\gnat\2018-arm-elf\arm-eabi\lib\gnat\ravenscar-sfp-microbit\adalib\libgnarl.a(s-bbcppr.o) (system__bb__cpu_primitives__context_switch_trigger__initialize_context_switch)
D:\gnat\2018-arm-elf\arm-eabi\lib\gnat\ravenscar-sfp-microbit\adalib\libgnarl.a(s-taskin.o)
                              D:\gnat\2018-arm-elf\arm-eabi\lib\gnat\ravenscar-sfp-microbit\adalib\libgnarl.a(a-reatim.o) (system__tasking__initialize)
D:\gnat\2018-arm-elf\arm-eabi\lib\gnat\ravenscar-sfp-microbit\adalib\libgnarl.a(s-bbprot.o)
                              D:\gnat\2018-arm-elf\arm-eabi\lib\gnat\ravenscar-sfp-microbit\adalib\libgnarl.a(s-bbtime.o) (system__bb__protection__leave_kernel)
D:\gnat\2018-arm-elf\arm-eabi\lib\gnat\ravenscar-sfp-microbit\adalib\libgnarl.a(s-bbthre.o)
                              D:\gnat\2018-arm-elf\arm-eabi\lib\gnat\ravenscar-sfp-microbit\adalib\libgnarl.a(s-taskin.o) (system__bb__threads__initialize)
D:\gnat\2018-arm-elf\arm-eabi\lib\gnat\ravenscar-sfp-microbit\adalib\libgnarl.a(s-bbtiev.o)
                              D:\gnat\2018-arm-elf\arm-eabi\lib\gnat\ravenscar-sfp-microbit\adalib\libgnarl.a(s-bbtime.o) (system__bb__timing_events__execute_expired_timing_events)
D:\gnat\2018-arm-elf\arm-eabi\lib\gnat\ravenscar-sfp-microbit\adalib\libgnarl.a(s-taprop.o)
                              D:\gnat\2018-arm-elf\arm-eabi\lib\gnat\ravenscar-sfp-microbit\adalib\libgnarl.a(s-taskin.o) (system__task_primitives__operations(int, double, long,...))
D:\gnat\2018-arm-elf\arm-eabi\lib\gnat\ravenscar-sfp-microbit\adalib\libgnarl.a(s-tasdeb.o)
                              D:\gnat\2018-arm-elf\arm-eabi\lib\gnat\ravenscar-sfp-microbit\adalib\libgnarl.a(s-taskin.o) (system__tasking__debug__last_task)
D:\gnat\2018-arm-elf\arm-eabi\lib\gnat\ravenscar-sfp-microbit\adalib\libgnat.a(a-elchha.o)
                              D:\programming\ada_projects\Ada_Drivers_Library\boards\MicroBit\obj\zfp_lib_Debug\libada_drivers_library.a(cortex_m-nvic.o) (__gnat_last_chance_handler)
D:\gnat\2018-arm-elf\arm-eabi\lib\gnat\ravenscar-sfp-microbit\adalib\libgnat.a(a-except.o)
                              D:\programming\ada_projects\Ada_Drivers_Library\boards\MicroBit\obj\zfp_lib_Debug\libada_drivers_library.a(microbit-ios.o) (ada__exceptions__empty_c_string___UNC)
D:\gnat\2018-arm-elf\arm-eabi\lib\gnat\ravenscar-sfp-microbit\adalib\libgnat.a(g-io.o)
                              D:\gnat\2018-arm-elf\arm-eabi\lib\gnat\ravenscar-sfp-microbit\adalib\libgnat.a(a-elchha.o) (gnat__io__put__2)
D:\gnat\2018-arm-elf\arm-eabi\lib\gnat\ravenscar-sfp-microbit\adalib\libgnat.a(s-assert.o)
                              D:\programming\ada_projects\Ada_Drivers_Library\boards\MicroBit\obj\zfp_lib_Debug\libada_drivers_library.a(microbit-ios.o) (system__assertions__raise_assert_failure)
D:\gnat\2018-arm-elf\arm-eabi\lib\gnat\ravenscar-sfp-microbit\adalib\libgnat.a(s-macres.o)
                              D:\gnat\2018-arm-elf\arm-eabi\lib\gnat\ravenscar-sfp-microbit\adalib\libgnat.a(a-elchha.o) (system__machine_reset__stop)
D:\gnat\2018-arm-elf\arm-eabi\lib\gnat\ravenscar-sfp-microbit\adalib\libgnat.a(s-memcop.o)
                              D:\programming\ada_projects\Ada_Drivers_Library\boards\MicroBit\obj\zfp_lib_Debug\libada_drivers_library.a(microbit-ios.o) (memcpy)
D:\gnat\2018-arm-elf\arm-eabi\lib\gnat\ravenscar-sfp-microbit\adalib\libgnat.a(s-memset.o)
                              D:\gnat\2018-arm-elf\arm-eabi\lib\gnat\ravenscar-sfp-microbit\adalib\libgnarl.a(s-bbcppr.o) (memset)
D:\gnat\2018-arm-elf\arm-eabi\lib\gnat\ravenscar-sfp-microbit\adalib\libgnat.a(s-parame.o)
                              D:\gnat\2018-arm-elf\arm-eabi\lib\gnat\ravenscar-sfp-microbit\adalib\libgnarl.a(s-taskin.o) (system__parameters__adjust_storage_size)
D:\gnat\2018-arm-elf\arm-eabi\lib\gnat\ravenscar-sfp-microbit\adalib\libgnat.a(s-secsta.o)
                              b__main.o (system__secondary_stack__ss_stackIP)
D:\gnat\2018-arm-elf\arm-eabi\lib\gnat\ravenscar-sfp-microbit\adalib\libgnat.a(s-textio.o)
                              D:\gnat\2018-arm-elf\arm-eabi\lib\gnat\ravenscar-sfp-microbit\adalib\libgnat.a(g-io.o) (system__text_io__is_tx_ready)
D:\gnat\2018-arm-elf\arm-eabi\lib\gnat\ravenscar-sfp-microbit\adalib\libgnat.a(start-rom.o)
                              (_start_rom)
D:\gnat\2018-arm-elf\arm-eabi\lib\gnat\ravenscar-sfp-microbit\adalib\libgnat.a(handler.o)
                              D:\gnat\2018-arm-elf\arm-eabi\lib\gnat\ravenscar-sfp-microbit\adalib\libgnat.a(start-rom.o) (__vectors)
D:\gnat\2018-arm-elf\arm-eabi\lib\gnat\ravenscar-sfp-microbit\adalib\libgnat.a(breakpoint_handler-cortexm.o)
                              D:\gnat\2018-arm-elf\arm-eabi\lib\gnat\ravenscar-sfp-microbit\adalib\libgnat.a(handler.o) (__gnat_bkpt_trap)
d:/gnat/2018-arm-elf/bin/../lib/gcc/arm-eabi/7.3.1/thumb/v6-m\libgcc.a(_divsi3.o)
                              D:\gnat\2018-arm-elf\arm-eabi\lib\gnat\ravenscar-sfp-microbit\adalib\libgnat.a(g-io.o) (__aeabi_idiv)
d:/gnat/2018-arm-elf/bin/../lib/gcc/arm-eabi/7.3.1/thumb/v6-m\libgcc.a(_dvmd_tls.o)
                              d:/gnat/2018-arm-elf/bin/../lib/gcc/arm-eabi/7.3.1/thumb/v6-m\libgcc.a(_divsi3.o) (__aeabi_idiv0)
d:/gnat/2018-arm-elf/bin/../lib/gcc/arm-eabi/7.3.1/thumb/v6-m\libgcc.a(_arm_cmpsf2.o)
                              D:\programming\ada_projects\Ada_Drivers_Library\boards\MicroBit\obj\zfp_lib_Debug\libada_drivers_library.a(microbit-ios.o) (__aeabi_fcmple)
d:/gnat/2018-arm-elf/bin/../lib/gcc/arm-eabi/7.3.1/thumb/v6-m\libgcc.a(_aeabi_ldivmod.o)
                              D:\gnat\2018-arm-elf\arm-eabi\lib\gnat\ravenscar-sfp-microbit\adalib\libgnarl.a(a-reatim.o) (__aeabi_ldivmod)
d:/gnat/2018-arm-elf/bin/../lib/gcc/arm-eabi/7.3.1/thumb/v6-m\libgcc.a(_aeabi_uldivmod.o)
                              D:\gnat\2018-arm-elf\arm-eabi\lib\gnat\ravenscar-sfp-microbit\adalib\libgnarl.a(a-reatim.o) (__aeabi_uldivmod)
d:/gnat/2018-arm-elf/bin/../lib/gcc/arm-eabi/7.3.1/thumb/v6-m\libgcc.a(_muldi3.o)
                              D:\gnat\2018-arm-elf\arm-eabi\lib\gnat\ravenscar-sfp-microbit\adalib\libgnarl.a(a-reatim.o) (__aeabi_lmul)
d:/gnat/2018-arm-elf/bin/../lib/gcc/arm-eabi/7.3.1/thumb/v6-m\libgcc.a(_fixunssfsi.o)
                              D:\programming\ada_projects\Ada_Drivers_Library\boards\MicroBit\obj\zfp_lib_Debug\libada_drivers_library.a(microbit-ios.o) (__aeabi_f2uiz)
d:/gnat/2018-arm-elf/bin/../lib/gcc/arm-eabi/7.3.1/thumb/v6-m\libgcc.a(_udivmoddi4.o)
                              d:/gnat/2018-arm-elf/bin/../lib/gcc/arm-eabi/7.3.1/thumb/v6-m\libgcc.a(_aeabi_uldivmod.o) (__udivmoddi4)
d:/gnat/2018-arm-elf/bin/../lib/gcc/arm-eabi/7.3.1/thumb/v6-m\libgcc.a(bpabi.o)
                              d:/gnat/2018-arm-elf/bin/../lib/gcc/arm-eabi/7.3.1/thumb/v6-m\libgcc.a(_aeabi_ldivmod.o) (__gnu_ldivmod_helper)
d:/gnat/2018-arm-elf/bin/../lib/gcc/arm-eabi/7.3.1/thumb/v6-m\libgcc.a(addsf3.o)
                              D:\programming\ada_projects\Ada_Drivers_Library\boards\MicroBit\obj\zfp_lib_Debug\libada_drivers_library.a(microbit-ios.o) (__aeabi_fadd)
d:/gnat/2018-arm-elf/bin/../lib/gcc/arm-eabi/7.3.1/thumb/v6-m\libgcc.a(divsf3.o)
                              D:\programming\ada_projects\Ada_Drivers_Library\boards\MicroBit\obj\zfp_lib_Debug\libada_drivers_library.a(microbit-ios.o) (__aeabi_fdiv)
d:/gnat/2018-arm-elf/bin/../lib/gcc/arm-eabi/7.3.1/thumb/v6-m\libgcc.a(eqsf2.o)
                              d:/gnat/2018-arm-elf/bin/../lib/gcc/arm-eabi/7.3.1/thumb/v6-m\libgcc.a(_arm_cmpsf2.o) (__eqsf2)
d:/gnat/2018-arm-elf/bin/../lib/gcc/arm-eabi/7.3.1/thumb/v6-m\libgcc.a(gesf2.o)
                              d:/gnat/2018-arm-elf/bin/../lib/gcc/arm-eabi/7.3.1/thumb/v6-m\libgcc.a(_arm_cmpsf2.o) (__gesf2)
d:/gnat/2018-arm-elf/bin/../lib/gcc/arm-eabi/7.3.1/thumb/v6-m\libgcc.a(lesf2.o)
                              d:/gnat/2018-arm-elf/bin/../lib/gcc/arm-eabi/7.3.1/thumb/v6-m\libgcc.a(_arm_cmpsf2.o) (__lesf2)
d:/gnat/2018-arm-elf/bin/../lib/gcc/arm-eabi/7.3.1/thumb/v6-m\libgcc.a(mulsf3.o)
                              D:\programming\ada_projects\Ada_Drivers_Library\boards\MicroBit\obj\zfp_lib_Debug\libada_drivers_library.a(microbit-ios.o) (__aeabi_fmul)
d:/gnat/2018-arm-elf/bin/../lib/gcc/arm-eabi/7.3.1/thumb/v6-m\libgcc.a(subsf3.o)
                              D:\programming\ada_projects\Ada_Drivers_Library\boards\MicroBit\obj\zfp_lib_Debug\libada_drivers_library.a(microbit-ios.o) (__aeabi_fsub)
d:/gnat/2018-arm-elf/bin/../lib/gcc/arm-eabi/7.3.1/thumb/v6-m\libgcc.a(unordsf2.o)
                              D:\programming\ada_projects\Ada_Drivers_Library\boards\MicroBit\obj\zfp_lib_Debug\libada_drivers_library.a(microbit-ios.o) (__aeabi_fcmpun)
d:/gnat/2018-arm-elf/bin/../lib/gcc/arm-eabi/7.3.1/thumb/v6-m\libgcc.a(fixsfsi.o)
                              d:/gnat/2018-arm-elf/bin/../lib/gcc/arm-eabi/7.3.1/thumb/v6-m\libgcc.a(_fixunssfsi.o) (__aeabi_f2iz)
d:/gnat/2018-arm-elf/bin/../lib/gcc/arm-eabi/7.3.1/thumb/v6-m\libgcc.a(floatsisf.o)
                              D:\programming\ada_projects\Ada_Drivers_Library\boards\MicroBit\obj\zfp_lib_Debug\libada_drivers_library.a(microbit-ios.o) (__aeabi_i2f)
d:/gnat/2018-arm-elf/bin/../lib/gcc/arm-eabi/7.3.1/thumb/v6-m\libgcc.a(floatunsisf.o)
                              D:\programming\ada_projects\Ada_Drivers_Library\boards\MicroBit\obj\zfp_lib_Debug\libada_drivers_library.a(microbit-ios.o) (__aeabi_ui2f)
d:/gnat/2018-arm-elf/bin/../lib/gcc/arm-eabi/7.3.1/thumb/v6-m\libgcc.a(_clzsi2.o)
                              d:/gnat/2018-arm-elf/bin/../lib/gcc/arm-eabi/7.3.1/thumb/v6-m\libgcc.a(addsf3.o) (__clzsi2)
d:/gnat/2018-arm-elf/bin/../lib/gcc/arm-eabi/7.3.1/thumb/v6-m\libgcc.a(_clzdi2.o)
                              d:/gnat/2018-arm-elf/bin/../lib/gcc/arm-eabi/7.3.1/thumb/v6-m\libgcc.a(_udivmoddi4.o) (__clzdi2)
d:/gnat/2018-arm-elf/bin/../lib/gcc/arm-eabi/7.3.1/thumb/v6-m\libgcc.a(_divdi3.o)
                              d:/gnat/2018-arm-elf/bin/../lib/gcc/arm-eabi/7.3.1/thumb/v6-m\libgcc.a(bpabi.o) (__divdi3)

Memory Configuration

Name             Origin             Length             Attributes
flash            0x0000000000000000 0x0000000000040000 xr
ram              0x0000000020000000 0x0000000000004000 xrw
*default*        0x0000000000000000 0xffffffffffffffff

Linker script and memory map

LOAD main.o
LOAD b__main.o
LOAD D:\programming\ada_projects\Ada_Drivers_Library\boards\MicroBit\obj\zfp_lib_Debug\libada_drivers_library.a
LOAD D:\gnat\2018-arm-elf\arm-eabi\lib\gnat\ravenscar-sfp-microbit\adalib\libgnarl.a
LOAD D:\gnat\2018-arm-elf\arm-eabi\lib\gnat\ravenscar-sfp-microbit\adalib\libgnat.a
START GROUP
LOAD d:/gnat/2018-arm-elf/bin/../lib/gcc/arm-eabi/7.3.1/thumb/v6-m\libgcc.a
END GROUP
                0x0000000000000000                __DYNAMIC = 0x0
                0x0000000000000400                _DEFAULT_STACK_SIZE = 0x400

.text           0x0000000000000000     0x92b0
 *(.vectors)
 .vectors       0x0000000000000000       0xa8 D:\gnat\2018-arm-elf\arm-eabi\lib\gnat\ravenscar-sfp-microbit\adalib\libgnat.a(handler.o)
                0x0000000000000000                __vectors
 *(.text .text.* .gnu.linkonce.t*)
 .text          0x00000000000000a8        0x0 main.o
 .text._ada_main
                0x00000000000000a8       0x64 main.o
                0x00000000000000a8                _ada_main
 .text          0x000000000000010c        0x0 b__main.o
 .text.ada_main__Tsec_default_sized_stacksBIP
                0x000000000000010c       0x48 b__main.o
                0x000000000000010c                ada_main__Tsec_default_sized_stacksBIP
 .text.adainit  0x0000000000000154      0x148 b__main.o
                0x0000000000000154                adainit
 .text.main     0x000000000000029c       0x1c b__main.o
                0x000000000000029c                main
 .text.ada_main___elabb
                0x00000000000002b8       0x20 b__main.o
                0x00000000000002b8                ada_main___elabb
 .text          0x00000000000002d8        0x0 D:\programming\ada_projects\Ada_Drivers_Library\boards\MicroBit\obj\zfp_lib_Debug\libada_drivers_library.a(cortex_m-nvic.o)
 .text.cortex_m__nvic__set_priority
                0x00000000000002d8       0xbc D:\programming\ada_projects\Ada_Drivers_Library\boards\MicroBit\obj\zfp_lib_Debug\libada_drivers_library.a(cortex_m-nvic.o)
                0x00000000000002d8                cortex_m__nvic__set_priority
 .text.cortex_m__nvic__set_priority__as_arrayIP.4241
                0x0000000000000394       0x68 D:\programming\ada_projects\Ada_Drivers_Library\boards\MicroBit\obj\zfp_lib_Debug\libada_drivers_library.a(cortex_m-nvic.o)
 .text.cortex_m__nvic__enable
                0x00000000000003fc       0x20 D:\programming\ada_projects\Ada_Drivers_Library\boards\MicroBit\obj\zfp_lib_Debug\libada_drivers_library.a(cortex_m-nvic.o)
                0x00000000000003fc                cortex_m__nvic__enable
 .text.cortex_m__nvic__disable
                0x000000000000041c       0x20 D:\programming\ada_projects\Ada_Drivers_Library\boards\MicroBit\obj\zfp_lib_Debug\libada_drivers_library.a(cortex_m-nvic.o)
                0x000000000000041c                cortex_m__nvic__disable
 .text.cortex_m__nvic__enabled
                0x000000000000043c       0x2c D:\programming\ada_projects\Ada_Drivers_Library\boards\MicroBit\obj\zfp_lib_Debug\libada_drivers_library.a(cortex_m-nvic.o)
                0x000000000000043c                cortex_m__nvic__enabled
 .text.cortex_m__nvic__pending
                0x0000000000000468       0x30 D:\programming\ada_projects\Ada_Drivers_Library\boards\MicroBit\obj\zfp_lib_Debug\libada_drivers_library.a(cortex_m-nvic.o)
                0x0000000000000468                cortex_m__nvic__pending
 .text.cortex_m__nvic__set_pending
                0x0000000000000498       0x20 D:\programming\ada_projects\Ada_Drivers_Library\boards\MicroBit\obj\zfp_lib_Debug\libada_drivers_library.a(cortex_m-nvic.o)
                0x0000000000000498                cortex_m__nvic__set_pending
 .text.cortex_m__nvic__clear_pending
                0x00000000000004b8       0x20 D:\programming\ada_projects\Ada_Drivers_Library\boards\MicroBit\obj\zfp_lib_Debug\libada_drivers_library.a(cortex_m-nvic.o)
                0x00000000000004b8                cortex_m__nvic__clear_pending
 .text          0x00000000000004d8        0x0 D:\programming\ada_projects\Ada_Drivers_Library\boards\MicroBit\obj\zfp_lib_Debug\libada_drivers_library.a(microbit-ios.o)
 .text.microbit__ios__supports
                0x00000000000004d8       0xe8 D:\programming\ada_projects\Ada_Drivers_Library\boards\MicroBit\obj\zfp_lib_Debug\libada_drivers_library.a(microbit-ios.o)
                0x00000000000004d8                microbit__ios__supports
 .text.microbit__ios__pwm_statusIP
                0x00000000000005c0       0x1c D:\programming\ada_projects\Ada_Drivers_Library\boards\MicroBit\obj\zfp_lib_Debug\libada_drivers_library.a(microbit-ios.o)
                0x00000000000005c0                microbit__ios__pwm_statusIP
 .text.microbit__ios__TpwmsBIP
                0x00000000000005dc       0x48 D:\programming\ada_projects\Ada_Drivers_Library\boards\MicroBit\obj\zfp_lib_Debug\libada_drivers_library.a(microbit-ios.o)
                0x00000000000005dc                microbit__ios__TpwmsBIP
 .text.microbit__ios__to_compare_value
                0x0000000000000624      0x1a4 D:\programming\ada_projects\Ada_Drivers_Library\boards\MicroBit\obj\zfp_lib_Debug\libada_drivers_library.a(microbit-ios.o)
 .text.microbit__ios__allocate_pwm
                0x00000000000007c8      0x104 D:\programming\ada_projects\Ada_Drivers_Library\boards\MicroBit\obj\zfp_lib_Debug\libada_drivers_library.a(microbit-ios.o)
 .text.microbit__ios__deallocate_pwm___postconditions.4843
                0x00000000000008cc       0x38 D:\programming\ada_projects\Ada_Drivers_Library\boards\MicroBit\obj\zfp_lib_Debug\libada_drivers_library.a(microbit-ios.o)
 .text.microbit__ios__deallocate_pwm
                0x0000000000000904       0xe8 D:\programming\ada_projects\Ada_Drivers_Library\boards\MicroBit\obj\zfp_lib_Debug\libada_drivers_library.a(microbit-ios.o)
 .text.microbit__ios__configure_ppi
                0x00000000000009ec       0xa8 D:\programming\ada_projects\Ada_Drivers_Library\boards\MicroBit\obj\zfp_lib_Debug\libada_drivers_library.a(microbit-ios.o)
 .text.microbit__ios__configure_gpiote
                0x0000000000000a94       0x4c D:\programming\ada_projects\Ada_Drivers_Library\boards\MicroBit\obj\zfp_lib_Debug\libada_drivers_library.a(microbit-ios.o)
 .text.microbit__ios__pwm_timer_handler
                0x0000000000000ae0       0x68 D:\programming\ada_projects\Ada_Drivers_Library\boards\MicroBit\obj\zfp_lib_Debug\libada_drivers_library.a(microbit-ios.o)
 .text.microbit__ios__init_pwm_timer
                0x0000000000000b48       0xe4 D:\programming\ada_projects\Ada_Drivers_Library\boards\MicroBit\obj\zfp_lib_Debug\libada_drivers_library.a(microbit-ios.o)
 .text.microbit__ios__set
                0x0000000000000c2c      0x120 D:\programming\ada_projects\Ada_Drivers_Library\boards\MicroBit\obj\zfp_lib_Debug\libada_drivers_library.a(microbit-ios.o)
                0x0000000000000c2c                microbit__ios__set
 .text.microbit__ios__set__2
                0x0000000000000d4c      0x100 D:\programming\ada_projects\Ada_Drivers_Library\boards\MicroBit\obj\zfp_lib_Debug\libada_drivers_library.a(microbit-ios.o)
                0x0000000000000d4c                microbit__ios__set__2
 .text.microbit__ios__set_analog_period_us
                0x0000000000000e4c       0x64 D:\programming\ada_projects\Ada_Drivers_Library\boards\MicroBit\obj\zfp_lib_Debug\libada_drivers_library.a(microbit-ios.o)
                0x0000000000000e4c                microbit__ios__set_analog_period_us
 .text.microbit__ios__write
                0x0000000000000eb0      0x364 D:\programming\ada_projects\Ada_Drivers_Library\boards\MicroBit\obj\zfp_lib_Debug\libada_drivers_library.a(microbit-ios.o)
                0x0000000000000eb0                microbit__ios__write
 .text.microbit__ios__analog__2
                0x0000000000001214      0x100 D:\programming\ada_projects\Ada_Drivers_Library\boards\MicroBit\obj\zfp_lib_Debug\libada_drivers_library.a(microbit-ios.o)
                0x0000000000001214                microbit__ios__analog__2
 .text.microbit__ios__has_pwm
                0x0000000000001314       0x2c D:\programming\ada_projects\Ada_Drivers_Library\boards\MicroBit\obj\zfp_lib_Debug\libada_drivers_library.a(microbit-ios.o)
 .text.microbit__ios___elabb
                0x0000000000001340      0x1dc D:\programming\ada_projects\Ada_Drivers_Library\boards\MicroBit\obj\zfp_lib_Debug\libada_drivers_library.a(microbit-ios.o)
                0x0000000000001340                microbit__ios___elabb
 .text          0x000000000000151c        0x0 D:\programming\ada_projects\Ada_Drivers_Library\boards\MicroBit\obj\zfp_lib_Debug\libada_drivers_library.a(nrf51-adc.o)
 .text.nrf51__adc__set_resolution
                0x000000000000151c       0x84 D:\programming\ada_projects\Ada_Drivers_Library\boards\MicroBit\obj\zfp_lib_Debug\libada_drivers_library.a(nrf51-adc.o)
 .text.nrf51__adc__set_reference
                0x00000000000015a0      0x15c D:\programming\ada_projects\Ada_Drivers_Library\boards\MicroBit\obj\zfp_lib_Debug\libada_drivers_library.a(nrf51-adc.o)
 .text.nrf51__adc__start_pin_conversion
                0x00000000000016fc      0x25c D:\programming\ada_projects\Ada_Drivers_Library\boards\MicroBit\obj\zfp_lib_Debug\libada_drivers_library.a(nrf51-adc.o)
                0x00000000000016fc                nrf51__adc__start_pin_conversion
 .text.nrf51__adc__start_vdd_conversion
                0x0000000000001958       0xf4 D:\programming\ada_projects\Ada_Drivers_Library\boards\MicroBit\obj\zfp_lib_Debug\libada_drivers_library.a(nrf51-adc.o)
                0x0000000000001958                nrf51__adc__start_vdd_conversion
 .text.nrf51__adc__busy
                0x0000000000001a4c       0x2c D:\programming\ada_projects\Ada_Drivers_Library\boards\MicroBit\obj\zfp_lib_Debug\libada_drivers_library.a(nrf51-adc.o)
                0x0000000000001a4c                nrf51__adc__busy
 .text.nrf51__adc__wait_for_result
                0x0000000000001a78       0x64 D:\programming\ada_projects\Ada_Drivers_Library\boards\MicroBit\obj\zfp_lib_Debug\libada_drivers_library.a(nrf51-adc.o)
                0x0000000000001a78                nrf51__adc__wait_for_result
 .text          0x0000000000001adc        0x0 D:\programming\ada_projects\Ada_Drivers_Library\boards\MicroBit\obj\zfp_lib_Debug\libada_drivers_library.a(nrf51-device.o)
 .text.nrf51__device___elabs
                0x0000000000001adc      0x2a8 D:\programming\ada_projects\Ada_Drivers_Library\boards\MicroBit\obj\zfp_lib_Debug\libada_drivers_library.a(nrf51-device.o)
                0x0000000000001adc                nrf51__device___elabs
 .text          0x0000000000001d84        0x0 D:\programming\ada_projects\Ada_Drivers_Library\boards\MicroBit\obj\zfp_lib_Debug\libada_drivers_library.a(nrf51-events.o)
 .text.nrf51__events__triggered
                0x0000000000001d84       0x38 D:\programming\ada_projects\Ada_Drivers_Library\boards\MicroBit\obj\zfp_lib_Debug\libada_drivers_library.a(nrf51-events.o)
                0x0000000000001d84                nrf51__events__triggered
 .text.nrf51__events__enable_interrupt
                0x0000000000001dbc       0x7c D:\programming\ada_projects\Ada_Drivers_Library\boards\MicroBit\obj\zfp_lib_Debug\libada_drivers_library.a(nrf51-events.o)
                0x0000000000001dbc                nrf51__events__enable_interrupt
 .text.nrf51__events__disable_interrupt
                0x0000000000001e38       0x7c D:\programming\ada_projects\Ada_Drivers_Library\boards\MicroBit\obj\zfp_lib_Debug\libada_drivers_library.a(nrf51-events.o)
                0x0000000000001e38                nrf51__events__disable_interrupt
 .text.nrf51__events__clear
                0x0000000000001eb4       0x30 D:\programming\ada_projects\Ada_Drivers_Library\boards\MicroBit\obj\zfp_lib_Debug\libada_drivers_library.a(nrf51-events.o)
                0x0000000000001eb4                nrf51__events__clear
 .text.nrf51__events__get_address
                0x0000000000001ee4       0x14 D:\programming\ada_projects\Ada_Drivers_Library\boards\MicroBit\obj\zfp_lib_Debug\libada_drivers_library.a(nrf51-events.o)
                0x0000000000001ee4                nrf51__events__get_address
 .text.nrf51__events__get_address__2
                0x0000000000001ef8       0x14 D:\programming\ada_projects\Ada_Drivers_Library\boards\MicroBit\obj\zfp_lib_Debug\libada_drivers_library.a(nrf51-events.o)
                0x0000000000001ef8                nrf51__events__get_address__2
 .text          0x0000000000001f0c        0x0 D:\programming\ada_projects\Ada_Drivers_Library\boards\MicroBit\obj\zfp_lib_Debug\libada_drivers_library.a(nrf51-gpio-tasks_and_events.o)
 .text.nrf51__gpio__tasks_and_events__disable
                0x0000000000001f0c       0x44 D:\programming\ada_projects\Ada_Drivers_Library\boards\MicroBit\obj\zfp_lib_Debug\libada_drivers_library.a(nrf51-gpio-tasks_and_events.o)
                0x0000000000001f0c                nrf51__gpio__tasks_and_events__disable
 .text.nrf51__gpio__tasks_and_events__enable_event
                0x0000000000001f50      0x118 D:\programming\ada_projects\Ada_Drivers_Library\boards\MicroBit\obj\zfp_lib_Debug\libada_drivers_library.a(nrf51-gpio-tasks_and_events.o)
                0x0000000000001f50                nrf51__gpio__tasks_and_events__enable_event
 .text.nrf51__gpio__tasks_and_events__enable_task
                0x0000000000002068      0x17c D:\programming\ada_projects\Ada_Drivers_Library\boards\MicroBit\obj\zfp_lib_Debug\libada_drivers_library.a(nrf51-gpio-tasks_and_events.o)
                0x0000000000002068                nrf51__gpio__tasks_and_events__enable_task
 .text.nrf51__gpio__tasks_and_events__out_task
                0x00000000000021e4       0x28 D:\programming\ada_projects\Ada_Drivers_Library\boards\MicroBit\obj\zfp_lib_Debug\libada_drivers_library.a(nrf51-gpio-tasks_and_events.o)
                0x00000000000021e4                nrf51__gpio__tasks_and_events__out_task
 .text.nrf51__gpio__tasks_and_events__in_event
                0x000000000000220c       0x2c D:\programming\ada_projects\Ada_Drivers_Library\boards\MicroBit\obj\zfp_lib_Debug\libada_drivers_library.a(nrf51-gpio-tasks_and_events.o)
                0x000000000000220c                nrf51__gpio__tasks_and_events__in_event
 .text          0x0000000000002238        0x0 D:\programming\ada_projects\Ada_Drivers_Library\boards\MicroBit\obj\zfp_lib_Debug\libada_drivers_library.a(nrf51-gpio.o)
 .text.nrf51__gpio__gpio_configurationIP
                0x0000000000002238       0x20 D:\programming\ada_projects\Ada_Drivers_Library\boards\MicroBit\obj\zfp_lib_Debug\libada_drivers_library.a(nrf51-gpio.o)
                0x0000000000002238                nrf51__gpio__gpio_configurationIP
 .text.nrf51__gpio__gpio_pointIP
                0x0000000000002258       0x28 D:\programming\ada_projects\Ada_Drivers_Library\boards\MicroBit\obj\zfp_lib_Debug\libada_drivers_library.a(nrf51-gpio.o)
                0x0000000000002258                nrf51__gpio__gpio_pointIP
 .text.nrf51__gpio___size
                0x0000000000002280       0x18 D:\programming\ada_projects\Ada_Drivers_Library\boards\MicroBit\obj\zfp_lib_Debug\libada_drivers_library.a(nrf51-gpio.o)
                0x0000000000002280                nrf51__gpio___size
 .text.nrf51__gpio__Oeq
                0x0000000000002298       0x24 D:\programming\ada_projects\Ada_Drivers_Library\boards\MicroBit\obj\zfp_lib_Debug\libada_drivers_library.a(nrf51-gpio.o)
                0x0000000000002298                nrf51__gpio__Oeq
 .text.nrf51__gpio___assign
                0x00000000000022bc       0x20 D:\programming\ada_projects\Ada_Drivers_Library\boards\MicroBit\obj\zfp_lib_Debug\libada_drivers_library.a(nrf51-gpio.o)
                0x00000000000022bc                nrf51__gpio___assign
 .text.nrf51__gpio__support
                0x00000000000022dc       0x30 D:\programming\ada_projects\Ada_Drivers_Library\boards\MicroBit\obj\zfp_lib_Debug\libada_drivers_library.a(nrf51-gpio.o)
                0x00000000000022dc                nrf51__gpio__support
 .text.nrf51__gpio__mode
                0x000000000000230c       0x74 D:\programming\ada_projects\Ada_Drivers_Library\boards\MicroBit\obj\zfp_lib_Debug\libada_drivers_library.a(nrf51-gpio.o)
                0x000000000000230c                nrf51__gpio__mode
 .text.nrf51__gpio__set_mode
                0x0000000000002380      0x138 D:\programming\ada_projects\Ada_Drivers_Library\boards\MicroBit\obj\zfp_lib_Debug\libada_drivers_library.a(nrf51-gpio.o)
                0x0000000000002380                nrf51__gpio__set_mode
 .text.nrf51__gpio__set
                0x00000000000024b8       0x3c D:\programming\ada_projects\Ada_Drivers_Library\boards\MicroBit\obj\zfp_lib_Debug\libada_drivers_library.a(nrf51-gpio.o)
                0x00000000000024b8                nrf51__gpio__set
 .text.nrf51__gpio__pull_resistor
                0x00000000000024f4       0x78 D:\programming\ada_projects\Ada_Drivers_Library\boards\MicroBit\obj\zfp_lib_Debug\libada_drivers_library.a(nrf51-gpio.o)
                0x00000000000024f4                nrf51__gpio__pull_resistor
 .text.nrf51__gpio__set_pull_resistor
                0x000000000000256c       0xec D:\programming\ada_projects\Ada_Drivers_Library\boards\MicroBit\obj\zfp_lib_Debug\libada_drivers_library.a(nrf51-gpio.o)
                0x000000000000256c                nrf51__gpio__set_pull_resistor
 .text.nrf51__gpio__set__2
                0x0000000000002658       0x64 D:\programming\ada_projects\Ada_Drivers_Library\boards\MicroBit\obj\zfp_lib_Debug\libada_drivers_library.a(nrf51-gpio.o)
                0x0000000000002658                nrf51__gpio__set__2
 .text.nrf51__gpio__clear
                0x00000000000026bc       0x64 D:\programming\ada_projects\Ada_Drivers_Library\boards\MicroBit\obj\zfp_lib_Debug\libada_drivers_library.a(nrf51-gpio.o)
                0x00000000000026bc                nrf51__gpio__clear
 .text.nrf51__gpio__toggle
                0x0000000000002720       0x54 D:\programming\ada_projects\Ada_Drivers_Library\boards\MicroBit\obj\zfp_lib_Debug\libada_drivers_library.a(nrf51-gpio.o)
                0x0000000000002720                nrf51__gpio__toggle
 .text.nrf51__gpio__configure_io
                0x0000000000002774      0x2a4 D:\programming\ada_projects\Ada_Drivers_Library\boards\MicroBit\obj\zfp_lib_Debug\libada_drivers_library.a(nrf51-gpio.o)
                0x0000000000002774                nrf51__gpio__configure_io
 .text.nrf51__gpio___elabb
                0x0000000000002a18       0x3c D:\programming\ada_projects\Ada_Drivers_Library\boards\MicroBit\obj\zfp_lib_Debug\libada_drivers_library.a(nrf51-gpio.o)
                0x0000000000002a18                nrf51__gpio___elabb
 .text          0x0000000000002a54        0x0 D:\programming\ada_projects\Ada_Drivers_Library\boards\MicroBit\obj\zfp_lib_Debug\libada_drivers_library.a(nrf51-interrupts.o)
 .text.nrf51__interrupts__set_priority
                0x0000000000002a54       0x28 D:\programming\ada_projects\Ada_Drivers_Library\boards\MicroBit\obj\zfp_lib_Debug\libada_drivers_library.a(nrf51-interrupts.o)
                0x0000000000002a54                nrf51__interrupts__set_priority
 .text.nrf51__interrupts__enable
                0x0000000000002a7c       0x1c D:\programming\ada_projects\Ada_Drivers_Library\boards\MicroBit\obj\zfp_lib_Debug\libada_drivers_library.a(nrf51-interrupts.o)
                0x0000000000002a7c                nrf51__interrupts__enable
 .text.nrf51__interrupts__disable
                0x0000000000002a98       0x1c D:\programming\ada_projects\Ada_Drivers_Library\boards\MicroBit\obj\zfp_lib_Debug\libada_drivers_library.a(nrf51-interrupts.o)
                0x0000000000002a98                nrf51__interrupts__disable
 .text.nrf51__interrupts__pending
                0x0000000000002ab4       0x24 D:\programming\ada_projects\Ada_Drivers_Library\boards\MicroBit\obj\zfp_lib_Debug\libada_drivers_library.a(nrf51-interrupts.o)
                0x0000000000002ab4                nrf51__interrupts__pending
 .text.nrf51__interrupts__register
                0x0000000000002ad8       0x3c D:\programming\ada_projects\Ada_Drivers_Library\boards\MicroBit\obj\zfp_lib_Debug\libada_drivers_library.a(nrf51-interrupts.o)
                0x0000000000002ad8                nrf51__interrupts__register
 .text.__gnat_irq_trap
                0x0000000000002b14       0x6c D:\programming\ada_projects\Ada_Drivers_Library\boards\MicroBit\obj\zfp_lib_Debug\libada_drivers_library.a(nrf51-interrupts.o)
                0x0000000000002b14                __gnat_irq_trap
 .text          0x0000000000002b80        0x0 D:\programming\ada_projects\Ada_Drivers_Library\boards\MicroBit\obj\zfp_lib_Debug\libada_drivers_library.a(nrf51-ppi.o)
 .text.nrf51__ppi__configure
                0x0000000000002b80       0x6c D:\programming\ada_projects\Ada_Drivers_Library\boards\MicroBit\obj\zfp_lib_Debug\libada_drivers_library.a(nrf51-ppi.o)
                0x0000000000002b80                nrf51__ppi__configure
 .text.nrf51__ppi__enable_channel
                0x0000000000002bec       0x70 D:\programming\ada_projects\Ada_Drivers_Library\boards\MicroBit\obj\zfp_lib_Debug\libada_drivers_library.a(nrf51-ppi.o)
                0x0000000000002bec                nrf51__ppi__enable_channel
 .text.nrf51__ppi__disable_channel
                0x0000000000002c5c       0x70 D:\programming\ada_projects\Ada_Drivers_Library\boards\MicroBit\obj\zfp_lib_Debug\libada_drivers_library.a(nrf51-ppi.o)
                0x0000000000002c5c                nrf51__ppi__disable_channel
 .text.nrf51__ppi__add_to_group
                0x0000000000002ccc       0x94 D:\programming\ada_projects\Ada_Drivers_Library\boards\MicroBit\obj\zfp_lib_Debug\libada_drivers_library.a(nrf51-ppi.o)
                0x0000000000002ccc                nrf51__ppi__add_to_group
 .text.nrf51__ppi__remove_from_group
                0x0000000000002d60       0x98 D:\programming\ada_projects\Ada_Drivers_Library\boards\MicroBit\obj\zfp_lib_Debug\libada_drivers_library.a(nrf51-ppi.o)
                0x0000000000002d60                nrf51__ppi__remove_from_group
 .text.nrf51__ppi__enable_group
                0x0000000000002df8       0x30 D:\programming\ada_projects\Ada_Drivers_Library\boards\MicroBit\obj\zfp_lib_Debug\libada_drivers_library.a(nrf51-ppi.o)
                0x0000000000002df8                nrf51__ppi__enable_group
 .text.nrf51__ppi__disable_group
                0x0000000000002e28       0x34 D:\programming\ada_projects\Ada_Drivers_Library\boards\MicroBit\obj\zfp_lib_Debug\libada_drivers_library.a(nrf51-ppi.o)
                0x0000000000002e28                nrf51__ppi__disable_group
 .text          0x0000000000002e5c        0x0 D:\programming\ada_projects\Ada_Drivers_Library\boards\MicroBit\obj\zfp_lib_Debug\libada_drivers_library.a(nrf51-rtc.o)
 .text.nrf51__rtc__real_time_counterIP
                0x0000000000002e5c       0x18 D:\programming\ada_projects\Ada_Drivers_Library\boards\MicroBit\obj\zfp_lib_Debug\libada_drivers_library.a(nrf51-rtc.o)
                0x0000000000002e5c                nrf51__rtc__real_time_counterIP
 .text.nrf51__rtc__start
                0x0000000000002e74       0x14 D:\programming\ada_projects\Ada_Drivers_Library\boards\MicroBit\obj\zfp_lib_Debug\libada_drivers_library.a(nrf51-rtc.o)
                0x0000000000002e74                nrf51__rtc__start
 .text.nrf51__rtc__stop
                0x0000000000002e88       0x14 D:\programming\ada_projects\Ada_Drivers_Library\boards\MicroBit\obj\zfp_lib_Debug\libada_drivers_library.a(nrf51-rtc.o)
                0x0000000000002e88                nrf51__rtc__stop
 .text.nrf51__rtc__clear
                0x0000000000002e9c       0x14 D:\programming\ada_projects\Ada_Drivers_Library\boards\MicroBit\obj\zfp_lib_Debug\libada_drivers_library.a(nrf51-rtc.o)
                0x0000000000002e9c                nrf51__rtc__clear
 .text.nrf51__rtc__set_prescaler
                0x0000000000002eb0       0x44 D:\programming\ada_projects\Ada_Drivers_Library\boards\MicroBit\obj\zfp_lib_Debug\libada_drivers_library.a(nrf51-rtc.o)
                0x0000000000002eb0                nrf51__rtc__set_prescaler
 .text.nrf51__rtc__counter
                0x0000000000002ef4       0x24 D:\programming\ada_projects\Ada_Drivers_Library\boards\MicroBit\obj\zfp_lib_Debug\libada_drivers_library.a(nrf51-rtc.o)
                0x0000000000002ef4                nrf51__rtc__counter
 .text.nrf51__rtc__set_compare
                0x0000000000002f18       0x50 D:\programming\ada_projects\Ada_Drivers_Library\boards\MicroBit\obj\zfp_lib_Debug\libada_drivers_library.a(nrf51-rtc.o)
                0x0000000000002f18                nrf51__rtc__set_compare
 .text.nrf51__rtc__event
                0x0000000000002f68       0x78 D:\programming\ada_projects\Ada_Drivers_Library\boards\MicroBit\obj\zfp_lib_Debug\libada_drivers_library.a(nrf51-rtc.o)
                0x0000000000002f68                nrf51__rtc__event
 .text.nrf51__rtc__enable_event
                0x0000000000002fe0      0x21c D:\programming\ada_projects\Ada_Drivers_Library\boards\MicroBit\obj\zfp_lib_Debug\libada_drivers_library.a(nrf51-rtc.o)
                0x0000000000002fe0                nrf51__rtc__enable_event
 .text.nrf51__rtc__disable_event
                0x00000000000031fc      0x220 D:\programming\ada_projects\Ada_Drivers_Library\boards\MicroBit\obj\zfp_lib_Debug\libada_drivers_library.a(nrf51-rtc.o)
                0x00000000000031fc                nrf51__rtc__disable_event
 .text          0x000000000000341c        0x0 D:\programming\ada_projects\Ada_Drivers_Library\boards\MicroBit\obj\zfp_lib_Debug\libada_drivers_library.a(nrf51-tasks.o)
 .text.nrf51__tasks__trigger
                0x000000000000341c       0x30 D:\programming\ada_projects\Ada_Drivers_Library\boards\MicroBit\obj\zfp_lib_Debug\libada_drivers_library.a(nrf51-tasks.o)
                0x000000000000341c                nrf51__tasks__trigger
 .text.nrf51__tasks__get_address
                0x000000000000344c       0x14 D:\programming\ada_projects\Ada_Drivers_Library\boards\MicroBit\obj\zfp_lib_Debug\libada_drivers_library.a(nrf51-tasks.o)
                0x000000000000344c                nrf51__tasks__get_address
 .text.nrf51__tasks__get_address__2
                0x0000000000003460       0x14 D:\programming\ada_projects\Ada_Drivers_Library\boards\MicroBit\obj\zfp_lib_Debug\libada_drivers_library.a(nrf51-tasks.o)
                0x0000000000003460                nrf51__tasks__get_address__2
 .text          0x0000000000003474        0x0 D:\programming\ada_projects\Ada_Drivers_Library\boards\MicroBit\obj\zfp_lib_Debug\libada_drivers_library.a(nrf51-timers.o)
 .text.nrf51__timers__timerIP
                0x0000000000003474       0x2c D:\programming\ada_projects\Ada_Drivers_Library\boards\MicroBit\obj\zfp_lib_Debug\libada_drivers_library.a(nrf51-timers.o)
                0x0000000000003474                nrf51__timers__timerIP
 .text.nrf51__timers___size
                0x00000000000034a0       0x18 D:\programming\ada_projects\Ada_Drivers_Library\boards\MicroBit\obj\zfp_lib_Debug\libada_drivers_library.a(nrf51-timers.o)
                0x00000000000034a0                nrf51__timers___size
 .text.nrf51__timers__Oeq
                0x00000000000034b8       0x24 D:\programming\ada_projects\Ada_Drivers_Library\boards\MicroBit\obj\zfp_lib_Debug\libada_drivers_library.a(nrf51-timers.o)
                0x00000000000034b8                nrf51__timers__Oeq
 .text.nrf51__timers___assign
                0x00000000000034dc       0x3c D:\programming\ada_projects\Ada_Drivers_Library\boards\MicroBit\obj\zfp_lib_Debug\libada_drivers_library.a(nrf51-timers.o)
                0x00000000000034dc                nrf51__timers___assign
 .text.nrf51__timers__start
                0x0000000000003518       0x38 D:\programming\ada_projects\Ada_Drivers_Library\boards\MicroBit\obj\zfp_lib_Debug\libada_drivers_library.a(nrf51-timers.o)
                0x0000000000003518                nrf51__timers__start
 .text.nrf51__timers__stop
                0x0000000000003550       0x38 D:\programming\ada_projects\Ada_Drivers_Library\boards\MicroBit\obj\zfp_lib_Debug\libada_drivers_library.a(nrf51-timers.o)
                0x0000000000003550                nrf51__timers__stop
 .text.nrf51__timers__clear
                0x0000000000003588       0x38 D:\programming\ada_projects\Ada_Drivers_Library\boards\MicroBit\obj\zfp_lib_Debug\libada_drivers_library.a(nrf51-timers.o)
                0x0000000000003588                nrf51__timers__clear
 .text.nrf51__timers__set_prescaler
                0x00000000000035c0       0x68 D:\programming\ada_projects\Ada_Drivers_Library\boards\MicroBit\obj\zfp_lib_Debug\libada_drivers_library.a(nrf51-timers.o)
                0x00000000000035c0                nrf51__timers__set_prescaler
 .text.nrf51__timers__set_mode
                0x0000000000003628       0x84 D:\programming\ada_projects\Ada_Drivers_Library\boards\MicroBit\obj\zfp_lib_Debug\libada_drivers_library.a(nrf51-timers.o)
                0x0000000000003628                nrf51__timers__set_mode
 .text.nrf51__timers__set_bitmode___postconditions.4836
                0x00000000000036ac       0x3c D:\programming\ada_projects\Ada_Drivers_Library\boards\MicroBit\obj\zfp_lib_Debug\libada_drivers_library.a(nrf51-timers.o)
 .text.nrf51__timers__set_bitmode
                0x00000000000036e8       0xc0 D:\programming\ada_projects\Ada_Drivers_Library\boards\MicroBit\obj\zfp_lib_Debug\libada_drivers_library.a(nrf51-timers.o)
                0x00000000000036e8                nrf51__timers__set_bitmode
 .text.nrf51__timers__bitmode
                0x00000000000037a8       0x70 D:\programming\ada_projects\Ada_Drivers_Library\boards\MicroBit\obj\zfp_lib_Debug\libada_drivers_library.a(nrf51-timers.o)
                0x00000000000037a8                nrf51__timers__bitmode
 .text.nrf51__timers__compare_interrupt
                0x0000000000003818      0x124 D:\programming\ada_projects\Ada_Drivers_Library\boards\MicroBit\obj\zfp_lib_Debug\libada_drivers_library.a(nrf51-timers.o)
                0x0000000000003818                nrf51__timers__compare_interrupt
 .text.nrf51__timers__compare_shortcut
                0x000000000000393c      0x274 D:\programming\ada_projects\Ada_Drivers_Library\boards\MicroBit\obj\zfp_lib_Debug\libada_drivers_library.a(nrf51-timers.o)
                0x000000000000393c                nrf51__timers__compare_shortcut
 .text.nrf51__timers__set_compare
                0x0000000000003bb0       0x50 D:\programming\ada_projects\Ada_Drivers_Library\boards\MicroBit\obj\zfp_lib_Debug\libada_drivers_library.a(nrf51-timers.o)
                0x0000000000003bb0                nrf51__timers__set_compare
 .text.nrf51__timers__capture
                0x0000000000003c00       0x48 D:\programming\ada_projects\Ada_Drivers_Library\boards\MicroBit\obj\zfp_lib_Debug\libada_drivers_library.a(nrf51-timers.o)
                0x0000000000003c00                nrf51__timers__capture
 .text.nrf51__timers__capture__2
                0x0000000000003c48       0x5c D:\programming\ada_projects\Ada_Drivers_Library\boards\MicroBit\obj\zfp_lib_Debug\libada_drivers_library.a(nrf51-timers.o)
                0x0000000000003c48                nrf51__timers__capture__2
 .text.nrf51__timers__cc_register
                0x0000000000003ca4       0x4c D:\programming\ada_projects\Ada_Drivers_Library\boards\MicroBit\obj\zfp_lib_Debug\libada_drivers_library.a(nrf51-timers.o)
                0x0000000000003ca4                nrf51__timers__cc_register
 .text.nrf51__timers__start_task
                0x0000000000003cf0       0x18 D:\programming\ada_projects\Ada_Drivers_Library\boards\MicroBit\obj\zfp_lib_Debug\libada_drivers_library.a(nrf51-timers.o)
                0x0000000000003cf0                nrf51__timers__start_task
 .text.nrf51__timers__stop_task
                0x0000000000003d08       0x18 D:\programming\ada_projects\Ada_Drivers_Library\boards\MicroBit\obj\zfp_lib_Debug\libada_drivers_library.a(nrf51-timers.o)
                0x0000000000003d08                nrf51__timers__stop_task
 .text.nrf51__timers__count_task
                0x0000000000003d20       0x18 D:\programming\ada_projects\Ada_Drivers_Library\boards\MicroBit\obj\zfp_lib_Debug\libada_drivers_library.a(nrf51-timers.o)
                0x0000000000003d20                nrf51__timers__count_task
 .text.nrf51__timers__clear_task
                0x0000000000003d38       0x18 D:\programming\ada_projects\Ada_Drivers_Library\boards\MicroBit\obj\zfp_lib_Debug\libada_drivers_library.a(nrf51-timers.o)
                0x0000000000003d38                nrf51__timers__clear_task
 .text.nrf51__timers__capture_task
                0x0000000000003d50       0x28 D:\programming\ada_projects\Ada_Drivers_Library\boards\MicroBit\obj\zfp_lib_Debug\libada_drivers_library.a(nrf51-timers.o)
                0x0000000000003d50                nrf51__timers__capture_task
 .text.nrf51__timers__compare_event
                0x0000000000003d78       0x28 D:\programming\ada_projects\Ada_Drivers_Library\boards\MicroBit\obj\zfp_lib_Debug\libada_drivers_library.a(nrf51-timers.o)
                0x0000000000003d78                nrf51__timers__compare_event
 .text.nrf51__timers___elabb
                0x0000000000003da0       0x8c D:\programming\ada_projects\Ada_Drivers_Library\boards\MicroBit\obj\zfp_lib_Debug\libada_drivers_library.a(nrf51-timers.o)
                0x0000000000003da0                nrf51__timers___elabb
 .text          0x0000000000003e2c        0x0 D:\programming\ada_projects\Ada_Drivers_Library\boards\MicroBit\obj\zfp_lib_Debug\libada_drivers_library.a(nrf51-twi.o)
 .text.nrf51__twi__twi_masterIP
                0x0000000000003e2c       0x34 D:\programming\ada_projects\Ada_Drivers_Library\boards\MicroBit\obj\zfp_lib_Debug\libada_drivers_library.a(nrf51-twi.o)
                0x0000000000003e2c                nrf51__twi__twi_masterIP
 .text.nrf51__twi___size__2
                0x0000000000003e60       0x18 D:\programming\ada_projects\Ada_Drivers_Library\boards\MicroBit\obj\zfp_lib_Debug\libada_drivers_library.a(nrf51-twi.o)
                0x0000000000003e60                nrf51__twi___size__2
 .text.nrf51__twi__Oeq
                0x0000000000003e78       0x3c D:\programming\ada_projects\Ada_Drivers_Library\boards\MicroBit\obj\zfp_lib_Debug\libada_drivers_library.a(nrf51-twi.o)
                0x0000000000003e78                nrf51__twi__Oeq
 .text.nrf51__twi___assign
                0x0000000000003eb4       0x3c D:\programming\ada_projects\Ada_Drivers_Library\boards\MicroBit\obj\zfp_lib_Debug\libada_drivers_library.a(nrf51-twi.o)
                0x0000000000003eb4                nrf51__twi___assign
 .text.nrf51__twi__stop_sequence
                0x0000000000003ef0       0x34 D:\programming\ada_projects\Ada_Drivers_Library\boards\MicroBit\obj\zfp_lib_Debug\libada_drivers_library.a(nrf51-twi.o)
 .text.nrf51__twi__enable
                0x0000000000003f24       0x58 D:\programming\ada_projects\Ada_Drivers_Library\boards\MicroBit\obj\zfp_lib_Debug\libada_drivers_library.a(nrf51-twi.o)
                0x0000000000003f24                nrf51__twi__enable
 .text.nrf51__twi__disable
                0x0000000000003f7c       0x54 D:\programming\ada_projects\Ada_Drivers_Library\boards\MicroBit\obj\zfp_lib_Debug\libada_drivers_library.a(nrf51-twi.o)
                0x0000000000003f7c                nrf51__twi__disable
 .text.nrf51__twi__enabled
                0x0000000000003fd0       0x50 D:\programming\ada_projects\Ada_Drivers_Library\boards\MicroBit\obj\zfp_lib_Debug\libada_drivers_library.a(nrf51-twi.o)
                0x0000000000003fd0                nrf51__twi__enabled
 .text.nrf51__twi__configure
                0x0000000000004020       0x94 D:\programming\ada_projects\Ada_Drivers_Library\boards\MicroBit\obj\zfp_lib_Debug\libada_drivers_library.a(nrf51-twi.o)
                0x0000000000004020                nrf51__twi__configure
 .text.nrf51__twi__disconnect
                0x00000000000040b4       0x4c D:\programming\ada_projects\Ada_Drivers_Library\boards\MicroBit\obj\zfp_lib_Debug\libada_drivers_library.a(nrf51-twi.o)
                0x00000000000040b4                nrf51__twi__disconnect
 .text.nrf51__twi__master_transmit
                0x0000000000004100      0x298 D:\programming\ada_projects\Ada_Drivers_Library\boards\MicroBit\obj\zfp_lib_Debug\libada_drivers_library.a(nrf51-twi.o)
                0x0000000000004100                nrf51__twi__master_transmit
 .text.nrf51__twi__master_receive
                0x0000000000004398      0x2d8 D:\programming\ada_projects\Ada_Drivers_Library\boards\MicroBit\obj\zfp_lib_Debug\libada_drivers_library.a(nrf51-twi.o)
                0x0000000000004398                nrf51__twi__master_receive
 .text.nrf51__twi__mem_write
                0x0000000000004670      0x23c D:\programming\ada_projects\Ada_Drivers_Library\boards\MicroBit\obj\zfp_lib_Debug\libada_drivers_library.a(nrf51-twi.o)
                0x0000000000004670                nrf51__twi__mem_write
 .text.nrf51__twi__mem_read
                0x00000000000048ac      0x23c D:\programming\ada_projects\Ada_Drivers_Library\boards\MicroBit\obj\zfp_lib_Debug\libada_drivers_library.a(nrf51-twi.o)
                0x00000000000048ac                nrf51__twi__mem_read
 .text.nrf51__twi___elabb
                0x0000000000004ae8       0x64 D:\programming\ada_projects\Ada_Drivers_Library\boards\MicroBit\obj\zfp_lib_Debug\libada_drivers_library.a(nrf51-twi.o)
                0x0000000000004ae8                nrf51__twi___elabb
 .text          0x0000000000004b4c        0x0 D:\programming\ada_projects\Ada_Drivers_Library\boards\MicroBit\obj\zfp_lib_Debug\libada_drivers_library.a(nrf51_svd-gpio.o)
 .text.nrf51_svd__gpio__pin_cnf_pull_fieldRP
                0x0000000000004b4c       0x3c D:\programming\ada_projects\Ada_Drivers_Library\boards\MicroBit\obj\zfp_lib_Debug\libada_drivers_library.a(nrf51_svd-gpio.o)
                0x0000000000004b4c                nrf51_svd__gpio__pin_cnf_pull_fieldRP
 .text.nrf51_svd__gpio__pin_cnf_sense_fieldRP
                0x0000000000004b88       0x3c D:\programming\ada_projects\Ada_Drivers_Library\boards\MicroBit\obj\zfp_lib_Debug\libada_drivers_library.a(nrf51_svd-gpio.o)
                0x0000000000004b88                nrf51_svd__gpio__pin_cnf_sense_fieldRP
 .text.nrf51_svd__gpio__Tout_pin_field_arrayBIP
                0x0000000000004bc4       0x10 D:\programming\ada_projects\Ada_Drivers_Library\boards\MicroBit\obj\zfp_lib_Debug\libada_drivers_library.a(nrf51_svd-gpio.o)
                0x0000000000004bc4                nrf51_svd__gpio__Tout_pin_field_arrayBIP
 .text.nrf51_svd__gpio__out_registerEQ__E35s.4755
                0x0000000000004bd4       0x40 D:\programming\ada_projects\Ada_Drivers_Library\boards\MicroBit\obj\zfp_lib_Debug\libada_drivers_library.a(nrf51_svd-gpio.o)
 .text.nrf51_svd__gpio__out_registerEQ
                0x0000000000004c14       0x80 D:\programming\ada_projects\Ada_Drivers_Library\boards\MicroBit\obj\zfp_lib_Debug\libada_drivers_library.a(nrf51_svd-gpio.o)
                0x0000000000004c14                nrf51_svd__gpio__out_registerEQ
 .text.nrf51_svd__gpio__out_registerIP
                0x0000000000004c94       0x14 D:\programming\ada_projects\Ada_Drivers_Library\boards\MicroBit\obj\zfp_lib_Debug\libada_drivers_library.a(nrf51_svd-gpio.o)
                0x0000000000004c94                nrf51_svd__gpio__out_registerIP
 .text.nrf51_svd__gpio__Toutset_pin_field_arrayBIP
                0x0000000000004ca8       0x10 D:\programming\ada_projects\Ada_Drivers_Library\boards\MicroBit\obj\zfp_lib_Debug\libada_drivers_library.a(nrf51_svd-gpio.o)
                0x0000000000004ca8                nrf51_svd__gpio__Toutset_pin_field_arrayBIP
 .text.nrf51_svd__gpio__outset_registerEQ__E48s.4762
                0x0000000000004cb8       0x40 D:\programming\ada_projects\Ada_Drivers_Library\boards\MicroBit\obj\zfp_lib_Debug\libada_drivers_library.a(nrf51_svd-gpio.o)
 .text.nrf51_svd__gpio__outset_registerEQ
                0x0000000000004cf8       0x80 D:\programming\ada_projects\Ada_Drivers_Library\boards\MicroBit\obj\zfp_lib_Debug\libada_drivers_library.a(nrf51_svd-gpio.o)
                0x0000000000004cf8                nrf51_svd__gpio__outset_registerEQ
 .text.nrf51_svd__gpio__outset_registerIP
                0x0000000000004d78       0x14 D:\programming\ada_projects\Ada_Drivers_Library\boards\MicroBit\obj\zfp_lib_Debug\libada_drivers_library.a(nrf51_svd-gpio.o)
                0x0000000000004d78                nrf51_svd__gpio__outset_registerIP
 .text.nrf51_svd__gpio__Toutclr_pin_field_arrayBIP
                0x0000000000004d8c       0x10 D:\programming\ada_projects\Ada_Drivers_Library\boards\MicroBit\obj\zfp_lib_Debug\libada_drivers_library.a(nrf51_svd-gpio.o)
                0x0000000000004d8c                nrf51_svd__gpio__Toutclr_pin_field_arrayBIP
 .text.nrf51_svd__gpio__outclr_registerEQ__E61s.4769
                0x0000000000004d9c       0x40 D:\programming\ada_projects\Ada_Drivers_Library\boards\MicroBit\obj\zfp_lib_Debug\libada_drivers_library.a(nrf51_svd-gpio.o)
 .text.nrf51_svd__gpio__outclr_registerEQ
                0x0000000000004ddc       0x80 D:\programming\ada_projects\Ada_Drivers_Library\boards\MicroBit\obj\zfp_lib_Debug\libada_drivers_library.a(nrf51_svd-gpio.o)
                0x0000000000004ddc                nrf51_svd__gpio__outclr_registerEQ
 .text.nrf51_svd__gpio__outclr_registerIP
                0x0000000000004e5c       0x14 D:\programming\ada_projects\Ada_Drivers_Library\boards\MicroBit\obj\zfp_lib_Debug\libada_drivers_library.a(nrf51_svd-gpio.o)
                0x0000000000004e5c                nrf51_svd__gpio__outclr_registerIP
 .text.nrf51_svd__gpio__Tin_pin_field_arrayBIP
                0x0000000000004e70       0x10 D:\programming\ada_projects\Ada_Drivers_Library\boards\MicroBit\obj\zfp_lib_Debug\libada_drivers_library.a(nrf51_svd-gpio.o)
                0x0000000000004e70                nrf51_svd__gpio__Tin_pin_field_arrayBIP
 .text.nrf51_svd__gpio__in_registerEQ__E74s.4776
                0x0000000000004e80       0x40 D:\programming\ada_projects\Ada_Drivers_Library\boards\MicroBit\obj\zfp_lib_Debug\libada_drivers_library.a(nrf51_svd-gpio.o)
 .text.nrf51_svd__gpio__in_registerEQ
                0x0000000000004ec0       0x80 D:\programming\ada_projects\Ada_Drivers_Library\boards\MicroBit\obj\zfp_lib_Debug\libada_drivers_library.a(nrf51_svd-gpio.o)
                0x0000000000004ec0                nrf51_svd__gpio__in_registerEQ
 .text.nrf51_svd__gpio__in_registerIP
                0x0000000000004f40       0x14 D:\programming\ada_projects\Ada_Drivers_Library\boards\MicroBit\obj\zfp_lib_Debug\libada_drivers_library.a(nrf51_svd-gpio.o)
                0x0000000000004f40                nrf51_svd__gpio__in_registerIP
 .text.nrf51_svd__gpio__Tdir_pin_field_arrayBIP
                0x0000000000004f54       0x10 D:\programming\ada_projects\Ada_Drivers_Library\boards\MicroBit\obj\zfp_lib_Debug\libada_drivers_library.a(nrf51_svd-gpio.o)
                0x0000000000004f54                nrf51_svd__gpio__Tdir_pin_field_arrayBIP
 .text.nrf51_svd__gpio__dir_registerEQ__E87s.4783
                0x0000000000004f64       0x40 D:\programming\ada_projects\Ada_Drivers_Library\boards\MicroBit\obj\zfp_lib_Debug\libada_drivers_library.a(nrf51_svd-gpio.o)
 .text.nrf51_svd__gpio__dir_registerEQ
                0x0000000000004fa4       0x80 D:\programming\ada_projects\Ada_Drivers_Library\boards\MicroBit\obj\zfp_lib_Debug\libada_drivers_library.a(nrf51_svd-gpio.o)
                0x0000000000004fa4                nrf51_svd__gpio__dir_registerEQ
 .text.nrf51_svd__gpio__dir_registerIP
                0x0000000000005024       0x14 D:\programming\ada_projects\Ada_Drivers_Library\boards\MicroBit\obj\zfp_lib_Debug\libada_drivers_library.a(nrf51_svd-gpio.o)
                0x0000000000005024                nrf51_svd__gpio__dir_registerIP
 .text.nrf51_svd__gpio__Tdirset_pin_field_arrayBIP
                0x0000000000005038       0x10 D:\programming\ada_projects\Ada_Drivers_Library\boards\MicroBit\obj\zfp_lib_Debug\libada_drivers_library.a(nrf51_svd-gpio.o)
                0x0000000000005038                nrf51_svd__gpio__Tdirset_pin_field_arrayBIP
 .text.nrf51_svd__gpio__dirset_registerEQ__E100s.4790
                0x0000000000005048       0x40 D:\programming\ada_projects\Ada_Drivers_Library\boards\MicroBit\obj\zfp_lib_Debug\libada_drivers_library.a(nrf51_svd-gpio.o)
 .text.nrf51_svd__gpio__dirset_registerEQ
                0x0000000000005088       0x80 D:\programming\ada_projects\Ada_Drivers_Library\boards\MicroBit\obj\zfp_lib_Debug\libada_drivers_library.a(nrf51_svd-gpio.o)
                0x0000000000005088                nrf51_svd__gpio__dirset_registerEQ
 .text.nrf51_svd__gpio__dirset_registerIP
                0x0000000000005108       0x14 D:\programming\ada_projects\Ada_Drivers_Library\boards\MicroBit\obj\zfp_lib_Debug\libada_drivers_library.a(nrf51_svd-gpio.o)
                0x0000000000005108                nrf51_svd__gpio__dirset_registerIP
 .text.nrf51_svd__gpio__Tdirclr_pin_field_arrayBIP
                0x000000000000511c       0x10 D:\programming\ada_projects\Ada_Drivers_Library\boards\MicroBit\obj\zfp_lib_Debug\libada_drivers_library.a(nrf51_svd-gpio.o)
                0x000000000000511c                nrf51_svd__gpio__Tdirclr_pin_field_arrayBIP
 .text.nrf51_svd__gpio__dirclr_registerEQ__E113s.4797
                0x000000000000512c       0x40 D:\programming\ada_projects\Ada_Drivers_Library\boards\MicroBit\obj\zfp_lib_Debug\libada_drivers_library.a(nrf51_svd-gpio.o)
 .text.nrf51_svd__gpio__dirclr_registerEQ
                0x000000000000516c       0x80 D:\programming\ada_projects\Ada_Drivers_Library\boards\MicroBit\obj\zfp_lib_Debug\libada_drivers_library.a(nrf51_svd-gpio.o)
                0x000000000000516c                nrf51_svd__gpio__dirclr_registerEQ
 .text.nrf51_svd__gpio__dirclr_registerIP
                0x00000000000051ec       0x14 D:\programming\ada_projects\Ada_Drivers_Library\boards\MicroBit\obj\zfp_lib_Debug\libada_drivers_library.a(nrf51_svd-gpio.o)
                0x00000000000051ec                nrf51_svd__gpio__dirclr_registerIP
 .text.nrf51_svd__gpio__pin_cnf_registerIP
                0x0000000000005200       0x8c D:\programming\ada_projects\Ada_Drivers_Library\boards\MicroBit\obj\zfp_lib_Debug\libada_drivers_library.a(nrf51_svd-gpio.o)
                0x0000000000005200                nrf51_svd__gpio__pin_cnf_registerIP
 .text.nrf51_svd__gpio__Tpin_cnf_registersBIP
                0x000000000000528c       0x3c D:\programming\ada_projects\Ada_Drivers_Library\boards\MicroBit\obj\zfp_lib_Debug\libada_drivers_library.a(nrf51_svd-gpio.o)
                0x000000000000528c                nrf51_svd__gpio__Tpin_cnf_registersBIP
 .text.nrf51_svd__gpio__gpio_peripheralEQ
                0x00000000000052c8       0x20 D:\programming\ada_projects\Ada_Drivers_Library\boards\MicroBit\obj\zfp_lib_Debug\libada_drivers_library.a(nrf51_svd-gpio.o)
                0x00000000000052c8                nrf51_svd__gpio__gpio_peripheralEQ
 .text.nrf51_svd__gpio__gpio_peripheralIP
                0x00000000000052e8       0xb0 D:\programming\ada_projects\Ada_Drivers_Library\boards\MicroBit\obj\zfp_lib_Debug\libada_drivers_library.a(nrf51_svd-gpio.o)
                0x00000000000052e8                nrf51_svd__gpio__gpio_peripheralIP
 .text          0x0000000000005398        0x0 D:\programming\ada_projects\Ada_Drivers_Library\boards\MicroBit\obj\zfp_lib_Debug\libada_drivers_library.a(nrf51_svd-twi.o)
 .text.nrf51_svd__twi__enable_enable_fieldRP
                0x0000000000005398       0x34 D:\programming\ada_projects\Ada_Drivers_Library\boards\MicroBit\obj\zfp_lib_Debug\libada_drivers_library.a(nrf51_svd-twi.o)
                0x0000000000005398                nrf51_svd__twi__enable_enable_fieldRP
 .text.nrf51_svd__twi__shorts_registerIP
                0x00000000000053cc       0x38 D:\programming\ada_projects\Ada_Drivers_Library\boards\MicroBit\obj\zfp_lib_Debug\libada_drivers_library.a(nrf51_svd-twi.o)
                0x00000000000053cc                nrf51_svd__twi__shorts_registerIP
 .text.nrf51_svd__twi__intenset_registerIP
                0x0000000000005404       0xd0 D:\programming\ada_projects\Ada_Drivers_Library\boards\MicroBit\obj\zfp_lib_Debug\libada_drivers_library.a(nrf51_svd-twi.o)
                0x0000000000005404                nrf51_svd__twi__intenset_registerIP
 .text.nrf51_svd__twi__intenclr_registerIP
                0x00000000000054d4       0xd0 D:\programming\ada_projects\Ada_Drivers_Library\boards\MicroBit\obj\zfp_lib_Debug\libada_drivers_library.a(nrf51_svd-twi.o)
                0x00000000000054d4                nrf51_svd__twi__intenclr_registerIP
 .text.nrf51_svd__twi__errorsrc_registerIP
                0x00000000000055a4       0x48 D:\programming\ada_projects\Ada_Drivers_Library\boards\MicroBit\obj\zfp_lib_Debug\libada_drivers_library.a(nrf51_svd-twi.o)
                0x00000000000055a4                nrf51_svd__twi__errorsrc_registerIP
 .text.nrf51_svd__twi__enable_registerIP
                0x00000000000055ec       0x2c D:\programming\ada_projects\Ada_Drivers_Library\boards\MicroBit\obj\zfp_lib_Debug\libada_drivers_library.a(nrf51_svd-twi.o)
                0x00000000000055ec                nrf51_svd__twi__enable_registerIP
 .text.nrf51_svd__twi__rxd_registerIP
                0x0000000000005618       0x10 D:\programming\ada_projects\Ada_Drivers_Library\boards\MicroBit\obj\zfp_lib_Debug\libada_drivers_library.a(nrf51_svd-twi.o)
                0x0000000000005618                nrf51_svd__twi__rxd_registerIP
 .text.nrf51_svd__twi__txd_registerIP
                0x0000000000005628       0x2c D:\programming\ada_projects\Ada_Drivers_Library\boards\MicroBit\obj\zfp_lib_Debug\libada_drivers_library.a(nrf51_svd-twi.o)
                0x0000000000005628                nrf51_svd__twi__txd_registerIP
 .text.nrf51_svd__twi__address_registerIP
                0x0000000000005654       0x2c D:\programming\ada_projects\Ada_Drivers_Library\boards\MicroBit\obj\zfp_lib_Debug\libada_drivers_library.a(nrf51_svd-twi.o)
                0x0000000000005654                nrf51_svd__twi__address_registerIP
 .text.nrf51_svd__twi__power_registerIP
                0x0000000000005680       0x2c D:\programming\ada_projects\Ada_Drivers_Library\boards\MicroBit\obj\zfp_lib_Debug\libada_drivers_library.a(nrf51_svd-twi.o)
                0x0000000000005680                nrf51_svd__twi__power_registerIP
 .text.nrf51_svd__twi__twi_peripheralIP
                0x00000000000056ac       0x94 D:\programming\ada_projects\Ada_Drivers_Library\boards\MicroBit\obj\zfp_lib_Debug\libada_drivers_library.a(nrf51_svd-twi.o)
                0x00000000000056ac                nrf51_svd__twi__twi_peripheralIP
 .text          0x0000000000005740        0x0 D:\programming\ada_projects\Ada_Drivers_Library\boards\MicroBit\obj\zfp_lib_Debug\libada_drivers_library.a(hal-gpio.o)
 .text          0x0000000000005740        0x0 D:\programming\ada_projects\Ada_Drivers_Library\boards\MicroBit\obj\zfp_lib_Debug\libada_drivers_library.a(hal-i2c.o)
 .text          0x0000000000005740        0x0 D:\gnat\2018-arm-elf\arm-eabi\lib\gnat\ravenscar-sfp-microbit\adalib\libgnarl.a(a-reatim.o)
 .text.ada__real_time__mul_div
                0x0000000000005740      0x124 D:\gnat\2018-arm-elf\arm-eabi\lib\gnat\ravenscar-sfp-microbit\adalib\libgnarl.a(a-reatim.o)
 .text.ada__real_time__Oadd__2
                0x0000000000005864       0x14 D:\gnat\2018-arm-elf\arm-eabi\lib\gnat\ravenscar-sfp-microbit\adalib\libgnarl.a(a-reatim.o)
                0x0000000000005864                ada__real_time__Oadd__2
 .text.ada__real_time__Omultiply
                0x0000000000005878       0xd4 D:\gnat\2018-arm-elf\arm-eabi\lib\gnat\ravenscar-sfp-microbit\adalib\libgnarl.a(a-reatim.o)
                0x0000000000005878                ada__real_time__Omultiply
 .text.ada__real_time__Omultiply__2
                0x000000000000594c       0x10 D:\gnat\2018-arm-elf\arm-eabi\lib\gnat\ravenscar-sfp-microbit\adalib\libgnarl.a(a-reatim.o)
                0x000000000000594c                ada__real_time__Omultiply__2
 .text.ada__real_time__Oadd
                0x000000000000595c       0xb0 D:\gnat\2018-arm-elf\arm-eabi\lib\gnat\ravenscar-sfp-microbit\adalib\libgnarl.a(a-reatim.o)
                0x000000000000595c                ada__real_time__Oadd
 .text.ada__real_time__Oadd__3
                0x0000000000005a0c       0x3c D:\gnat\2018-arm-elf\arm-eabi\lib\gnat\ravenscar-sfp-microbit\adalib\libgnarl.a(a-reatim.o)
                0x0000000000005a0c                ada__real_time__Oadd__3
 .text.ada__real_time__Osubtract
                0x0000000000005a48       0xa0 D:\gnat\2018-arm-elf\arm-eabi\lib\gnat\ravenscar-sfp-microbit\adalib\libgnarl.a(a-reatim.o)
                0x0000000000005a48                ada__real_time__Osubtract
 .text.ada__real_time__Osubtract__2
                0x0000000000005ae8       0x6c D:\gnat\2018-arm-elf\arm-eabi\lib\gnat\ravenscar-sfp-microbit\adalib\libgnarl.a(a-reatim.o)
                0x0000000000005ae8                ada__real_time__Osubtract__2
 .text.ada__real_time__Osubtract__3
                0x0000000000005b54       0x40 D:\gnat\2018-arm-elf\arm-eabi\lib\gnat\ravenscar-sfp-microbit\adalib\libgnarl.a(a-reatim.o)
                0x0000000000005b54                ada__real_time__Osubtract__3
 .text.ada__real_time__Osubtract__4
                0x0000000000005b94       0x28 D:\gnat\2018-arm-elf\arm-eabi\lib\gnat\ravenscar-sfp-microbit\adalib\libgnarl.a(a-reatim.o)
                0x0000000000005b94                ada__real_time__Osubtract__4
 .text.ada__real_time__Odivide
                0x0000000000005bbc       0x54 D:\gnat\2018-arm-elf\arm-eabi\lib\gnat\ravenscar-sfp-microbit\adalib\libgnarl.a(a-reatim.o)
                0x0000000000005bbc                ada__real_time(double &&, int, void, int, double,...)
 .text.ada__real_time__Odivide__2
                0x0000000000005c10       0x3c D:\gnat\2018-arm-elf\arm-eabi\lib\gnat\ravenscar-sfp-microbit\adalib\libgnarl.a(a-reatim.o)
                0x0000000000005c10                ada__real_time__Odivide__2
 .text.ada__real_time__clock
                0x0000000000005c4c       0x54 D:\gnat\2018-arm-elf\arm-eabi\lib\gnat\ravenscar-sfp-microbit\adalib\libgnarl.a(a-reatim.o)
                0x0000000000005c4c                ada__real_time__clock
 .text.ada__real_time__microseconds
                0x0000000000005ca0       0x40 D:\gnat\2018-arm-elf\arm-eabi\lib\gnat\ravenscar-sfp-microbit\adalib\libgnarl.a(a-reatim.o)
                0x0000000000005ca0                ada__real_time__microseconds
 .text.ada__real_time__milliseconds
                0x0000000000005ce0       0x3c D:\gnat\2018-arm-elf\arm-eabi\lib\gnat\ravenscar-sfp-microbit\adalib\libgnarl.a(a-reatim.o)
                0x0000000000005ce0                ada__real_time__milliseconds
 .text.ada__real_time__minutes
                0x0000000000005d1c       0x50 D:\gnat\2018-arm-elf\arm-eabi\lib\gnat\ravenscar-sfp-microbit\adalib\libgnarl.a(a-reatim.o)
                0x0000000000005d1c                ada__real_time__minutes
 .text.ada__real_time__nanoseconds
                0x0000000000005d6c       0x40 D:\gnat\2018-arm-elf\arm-eabi\lib\gnat\ravenscar-sfp-microbit\adalib\libgnarl.a(a-reatim.o)
                0x0000000000005d6c                ada__real_time__nanoseconds
 .text.ada__real_time__rounded_div
                0x0000000000005dac       0x50 D:\gnat\2018-arm-elf\arm-eabi\lib\gnat\ravenscar-sfp-microbit\adalib\libgnarl.a(a-reatim.o)
                0x0000000000005dac                ada__real_time__rounded_div
 .text.ada__real_time__seconds
                0x0000000000005dfc       0x14 D:\gnat\2018-arm-elf\arm-eabi\lib\gnat\ravenscar-sfp-microbit\adalib\libgnarl.a(a-reatim.o)
                0x0000000000005dfc                ada__real_time__seconds
 .text.ada__real_time__split
                0x0000000000005e10       0x40 D:\gnat\2018-arm-elf\arm-eabi\lib\gnat\ravenscar-sfp-microbit\adalib\libgnarl.a(a-reatim.o)
                0x0000000000005e10                ada__real_time__split
 .text.ada__real_time__time_of
                0x0000000000005e50      0x12c D:\gnat\2018-arm-elf\arm-eabi\lib\gnat\ravenscar-sfp-microbit\adalib\libgnarl.a(a-reatim.o)
                0x0000000000005e50                ada__real_time__time_of
 .text.ada__real_time__to_duration
                0x0000000000005f7c       0x14 D:\gnat\2018-arm-elf\arm-eabi\lib\gnat\ravenscar-sfp-microbit\adalib\libgnarl.a(a-reatim.o)
                0x0000000000005f7c                ada__real_time__to_duration
 .text.ada__real_time__to_time_span
                0x0000000000005f90       0x14 D:\gnat\2018-arm-elf\arm-eabi\lib\gnat\ravenscar-sfp-microbit\adalib\libgnarl.a(a-reatim.o)
                0x0000000000005f90                ada__real_time__to_time_span
 .text.ada__real_time___elabb
                0x0000000000005fa4        0x8 D:\gnat\2018-arm-elf\arm-eabi\lib\gnat\ravenscar-sfp-microbit\adalib\libgnarl.a(a-reatim.o)
                0x0000000000005fa4                ada__real_time___elabb
 .text          0x0000000000005fac        0x0 D:\gnat\2018-arm-elf\arm-eabi\lib\gnat\ravenscar-sfp-microbit\adalib\libgnarl.a(a-retide.o)
 .text.ada__real_time__delays__delay_until
                0x0000000000005fac       0x34 D:\gnat\2018-arm-elf\arm-eabi\lib\gnat\ravenscar-sfp-microbit\adalib\libgnarl.a(a-retide.o)
                0x0000000000005fac                ada__real_time__delays__delay_until
 .text.ada__real_time__delays__to_duration
                0x0000000000005fe0        0x8 D:\gnat\2018-arm-elf\arm-eabi\lib\gnat\ravenscar-sfp-microbit\adalib\libgnarl.a(a-retide.o)
                0x0000000000005fe0                ada__real_time__delays__to_duration
 .text          0x0000000000005fe8        0x0 D:\gnat\2018-arm-elf\arm-eabi\lib\gnat\ravenscar-sfp-microbit\adalib\libgnarl.a(s-bbbosu.o)
 .text.system__bb__board_support__time__pre_alarm_handler
                0x0000000000005fe8       0x1c D:\gnat\2018-arm-elf\arm-eabi\lib\gnat\ravenscar-sfp-microbit\adalib\libgnarl.a(s-bbbosu.o)
                0x0000000000005fe8                system__bb__board_support__time__pre_alarm_handler
 .text.system__bb__board_support__interrupt_handler
                0x0000000000006004       0x20 D:\gnat\2018-arm-elf\arm-eabi\lib\gnat\ravenscar-sfp-microbit\adalib\libgnarl.a(s-bbbosu.o)
                0x0000000000006004                system__bb__board_support__interrupt_handler
 .text.system__bb__board_support__time__max_timer_interval
                0x0000000000006024        0x8 D:\gnat\2018-arm-elf\arm-eabi\lib\gnat\ravenscar-sfp-microbit\adalib\libgnarl.a(s-bbbosu.o)
                0x0000000000006024                system__bb__board_support__time__max_timer_interval
 .text.system__bb__board_support__time__read_clock
                0x000000000000602c       0x1c D:\gnat\2018-arm-elf\arm-eabi\lib\gnat\ravenscar-sfp-microbit\adalib\libgnarl.a(s-bbbosu.o)
                0x000000000000602c                system__bb__board_support__time__read_clock
 .text.system__bb__board_support__time__clear_alarm_interrupt
                0x0000000000006048       0x10 D:\gnat\2018-arm-elf\arm-eabi\lib\gnat\ravenscar-sfp-microbit\adalib\libgnarl.a(s-bbbosu.o)
                0x0000000000006048                system__bb__board_support__time__clear_alarm_interrupt
 .text.system__bb__board_support__time__set_alarm
                0x0000000000006058       0x20 D:\gnat\2018-arm-elf\arm-eabi\lib\gnat\ravenscar-sfp-microbit\adalib\libgnarl.a(s-bbbosu.o)
                0x0000000000006058                system__bb__board_support__time__set_alarm
 .text.system__bb__board_support__multiprocessors__number_of_cpus
                0x0000000000006078        0x4 D:\gnat\2018-arm-elf\arm-eabi\lib\gnat\ravenscar-sfp-microbit\adalib\libgnarl.a(s-bbbosu.o)
                0x0000000000006078                system__bb__board_support__multiprocessors__number_of_cpus
 .text.system__bb__board_support__multiprocessors__current_cpu
                0x000000000000607c        0x4 D:\gnat\2018-arm-elf\arm-eabi\lib\gnat\ravenscar-sfp-microbit\adalib\libgnarl.a(s-bbbosu.o)
                0x000000000000607c                system__bb__board_support__multiprocessors__current_cpu
 .text.system__bb__board_support__multiprocessors__poke_cpu
                0x0000000000006080        0x4 D:\gnat\2018-arm-elf\arm-eabi\lib\gnat\ravenscar-sfp-microbit\adalib\libgnarl.a(s-bbbosu.o)
                0x0000000000006080                system__bb__board_support__multiprocessors__poke_cpu
 .text.system__bb__board_support__multiprocessors__start_all_cpus
                0x0000000000006084        0x4 D:\gnat\2018-arm-elf\arm-eabi\lib\gnat\ravenscar-sfp-microbit\adalib\libgnarl.a(s-bbbosu.o)
                0x0000000000006084                system__bb__board_support__multiprocessors__start_all_cpus
 .text.system__bb__board_support__interrupts__priority_of_interrupt
                0x0000000000006088       0x24 D:\gnat\2018-arm-elf\arm-eabi\lib\gnat\ravenscar-sfp-microbit\adalib\libgnarl.a(s-bbbosu.o)
                0x0000000000006088                system__bb__board_support__interrupts__priority_of_interrupt
 .text.system__bb__board_support__interrupts__power_down
                0x00000000000060ac        0x4 D:\gnat\2018-arm-elf\arm-eabi\lib\gnat\ravenscar-sfp-microbit\adalib\libgnarl.a(s-bbbosu.o)
                0x00000000000060ac                system__bb__board_support__interrupts__power_down
 .text.system__bb__board_support__interrupts__set_current_priority
                0x00000000000060b0       0x10 D:\gnat\2018-arm-elf\arm-eabi\lib\gnat\ravenscar-sfp-microbit\adalib\libgnarl.a(s-bbbosu.o)
                0x00000000000060b0                system__bb__board_support__interrupts__set_current_priority
 .text.system__bb__board_support__TipBIP
                0x00000000000060c0        0x4 D:\gnat\2018-arm-elf\arm-eabi\lib\gnat\ravenscar-sfp-microbit\adalib\libgnarl.a(s-bbbosu.o)
                0x00000000000060c0                system__bb__board_support__TipBIP
 .text.system__bb__board_support__initialize_board
                0x00000000000060c4       0x84 D:\gnat\2018-arm-elf\arm-eabi\lib\gnat\ravenscar-sfp-microbit\adalib\libgnarl.a(s-bbbosu.o)
                0x00000000000060c4                system__bb__board_support__initialize_board
 .text.system__bb__board_support__enable_interrupt_request
                0x0000000000006148       0x40 D:\gnat\2018-arm-elf\arm-eabi\lib\gnat\ravenscar-sfp-microbit\adalib\libgnarl.a(s-bbbosu.o)
                0x0000000000006148                system__bb__board_support__enable_interrupt_request
 .text.system__bb__board_support__interrupts__install_interrupt_handler
                0x0000000000006188       0x20 D:\gnat\2018-arm-elf\arm-eabi\lib\gnat\ravenscar-sfp-microbit\adalib\libgnarl.a(s-bbbosu.o)
                0x0000000000006188                system__bb__board_support__interrupts__install_interrupt_handler
 .text.system__bb__board_support__time__install_alarm_handler
                0x00000000000061a8       0x34 D:\gnat\2018-arm-elf\arm-eabi\lib\gnat\ravenscar-sfp-microbit\adalib\libgnarl.a(s-bbbosu.o)
                0x00000000000061a8                system__bb__board_support__time__install_alarm_handler
 .text.system__bb__board_support__to_pri
                0x00000000000061dc        0xc D:\gnat\2018-arm-elf\arm-eabi\lib\gnat\ravenscar-sfp-microbit\adalib\libgnarl.a(s-bbbosu.o)
                0x00000000000061dc                system__bb__board_support__to_pri
 .text.system__bb__board_support__to_priority
                0x00000000000061e8       0x14 D:\gnat\2018-arm-elf\arm-eabi\lib\gnat\ravenscar-sfp-microbit\adalib\libgnarl.a(s-bbbosu.o)
                0x00000000000061e8                system__bb__board_support__to_priority
 .text          0x00000000000061fc        0x0 D:\gnat\2018-arm-elf\arm-eabi\lib\gnat\ravenscar-sfp-microbit\adalib\libgnarl.a(s-bbcppr.o)
 .text.system__bb__cpu_primitives__gnat_error_handler
                0x00000000000061fc      0x174 D:\gnat\2018-arm-elf\arm-eabi\lib\gnat\ravenscar-sfp-microbit\adalib\libgnarl.a(s-bbcppr.o)
                0x00000000000061fc                system__bb__cpu_primitives__gnat_error_handler
 .text.system__bb__cpu_primitives__Tcontext_bufferBIP
                0x0000000000006370        0x4 D:\gnat\2018-arm-elf\arm-eabi\lib\gnat\ravenscar-sfp-microbit\adalib\libgnarl.a(s-bbcppr.o)
                0x0000000000006370                system__bb__cpu_primitives__Tcontext_bufferBIP
 .text.system__bb__cpu_primitives__hardware_contextIP
                0x0000000000006374        0x4 D:\gnat\2018-arm-elf\arm-eabi\lib\gnat\ravenscar-sfp-microbit\adalib\libgnarl.a(s-bbcppr.o)
                0x0000000000006374                system__bb__cpu_primitives__hardware_contextIP
 .text.primask  0x0000000000006378        0x8 D:\gnat\2018-arm-elf\arm-eabi\lib\gnat\ravenscar-sfp-microbit\adalib\libgnarl.a(s-bbcppr.o)
                0x0000000000006378                primask
 .text.system__bb__cpu_primitives__initialize_cpu
                0x0000000000006380       0x70 D:\gnat\2018-arm-elf\arm-eabi\lib\gnat\ravenscar-sfp-microbit\adalib\libgnarl.a(s-bbcppr.o)
                0x0000000000006380                system__bb__cpu_primitives__initialize_cpu
 .text.system__bb__cpu_primitives__context_switch
                0x00000000000063f0        0x8 D:\gnat\2018-arm-elf\arm-eabi\lib\gnat\ravenscar-sfp-microbit\adalib\libgnarl.a(s-bbcppr.o)
                0x00000000000063f0                system__bb__cpu_primitives__context_switch
 .text.system__bb__cpu_primitives__get_context
                0x00000000000063f8        0x8 D:\gnat\2018-arm-elf\arm-eabi\lib\gnat\ravenscar-sfp-microbit\adalib\libgnarl.a(s-bbcppr.o)
                0x00000000000063f8                system__bb__cpu_primitives__get_context
 .text.__gnat_irq_trap
                0x0000000000006400       0x38 D:\gnat\2018-arm-elf\arm-eabi\lib\gnat\ravenscar-sfp-microbit\adalib\libgnarl.a(s-bbcppr.o)
 .text.__gnat_sv_call_trap
                0x0000000000006438        0x8 D:\gnat\2018-arm-elf\arm-eabi\lib\gnat\ravenscar-sfp-microbit\adalib\libgnarl.a(s-bbcppr.o)
                0x0000000000006438                __gnat_sv_call_trap
 .text.system__bb__cpu_primitives__set_context
                0x0000000000006440        0x8 D:\gnat\2018-arm-elf\arm-eabi\lib\gnat\ravenscar-sfp-microbit\adalib\libgnarl.a(s-bbcppr.o)
                0x0000000000006440                system__bb__cpu_primitives__set_context
 .text.__gnat_sys_tick_trap
                0x0000000000006448       0x58 D:\gnat\2018-arm-elf\arm-eabi\lib\gnat\ravenscar-sfp-microbit\adalib\libgnarl.a(s-bbcppr.o)
                0x0000000000006448                __gnat_sys_tick_trap
 .text.system__bb__cpu_primitives__initialize_context
                0x00000000000064a0       0x48 D:\gnat\2018-arm-elf\arm-eabi\lib\gnat\ravenscar-sfp-microbit\adalib\libgnarl.a(s-bbcppr.o)
                0x00000000000064a0                system__bb__cpu_primitives__initialize_context
 .text.system__bb__cpu_primitives__install_error_handlers
                0x00000000000064e8       0x1c D:\gnat\2018-arm-elf\arm-eabi\lib\gnat\ravenscar-sfp-microbit\adalib\libgnarl.a(s-bbcppr.o)
                0x00000000000064e8                system__bb__cpu_primitives__install_error_handlers
 .text.system__bb__cpu_primitives__install_trap_handler
                0x0000000000006504        0xc D:\gnat\2018-arm-elf\arm-eabi\lib\gnat\ravenscar-sfp-microbit\adalib\libgnarl.a(s-bbcppr.o)
                0x0000000000006504                system__bb__cpu_primitives__install_trap_handler
 .text.system__bb__cpu_primitives__disable_interrupts
                0x0000000000006510        0x4 D:\gnat\2018-arm-elf\arm-eabi\lib\gnat\ravenscar-sfp-microbit\adalib\libgnarl.a(s-bbcppr.o)
                0x0000000000006510                system__bb__cpu_primitives__disable_interrupts
 .text.system__bb__cpu_primitives__enable_interrupts
                0x0000000000006514        0xc D:\gnat\2018-arm-elf\arm-eabi\lib\gnat\ravenscar-sfp-microbit\adalib\libgnarl.a(s-bbcppr.o)
                0x0000000000006514                system__bb__cpu_primitives__enable_interrupts
 .text          0x0000000000006520        0x0 D:\gnat\2018-arm-elf\arm-eabi\lib\gnat\ravenscar-sfp-microbit\adalib\libgnarl.a(s-bbinte.o)
 .text.system__bb__interrupts__Tinterrupt_stacksBIP
                0x0000000000006520        0x4 D:\gnat\2018-arm-elf\arm-eabi\lib\gnat\ravenscar-sfp-microbit\adalib\libgnarl.a(s-bbinte.o)
                0x0000000000006520                system__bb__interrupts__Tinterrupt_stacksBIP
 .text.system__bb__interrupts__Tinterrupt_stack_tableBIP
                0x0000000000006524        0x4 D:\gnat\2018-arm-elf\arm-eabi\lib\gnat\ravenscar-sfp-microbit\adalib\libgnarl.a(s-bbinte.o)
                0x0000000000006524                system__bb__interrupts__Tinterrupt_stack_tableBIP
 .text.system__bb__interrupts__attach_handler
                0x0000000000006528       0x1c D:\gnat\2018-arm-elf\arm-eabi\lib\gnat\ravenscar-sfp-microbit\adalib\libgnarl.a(s-bbinte.o)
                0x0000000000006528                system__bb__interrupts__attach_handler
 .text.system__bb__interrupts__current_interrupt
                0x0000000000006544       0x20 D:\gnat\2018-arm-elf\arm-eabi\lib\gnat\ravenscar-sfp-microbit\adalib\libgnarl.a(s-bbinte.o)
                0x0000000000006544                system__bb__interrupts__current_interrupt
 .text.system__bb__interrupts__interrupt_wrapper
                0x0000000000006564       0xb4 D:\gnat\2018-arm-elf\arm-eabi\lib\gnat\ravenscar-sfp-microbit\adalib\libgnarl.a(s-bbinte.o)
                0x0000000000006564                system__bb__interrupts__interrupt_wrapper
 .text.system__bb__interrupts__within_interrupt_stack
                0x0000000000006618       0x2c D:\gnat\2018-arm-elf\arm-eabi\lib\gnat\ravenscar-sfp-microbit\adalib\libgnarl.a(s-bbinte.o)
                0x0000000000006618                system__bb__interrupts__within_interrupt_stack
 .text.system__bb__interrupts__initialize_interrupts
                0x0000000000006644       0x10 D:\gnat\2018-arm-elf\arm-eabi\lib\gnat\ravenscar-sfp-microbit\adalib\libgnarl.a(s-bbinte.o)
                0x0000000000006644                system__bb__interrupts__initialize_interrupts
 .text          0x0000000000006654        0x0 D:\gnat\2018-arm-elf\arm-eabi\lib\gnat\ravenscar-sfp-microbit\adalib\libgnarl.a(s-bbthqu.o)
 .text.system__bb__threads__queues__change_priority
                0x0000000000006654       0x6c D:\gnat\2018-arm-elf\arm-eabi\lib\gnat\ravenscar-sfp-microbit\adalib\libgnarl.a(s-bbthqu.o)
                0x0000000000006654                system__bb__threads__queues__change_priority
 .text.__gnat_context_switch_needed
                0x00000000000066c0       0x1c D:\gnat\2018-arm-elf\arm-eabi\lib\gnat\ravenscar-sfp-microbit\adalib\libgnarl.a(s-bbthqu.o)
                0x00000000000066c0                __gnat_context_switch_needed
 .text.system__bb__threads__queues__current_priority
                0x00000000000066dc       0x28 D:\gnat\2018-arm-elf\arm-eabi\lib\gnat\ravenscar-sfp-microbit\adalib\libgnarl.a(s-bbthqu.o)
                0x00000000000066dc                system__bb__threads__queues__current_priority
 .text.system__bb__threads__queues__extract
                0x0000000000006704       0x28 D:\gnat\2018-arm-elf\arm-eabi\lib\gnat\ravenscar-sfp-microbit\adalib\libgnarl.a(s-bbthqu.o)
                0x0000000000006704                system__bb__threads__queues__extract
 .text.system__bb__threads__queues__extract_first_alarm
                0x000000000000672c       0x1c D:\gnat\2018-arm-elf\arm-eabi\lib\gnat\ravenscar-sfp-microbit\adalib\libgnarl.a(s-bbthqu.o)
                0x000000000000672c                system__bb__threads__queues__extract_first_alarm
 .text.system__bb__threads__queues__first_thread
                0x0000000000006748        0xc D:\gnat\2018-arm-elf\arm-eabi\lib\gnat\ravenscar-sfp-microbit\adalib\libgnarl.a(s-bbthqu.o)
                0x0000000000006748                system__bb__threads__queues__first_thread
 .text.system__bb__threads__queues__get_next_alarm_time
                0x0000000000006754       0x28 D:\gnat\2018-arm-elf\arm-eabi\lib\gnat\ravenscar-sfp-microbit\adalib\libgnarl.a(s-bbthqu.o)
                0x0000000000006754                system__bb__threads__queues__get_next_alarm_time
 .text.system__bb__threads__queues__insert
                0x000000000000677c       0x9c D:\gnat\2018-arm-elf\arm-eabi\lib\gnat\ravenscar-sfp-microbit\adalib\libgnarl.a(s-bbthqu.o)
                0x000000000000677c                system__bb__threads__queues__insert
 .text.system__bb__threads__queues__insert_alarm
                0x0000000000006818       0x68 D:\gnat\2018-arm-elf\arm-eabi\lib\gnat\ravenscar-sfp-microbit\adalib\libgnarl.a(s-bbthqu.o)
                0x0000000000006818                system__bb__threads__queues__insert_alarm
 .text.system__bb__threads__queues__running_thread
                0x0000000000006880        0xc D:\gnat\2018-arm-elf\arm-eabi\lib\gnat\ravenscar-sfp-microbit\adalib\libgnarl.a(s-bbthqu.o)
                0x0000000000006880                system__bb__threads__queues__running_thread
 .text.system__bb__threads__queues__wakeup_expired_alarms
                0x000000000000688c      0x130 D:\gnat\2018-arm-elf\arm-eabi\lib\gnat\ravenscar-sfp-microbit\adalib\libgnarl.a(s-bbthqu.o)
                0x000000000000688c                system__bb__threads__queues__wakeup_expired_alarms
 .text.system__bb__threads__queues__yield
                0x00000000000069bc       0x48 D:\gnat\2018-arm-elf\arm-eabi\lib\gnat\ravenscar-sfp-microbit\adalib\libgnarl.a(s-bbthqu.o)
                0x00000000000069bc                system__bb__threads__queues__yield
 .text          0x0000000000006a04        0x0 D:\gnat\2018-arm-elf\arm-eabi\lib\gnat\ravenscar-sfp-microbit\adalib\libgnarl.a(s-bbtime.o)
 .text.system__bb__time__composite_execution_timeIP
                0x0000000000006a04        0x4 D:\gnat\2018-arm-elf\arm-eabi\lib\gnat\ravenscar-sfp-microbit\adalib\libgnarl.a(s-bbtime.o)
                0x0000000000006a04                system__bb__time__composite_execution_timeIP
 .text.system__bb__time__composite_timeIP
                0x0000000000006a08        0xc D:\gnat\2018-arm-elf\arm-eabi\lib\gnat\ravenscar-sfp-microbit\adalib\libgnarl.a(s-bbtime.o)
                0x0000000000006a08                system__bb__time__composite_timeIP
 .text.system__bb__time__clock
                0x0000000000006a14       0x54 D:\gnat\2018-arm-elf\arm-eabi\lib\gnat\ravenscar-sfp-microbit\adalib\libgnarl.a(s-bbtime.o)
                0x0000000000006a14                system__bb__time__clock
 .text.system__bb__time__epoch
                0x0000000000006a68        0x8 D:\gnat\2018-arm-elf\arm-eabi\lib\gnat\ravenscar-sfp-microbit\adalib\libgnarl.a(s-bbtime.o)
                0x0000000000006a68                system__bb__time__epoch
 .text.system__bb__time__get_next_timeout
                0x0000000000006a70       0x54 D:\gnat\2018-arm-elf\arm-eabi\lib\gnat\ravenscar-sfp-microbit\adalib\libgnarl.a(s-bbtime.o)
                0x0000000000006a70                system__bb__time__get_next_timeout
 .text.system__bb__time__initialize_timers
                0x0000000000006ac4       0x90 D:\gnat\2018-arm-elf\arm-eabi\lib\gnat\ravenscar-sfp-microbit\adalib\libgnarl.a(s-bbtime.o)
                0x0000000000006ac4                system__bb__time__initialize_timers
 .text.system__bb__time__update_alarm
                0x0000000000006b54       0xb4 D:\gnat\2018-arm-elf\arm-eabi\lib\gnat\ravenscar-sfp-microbit\adalib\libgnarl.a(s-bbtime.o)
                0x0000000000006b54                system__bb__time__update_alarm
 .text.system__bb__time__delay_until
                0x0000000000006c08       0xc4 D:\gnat\2018-arm-elf\arm-eabi\lib\gnat\ravenscar-sfp-microbit\adalib\libgnarl.a(s-bbtime.o)
                0x0000000000006c08                system__bb__time__delay_until
 .text.system__bb__time__alarm_handler
                0x0000000000006ccc       0x90 D:\gnat\2018-arm-elf\arm-eabi\lib\gnat\ravenscar-sfp-microbit\adalib\libgnarl.a(s-bbtime.o)
 .text.system__bb__time__Oconcat
                0x0000000000006d5c       0x14 D:\gnat\2018-arm-elf\arm-eabi\lib\gnat\ravenscar-sfp-microbit\adalib\libgnarl.a(s-bbtime.o)
                0x0000000000006d5c                system__bb__time__Oconcat
 .text          0x0000000000006d70        0x0 D:\gnat\2018-arm-elf\arm-eabi\lib\gnat\ravenscar-sfp-microbit\adalib\libgnarl.a(s-bcpcst.o)
 .text.system__bb__cpu_primitives__context_switch_trigger__initialize_context_switch
                0x0000000000006d70        0x4 D:\gnat\2018-arm-elf\arm-eabi\lib\gnat\ravenscar-sfp-microbit\adalib\libgnarl.a(s-bcpcst.o)
                0x0000000000006d70                system__bb__cpu_primitives__context_switch_trigger__initialize_context_switch
 .text.system__bb__cpu_primitives__context_switch_trigger__trigger_context_switch
                0x0000000000006d74       0x10 D:\gnat\2018-arm-elf\arm-eabi\lib\gnat\ravenscar-sfp-microbit\adalib\libgnarl.a(s-bcpcst.o)
                0x0000000000006d74                system__bb__cpu_primitives__context_switch_trigger__trigger_context_switch
 .text.__gnat_pend_sv_trap
                0x0000000000006d84       0x48 D:\gnat\2018-arm-elf\arm-eabi\lib\gnat\ravenscar-sfp-microbit\adalib\libgnarl.a(s-bcpcst.o)
                0x0000000000006d84                __gnat_pend_sv_trap
 .text          0x0000000000006dcc        0x0 D:\gnat\2018-arm-elf\arm-eabi\lib\gnat\ravenscar-sfp-microbit\adalib\libgnarl.a(s-taskin.o)
 .text.system__tasking__E5sIP
                0x0000000000006dcc        0x8 D:\gnat\2018-arm-elf\arm-eabi\lib\gnat\ravenscar-sfp-microbit\adalib\libgnarl.a(s-taskin.o)
                0x0000000000006dcc                system__tasking__E5sIP
 .text.system__tasking__activation_chainIP
                0x0000000000006dd4        0x8 D:\gnat\2018-arm-elf\arm-eabi\lib\gnat\ravenscar-sfp-microbit\adalib\libgnarl.a(s-taskin.o)
                0x0000000000006dd4                system__tasking__activation_chainIP
 .text.__gnat_get_secondary_stack
                0x0000000000006ddc       0x10 D:\gnat\2018-arm-elf\arm-eabi\lib\gnat\ravenscar-sfp-microbit\adalib\libgnarl.a(s-taskin.o)
                0x0000000000006ddc                __gnat_get_secondary_stack
 .text.system__tasking__initialize_atcb
                0x0000000000006dec       0x34 D:\gnat\2018-arm-elf\arm-eabi\lib\gnat\ravenscar-sfp-microbit\adalib\libgnarl.a(s-taskin.o)
                0x0000000000006dec                system__tasking__initialize_atcb
 .text.system__tasking__initialize
                0x0000000000006e20      0x17c D:\gnat\2018-arm-elf\arm-eabi\lib\gnat\ravenscar-sfp-microbit\adalib\libgnarl.a(s-taskin.o)
                0x0000000000006e20                system__tasking__initialize
 .text.system__tasking__self
                0x0000000000006f9c        0xc D:\gnat\2018-arm-elf\arm-eabi\lib\gnat\ravenscar-sfp-microbit\adalib\libgnarl.a(s-taskin.o)
                0x0000000000006f9c                system__tasking(short,...)(long, float)
 .text.system__tasking__storage_size
                0x0000000000006fa8        0x8 D:\gnat\2018-arm-elf\arm-eabi\lib\gnat\ravenscar-sfp-microbit\adalib\libgnarl.a(s-taskin.o)
                0x0000000000006fa8                system__tasking__storage_size
 .text          0x0000000000006fb0        0x0 D:\gnat\2018-arm-elf\arm-eabi\lib\gnat\ravenscar-sfp-microbit\adalib\libgnarl.a(s-bbprot.o)
 .text.system__bb__protection__enter_kernel
                0x0000000000006fb0        0x4 D:\gnat\2018-arm-elf\arm-eabi\lib\gnat\ravenscar-sfp-microbit\adalib\libgnarl.a(s-bbprot.o)
                0x0000000000006fb0                system__bb__protection__enter_kernel
 .text.system__bb__protection__leave_kernel
                0x0000000000006fb4       0x3c D:\gnat\2018-arm-elf\arm-eabi\lib\gnat\ravenscar-sfp-microbit\adalib\libgnarl.a(s-bbprot.o)
                0x0000000000006fb4                system__bb__protection__leave_kernel
 .text          0x0000000000006ff0        0x0 D:\gnat\2018-arm-elf\arm-eabi\lib\gnat\ravenscar-sfp-microbit\adalib\libgnarl.a(s-bbthre.o)
 .text.system__bb__threads__initialize_thread
                0x0000000000006ff0      0x11c D:\gnat\2018-arm-elf\arm-eabi\lib\gnat\ravenscar-sfp-microbit\adalib\libgnarl.a(s-bbthre.o)
 .text.system__bb__threads__thread_descriptorIP
                0x000000000000710c        0xc D:\gnat\2018-arm-elf\arm-eabi\lib\gnat\ravenscar-sfp-microbit\adalib\libgnarl.a(s-bbthre.o)
                0x000000000000710c                system__bb__threads__thread_descriptorIP
 .text.system__bb__threads__get_affinity
                0x0000000000007118        0x8 D:\gnat\2018-arm-elf\arm-eabi\lib\gnat\ravenscar-sfp-microbit\adalib\libgnarl.a(s-bbthre.o)
                0x0000000000007118                system__bb__threads__get_affinity
 .text.system__bb__threads__get_cpu
                0x0000000000007120       0x10 D:\gnat\2018-arm-elf\arm-eabi\lib\gnat\ravenscar-sfp-microbit\adalib\libgnarl.a(s-bbthre.o)
                0x0000000000007120                system__bb__threads__get_cpu
 .text.system__bb__threads__get_atcb
                0x0000000000007130        0xc D:\gnat\2018-arm-elf\arm-eabi\lib\gnat\ravenscar-sfp-microbit\adalib\libgnarl.a(s-bbthre.o)
                0x0000000000007130                system__bb__threads__get_atcb
 .text.system__bb__threads__get_priority
                0x000000000000713c        0x4 D:\gnat\2018-arm-elf\arm-eabi\lib\gnat\ravenscar-sfp-microbit\adalib\libgnarl.a(s-bbthre.o)
                0x000000000000713c                system__bb__threads__get_priority
 .text.system__bb__threads__initialize
                0x0000000000007140       0xb8 D:\gnat\2018-arm-elf\arm-eabi\lib\gnat\ravenscar-sfp-microbit\adalib\libgnarl.a(s-bbthre.o)
                0x0000000000007140                system__bb__threads__initialize
 .text.system__bb__threads__initialize_slave
                0x00000000000071f8       0x28 D:\gnat\2018-arm-elf\arm-eabi\lib\gnat\ravenscar-sfp-microbit\adalib\libgnarl.a(s-bbthre.o)
                0x00000000000071f8                system__bb__threads__initialize_slave
 .text.system__bb__threads__set_atcb
                0x0000000000007220        0x4 D:\gnat\2018-arm-elf\arm-eabi\lib\gnat\ravenscar-sfp-microbit\adalib\libgnarl.a(s-bbthre.o)
                0x0000000000007220                system__bb__threads__set_atcb
 .text.system__bb__threads__set_priority
                0x0000000000007224       0x18 D:\gnat\2018-arm-elf\arm-eabi\lib\gnat\ravenscar-sfp-microbit\adalib\libgnarl.a(s-bbthre.o)
                0x0000000000007224                system__bb__threads__set_priority
 .text.system__bb__threads__sleep
                0x000000000000723c       0x4c D:\gnat\2018-arm-elf\arm-eabi\lib\gnat\ravenscar-sfp-microbit\adalib\libgnarl.a(s-bbthre.o)
                0x000000000000723c                system__bb__threads(short, long,...)(...)( *)
 .text.system__bb__threads__thread_create
                0x0000000000007288       0x2c D:\gnat\2018-arm-elf\arm-eabi\lib\gnat\ravenscar-sfp-microbit\adalib\libgnarl.a(s-bbthre.o)
                0x0000000000007288                system__bb__threads__thread_create
 .text.system__bb__threads__thread_self
                0x00000000000072b4        0xc D:\gnat\2018-arm-elf\arm-eabi\lib\gnat\ravenscar-sfp-microbit\adalib\libgnarl.a(s-bbthre.o)
                0x00000000000072b4                system__bb__threads__thread_self
 .text.system__bb__threads__wakeup
                0x00000000000072c0       0xb8 D:\gnat\2018-arm-elf\arm-eabi\lib\gnat\ravenscar-sfp-microbit\adalib\libgnarl.a(s-bbthre.o)
                0x00000000000072c0                system__bb__threads__wakeup
 .text          0x0000000000007378        0x0 D:\gnat\2018-arm-elf\arm-eabi\lib\gnat\ravenscar-sfp-microbit\adalib\libgnarl.a(s-bbtiev.o)
 .text.system__bb__timing_events___size
                0x0000000000007378        0x8 D:\gnat\2018-arm-elf\arm-eabi\lib\gnat\ravenscar-sfp-microbit\adalib\libgnarl.a(s-bbtiev.o)
                0x0000000000007378                system__bb__timing_events___size
 .text.system__bb__timing_events__time_of_event
                0x0000000000007380       0x14 D:\gnat\2018-arm-elf\arm-eabi\lib\gnat\ravenscar-sfp-microbit\adalib\libgnarl.a(s-bbtiev.o)
                0x0000000000007380                system__bb__timing_events__time_of_event
 .text.system__bb__timing_events__extract
                0x0000000000007394       0x34 D:\gnat\2018-arm-elf\arm-eabi\lib\gnat\ravenscar-sfp-microbit\adalib\libgnarl.a(s-bbtiev.o)
 .text.system__bb__timing_events__set_handler
                0x00000000000073c8       0x8c D:\gnat\2018-arm-elf\arm-eabi\lib\gnat\ravenscar-sfp-microbit\adalib\libgnarl.a(s-bbtiev.o)
                0x00000000000073c8                system__bb__timing_events__set_handler
 .text.system__bb__timing_events__cancel_handler
                0x0000000000007454       0x2c D:\gnat\2018-arm-elf\arm-eabi\lib\gnat\ravenscar-sfp-microbit\adalib\libgnarl.a(s-bbtiev.o)
                0x0000000000007454                system__bb__timing_events__cancel_handler
 .text.system__bb__timing_events__timing_eventIP
                0x0000000000007480       0x20 D:\gnat\2018-arm-elf\arm-eabi\lib\gnat\ravenscar-sfp-microbit\adalib\libgnarl.a(s-bbtiev.o)
                0x0000000000007480                system__bb__timing_events__timing_eventIP
 .text.system__bb__timing_events__execute_expired_timing_events
                0x00000000000074a0       0x84 D:\gnat\2018-arm-elf\arm-eabi\lib\gnat\ravenscar-sfp-microbit\adalib\libgnarl.a(s-bbtiev.o)
                0x00000000000074a0                system__bb__timing_events__execute_expired_timing_events
 .text.system__bb__timing_events__get_next_timeout
                0x0000000000007524       0x28 D:\gnat\2018-arm-elf\arm-eabi\lib\gnat\ravenscar-sfp-microbit\adalib\libgnarl.a(s-bbtiev.o)
                0x0000000000007524                system__bb__timing_events__get_next_timeout
 .text          0x000000000000754c        0x0 D:\gnat\2018-arm-elf\arm-eabi\lib\gnat\ravenscar-sfp-microbit\adalib\libgnarl.a(s-taprop.o)
 .text.system__task_primitives__operations__Tidle_stacksBIP
                0x000000000000754c        0x4 D:\gnat\2018-arm-elf\arm-eabi\lib\gnat\ravenscar-sfp-microbit\adalib\libgnarl.a(s-taprop.o)
                0x000000000000754c                system__task_primitives__operations__Tidle_stacksBIP
 .text.system__task_primitives__operations__Tidle_stacks_tableBIP
                0x0000000000007550        0x4 D:\gnat\2018-arm-elf\arm-eabi\lib\gnat\ravenscar-sfp-microbit\adalib\libgnarl.a(s-taprop.o)
                0x0000000000007550                system__task_primitives__operations__Tidle_stacks_tableBIP
 .text.system__task_primitives__operations__Tidle_tasksBIP
                0x0000000000007554        0x4 D:\gnat\2018-arm-elf\arm-eabi\lib\gnat\ravenscar-sfp-microbit\adalib\libgnarl.a(s-taprop.o)
                0x0000000000007554                system__task_primitives__operations__Tidle_tasksBIP
 .text.system__task_primitives__operations__self
                0x0000000000007558        0xc D:\gnat\2018-arm-elf\arm-eabi\lib\gnat\ravenscar-sfp-microbit\adalib\libgnarl.a(s-taprop.o)
                0x0000000000007558                system__task_primitives__operations(short,...)(long, float)
 .text.system__task_primitives__operations__sleep
                0x0000000000007564        0x8 D:\gnat\2018-arm-elf\arm-eabi\lib\gnat\ravenscar-sfp-microbit\adalib\libgnarl.a(s-taprop.o)
                0x0000000000007564                system__task_primitives__operations(short, long,...)(...)( *)
 .text.system__task_primitives__operations__delay_until
                0x000000000000756c       0x1c D:\gnat\2018-arm-elf\arm-eabi\lib\gnat\ravenscar-sfp-microbit\adalib\libgnarl.a(s-taprop.o)
                0x000000000000756c                system__task_primitives__operations__delay_until
 .text.system__task_primitives__operations__monotonic_clock
                0x0000000000007588       0x54 D:\gnat\2018-arm-elf\arm-eabi\lib\gnat\ravenscar-sfp-microbit\adalib\libgnarl.a(s-taprop.o)
                0x0000000000007588                system__task_primitives__operations__monotonic_clock
 .text.system__task_primitives__operations__wakeup
                0x00000000000075dc        0xc D:\gnat\2018-arm-elf\arm-eabi\lib\gnat\ravenscar-sfp-microbit\adalib\libgnarl.a(s-taprop.o)
                0x00000000000075dc                system__task_primitives__operations__wakeup
 .text.system__task_primitives__operations__set_priority
                0x00000000000075e8       0x18 D:\gnat\2018-arm-elf\arm-eabi\lib\gnat\ravenscar-sfp-microbit\adalib\libgnarl.a(s-taprop.o)
                0x00000000000075e8                system__task_primitives__operations__set_priority
 .text.system__task_primitives__operations__get_priority
                0x0000000000007600        0x8 D:\gnat\2018-arm-elf\arm-eabi\lib\gnat\ravenscar-sfp-microbit\adalib\libgnarl.a(s-taprop.o)
                0x0000000000007600                system__task_primitives__operations__get_priority
 .text.system__task_primitives__operations__get_affinity
                0x0000000000007608        0xc D:\gnat\2018-arm-elf\arm-eabi\lib\gnat\ravenscar-sfp-microbit\adalib\libgnarl.a(s-taprop.o)
                0x0000000000007608                system__task_primitives__operations__get_affinity
 .text.system__task_primitives__operations__get_cpu
                0x0000000000007614       0x14 D:\gnat\2018-arm-elf\arm-eabi\lib\gnat\ravenscar-sfp-microbit\adalib\libgnarl.a(s-taprop.o)
                0x0000000000007614                system__task_primitives__operations__get_cpu
 .text.system__task_primitives__operations__get_thread_id
                0x0000000000007628        0x8 D:\gnat\2018-arm-elf\arm-eabi\lib\gnat\ravenscar-sfp-microbit\adalib\libgnarl.a(s-taprop.o)
                0x0000000000007628                system__task_primitives__operations__get_thread_id
 .text.system__task_primitives__operations__enter_task
                0x0000000000007630       0x40 D:\gnat\2018-arm-elf\arm-eabi\lib\gnat\ravenscar-sfp-microbit\adalib\libgnarl.a(s-taprop.o)
                0x0000000000007630                system__task_primitives__operations__enter_task
 .text.system__task_primitives__operations__idle
                0x0000000000007670       0x14 D:\gnat\2018-arm-elf\arm-eabi\lib\gnat\ravenscar-sfp-microbit\adalib\libgnarl.a(s-taprop.o)
                0x0000000000007670                system__task_primitives__operations(int, double, long,...)
 .text.system__task_primitives__operations__initialize_tcb
                0x0000000000007684        0x4 D:\gnat\2018-arm-elf\arm-eabi\lib\gnat\ravenscar-sfp-microbit\adalib\libgnarl.a(s-taprop.o)
                0x0000000000007684                system__task_primitives__operations__initialize_tcb
 .text.system__task_primitives__operations__create_task
                0x0000000000007688       0x34 D:\gnat\2018-arm-elf\arm-eabi\lib\gnat\ravenscar-sfp-microbit\adalib\libgnarl.a(s-taprop.o)
                0x0000000000007688                system__task_primitives__operations__create_task
 .text.system__task_primitives__operations__initialize_idle
                0x00000000000076bc       0x68 D:\gnat\2018-arm-elf\arm-eabi\lib\gnat\ravenscar-sfp-microbit\adalib\libgnarl.a(s-taprop.o)
                0x00000000000076bc                system__task_primitives__operations__initialize_idle
 .text.__gnat_initialize_slave
                0x0000000000007724       0x3c D:\gnat\2018-arm-elf\arm-eabi\lib\gnat\ravenscar-sfp-microbit\adalib\libgnarl.a(s-taprop.o)
                0x0000000000007724                __gnat_initialize_slave
 .text.system__task_primitives__operations__initialize
                0x0000000000007760       0xb0 D:\gnat\2018-arm-elf\arm-eabi\lib\gnat\ravenscar-sfp-microbit\adalib\libgnarl.a(s-taprop.o)
                0x0000000000007760                system__task_primitives__operations__initialize
 .text.system__task_primitives__operations__is_task_context
                0x0000000000007810       0x10 D:\gnat\2018-arm-elf\arm-eabi\lib\gnat\ravenscar-sfp-microbit\adalib\libgnarl.a(s-taprop.o)
                0x0000000000007810                system__task_primitives__operations__is_task_context
 .text          0x0000000000007820        0x0 D:\gnat\2018-arm-elf\arm-eabi\lib\gnat\ravenscar-sfp-microbit\adalib\libgnarl.a(s-tasdeb.o)
 .text.system__tasking__debug__add_task_id
                0x0000000000007820       0x38 D:\gnat\2018-arm-elf\arm-eabi\lib\gnat\ravenscar-sfp-microbit\adalib\libgnarl.a(s-tasdeb.o)
                0x0000000000007820                system__tasking__debug__add_task_id
 .text          0x0000000000007858        0x0 D:\gnat\2018-arm-elf\arm-eabi\lib\gnat\ravenscar-sfp-microbit\adalib\libgnat.a(a-elchha.o)
 .text.ada__exceptions__last_chance_handler__put.4172
                0x0000000000007858       0x20 D:\gnat\2018-arm-elf\arm-eabi\lib\gnat\ravenscar-sfp-microbit\adalib\libgnat.a(a-elchha.o)
 .text.__gnat_last_chance_handler
                0x0000000000007878       0x5c D:\gnat\2018-arm-elf\arm-eabi\lib\gnat\ravenscar-sfp-microbit\adalib\libgnat.a(a-elchha.o)
                0x0000000000007878                __gnat_last_chance_handler
 .text          0x00000000000078d4        0x0 D:\gnat\2018-arm-elf\arm-eabi\lib\gnat\ravenscar-sfp-microbit\adalib\libgnat.a(a-except.o)
 .text          0x00000000000078d4        0x0 D:\gnat\2018-arm-elf\arm-eabi\lib\gnat\ravenscar-sfp-microbit\adalib\libgnat.a(g-io.o)
 .text.gnat__io__put__2
                0x00000000000078d4       0x44 D:\gnat\2018-arm-elf\arm-eabi\lib\gnat\ravenscar-sfp-microbit\adalib\libgnat.a(g-io.o)
                0x00000000000078d4                gnat__io__put__2
 .text.gnat__io__new_line
                0x0000000000007918       0x14 D:\gnat\2018-arm-elf\arm-eabi\lib\gnat\ravenscar-sfp-microbit\adalib\libgnat.a(g-io.o)
                0x0000000000007918                gnat__io__new_line
 .text.gnat__io__put__3
                0x000000000000792c       0x20 D:\gnat\2018-arm-elf\arm-eabi\lib\gnat\ravenscar-sfp-microbit\adalib\libgnat.a(g-io.o)
                0x000000000000792c                gnat__io__put__3
 .text.gnat__io__put
                0x000000000000794c       0x7c D:\gnat\2018-arm-elf\arm-eabi\lib\gnat\ravenscar-sfp-microbit\adalib\libgnat.a(g-io.o)
                0x000000000000794c                gnat__io__put
 .text.gnat__io__put_line
                0x00000000000079c8       0x10 D:\gnat\2018-arm-elf\arm-eabi\lib\gnat\ravenscar-sfp-microbit\adalib\libgnat.a(g-io.o)
                0x00000000000079c8                gnat__io__put_line
 .text          0x00000000000079d8        0x0 D:\gnat\2018-arm-elf\arm-eabi\lib\gnat\ravenscar-sfp-microbit\adalib\libgnat.a(s-assert.o)
 .text.system__assertions__raise_assert_failure
                0x00000000000079d8       0x70 D:\gnat\2018-arm-elf\arm-eabi\lib\gnat\ravenscar-sfp-microbit\adalib\libgnat.a(s-assert.o)
                0x00000000000079d8                system__assertions__raise_assert_failure
 .text          0x0000000000007a48        0x0 D:\gnat\2018-arm-elf\arm-eabi\lib\gnat\ravenscar-sfp-microbit\adalib\libgnat.a(s-macres.o)
 .text.abort    0x0000000000007a48       0x10 D:\gnat\2018-arm-elf\arm-eabi\lib\gnat\ravenscar-sfp-microbit\adalib\libgnat.a(s-macres.o)
                0x0000000000007a48                abort
 .text._exit    0x0000000000007a58       0x10 D:\gnat\2018-arm-elf\arm-eabi\lib\gnat\ravenscar-sfp-microbit\adalib\libgnat.a(s-macres.o)
                0x0000000000007a58                _exit
 .text.system__machine_reset__stop
                0x0000000000007a68       0x10 D:\gnat\2018-arm-elf\arm-eabi\lib\gnat\ravenscar-sfp-microbit\adalib\libgnat.a(s-macres.o)
                0x0000000000007a68                system__machine_reset__stop
 .text          0x0000000000007a78        0x0 D:\gnat\2018-arm-elf\arm-eabi\lib\gnat\ravenscar-sfp-microbit\adalib\libgnat.a(s-memcop.o)
 .text.memcpy   0x0000000000007a78       0x4c D:\gnat\2018-arm-elf\arm-eabi\lib\gnat\ravenscar-sfp-microbit\adalib\libgnat.a(s-memcop.o)
                0x0000000000007a78                memcpy
 .text          0x0000000000007ac4        0x0 D:\gnat\2018-arm-elf\arm-eabi\lib\gnat\ravenscar-sfp-microbit\adalib\libgnat.a(s-memset.o)
 .text.memset   0x0000000000007ac4       0x40 D:\gnat\2018-arm-elf\arm-eabi\lib\gnat\ravenscar-sfp-microbit\adalib\libgnat.a(s-memset.o)
                0x0000000000007ac4                memset
 .text          0x0000000000007b04        0x0 D:\gnat\2018-arm-elf\arm-eabi\lib\gnat\ravenscar-sfp-microbit\adalib\libgnat.a(s-parame.o)
 .text.system__parameters__adjust_storage_size
                0x0000000000007b04       0x10 D:\gnat\2018-arm-elf\arm-eabi\lib\gnat\ravenscar-sfp-microbit\adalib\libgnat.a(s-parame.o)
                0x0000000000007b04                system__parameters__adjust_storage_size
 .text          0x0000000000007b14        0x0 D:\gnat\2018-arm-elf\arm-eabi\lib\gnat\ravenscar-sfp-microbit\adalib\libgnat.a(s-secsta.o)
 .text.system__secondary_stack__memoryIP
                0x0000000000007b14        0x4 D:\gnat\2018-arm-elf\arm-eabi\lib\gnat\ravenscar-sfp-microbit\adalib\libgnat.a(s-secsta.o)
                0x0000000000007b14                system__secondary_stack__memoryIP
 .text.system__secondary_stack__ss_stackIP
                0x0000000000007b18        0x4 D:\gnat\2018-arm-elf\arm-eabi\lib\gnat\ravenscar-sfp-microbit\adalib\libgnat.a(s-secsta.o)
                0x0000000000007b18                system__secondary_stack__ss_stackIP
 .text.system__secondary_stack__ss_allocate
                0x0000000000007b1c       0x58 D:\gnat\2018-arm-elf\arm-eabi\lib\gnat\ravenscar-sfp-microbit\adalib\libgnat.a(s-secsta.o)
                0x0000000000007b1c                system__secondary_stack__ss_allocate
 .text.system__secondary_stack__ss_get_max
                0x0000000000007b74       0x10 D:\gnat\2018-arm-elf\arm-eabi\lib\gnat\ravenscar-sfp-microbit\adalib\libgnat.a(s-secsta.o)
                0x0000000000007b74                system__secondary_stack__ss_get_max
 .text.system__secondary_stack__ss_init
                0x0000000000007b84       0x80 D:\gnat\2018-arm-elf\arm-eabi\lib\gnat\ravenscar-sfp-microbit\adalib\libgnat.a(s-secsta.o)
                0x0000000000007b84                system__secondary_stack__ss_init
 .text.system__secondary_stack__ss_mark
                0x0000000000007c04        0xc D:\gnat\2018-arm-elf\arm-eabi\lib\gnat\ravenscar-sfp-microbit\adalib\libgnat.a(s-secsta.o)
                0x0000000000007c04                system__secondary_stack__ss_mark
 .text.system__secondary_stack__ss_release
                0x0000000000007c10        0xc D:\gnat\2018-arm-elf\arm-eabi\lib\gnat\ravenscar-sfp-microbit\adalib\libgnat.a(s-secsta.o)
                0x0000000000007c10                system__secondary_stack__ss_release
 .text          0x0000000000007c1c        0x0 D:\gnat\2018-arm-elf\arm-eabi\lib\gnat\ravenscar-sfp-microbit\adalib\libgnat.a(s-textio.o)
 .text.system__text_io__get
                0x0000000000007c1c       0x1c D:\gnat\2018-arm-elf\arm-eabi\lib\gnat\ravenscar-sfp-microbit\adalib\libgnat.a(s-textio.o)
                0x0000000000007c1c                system__text_io__get
 .text.system__text_io__is_rx_ready
                0x0000000000007c38       0x14 D:\gnat\2018-arm-elf\arm-eabi\lib\gnat\ravenscar-sfp-microbit\adalib\libgnat.a(s-textio.o)
                0x0000000000007c38                system__text_io__is_rx_ready
 .text.system__text_io__is_tx_ready
                0x0000000000007c4c       0x14 D:\gnat\2018-arm-elf\arm-eabi\lib\gnat\ravenscar-sfp-microbit\adalib\libgnat.a(s-textio.o)
                0x0000000000007c4c                system__text_io__is_tx_ready
 .text.system__text_io__put
                0x0000000000007c60       0x20 D:\gnat\2018-arm-elf\arm-eabi\lib\gnat\ravenscar-sfp-microbit\adalib\libgnat.a(s-textio.o)
                0x0000000000007c60                system__text_io__put
 .text.system__text_io__initialize
                0x0000000000007c80       0x74 D:\gnat\2018-arm-elf\arm-eabi\lib\gnat\ravenscar-sfp-microbit\adalib\libgnat.a(s-textio.o)
                0x0000000000007c80                system__text_io__initialize
 .text.system__text_io__use_cr_lf_for_new_line
                0x0000000000007cf4        0x4 D:\gnat\2018-arm-elf\arm-eabi\lib\gnat\ravenscar-sfp-microbit\adalib\libgnat.a(s-textio.o)
                0x0000000000007cf4                system__text_io__use_cr_lf_for_new_line
 .text          0x0000000000007cf8       0x50 D:\gnat\2018-arm-elf\arm-eabi\lib\gnat\ravenscar-sfp-microbit\adalib\libgnat.a(start-rom.o)
                0x0000000000007cf8                _start_rom
 .text          0x0000000000007d48        0xa D:\gnat\2018-arm-elf\arm-eabi\lib\gnat\ravenscar-sfp-microbit\adalib\libgnat.a(handler.o)
 .text          0x0000000000007d52       0x20 D:\gnat\2018-arm-elf\arm-eabi\lib\gnat\ravenscar-sfp-microbit\adalib\libgnat.a(breakpoint_handler-cortexm.o)
                0x0000000000007d52                __gnat_bkpt_trap
 *fill*         0x0000000000007d72        0x2 
 .text          0x0000000000007d74      0x1d4 d:/gnat/2018-arm-elf/bin/../lib/gcc/arm-eabi/7.3.1/thumb/v6-m\libgcc.a(_divsi3.o)
                0x0000000000007d74                __divsi3
                0x0000000000007d74                __aeabi_idiv
                0x0000000000007f40                __aeabi_idivmod
 .text          0x0000000000007f48        0x4 d:/gnat/2018-arm-elf/bin/../lib/gcc/arm-eabi/7.3.1/thumb/v6-m\libgcc.a(_dvmd_tls.o)
                0x0000000000007f48                __aeabi_idiv0
                0x0000000000007f48                __aeabi_ldiv0
 .text          0x0000000000007f4c       0x74 d:/gnat/2018-arm-elf/bin/../lib/gcc/arm-eabi/7.3.1/thumb/v6-m\libgcc.a(_arm_cmpsf2.o)
                0x0000000000007f4c                __aeabi_cfrcmple
                0x0000000000007f54                __aeabi_cfcmpeq
                0x0000000000007f54                __aeabi_cfcmple
                0x0000000000007f64                __aeabi_fcmpeq
                0x0000000000007f70                __aeabi_fcmplt
                0x0000000000007f84                __aeabi_fcmple
                0x0000000000007f98                __aeabi_fcmpgt
                0x0000000000007fac                __aeabi_fcmpge
 .text          0x0000000000007fc0       0x48 d:/gnat/2018-arm-elf/bin/../lib/gcc/arm-eabi/7.3.1/thumb/v6-m\libgcc.a(_aeabi_ldivmod.o)
                0x0000000000007fc0                __aeabi_ldivmod
 .text          0x0000000000008008       0x40 d:/gnat/2018-arm-elf/bin/../lib/gcc/arm-eabi/7.3.1/thumb/v6-m\libgcc.a(_aeabi_uldivmod.o)
                0x0000000000008008                __aeabi_uldivmod
 .text          0x0000000000008048       0x54 d:/gnat/2018-arm-elf/bin/../lib/gcc/arm-eabi/7.3.1/thumb/v6-m\libgcc.a(_muldi3.o)
                0x0000000000008048                __muldi3
                0x0000000000008048                __aeabi_lmul
 .text          0x000000000000809c       0x30 d:/gnat/2018-arm-elf/bin/../lib/gcc/arm-eabi/7.3.1/thumb/v6-m\libgcc.a(_fixunssfsi.o)
                0x000000000000809c                __fixunssfsi
                0x000000000000809c                __aeabi_f2uiz
 .text          0x00000000000080cc      0x184 d:/gnat/2018-arm-elf/bin/../lib/gcc/arm-eabi/7.3.1/thumb/v6-m\libgcc.a(_udivmoddi4.o)
                0x00000000000080cc                __udivmoddi4
 .text          0x0000000000008250       0x38 d:/gnat/2018-arm-elf/bin/../lib/gcc/arm-eabi/7.3.1/thumb/v6-m\libgcc.a(bpabi.o)
                0x0000000000008250                __gnu_ldivmod_helper
 .text          0x0000000000008288      0x33c d:/gnat/2018-arm-elf/bin/../lib/gcc/arm-eabi/7.3.1/thumb/v6-m\libgcc.a(addsf3.o)
                0x0000000000008288                __aeabi_fadd
 .text          0x00000000000085c4      0x21c d:/gnat/2018-arm-elf/bin/../lib/gcc/arm-eabi/7.3.1/thumb/v6-m\libgcc.a(divsf3.o)
                0x00000000000085c4                __aeabi_fdiv
 .text          0x00000000000087e0       0x4c d:/gnat/2018-arm-elf/bin/../lib/gcc/arm-eabi/7.3.1/thumb/v6-m\libgcc.a(eqsf2.o)
                0x00000000000087e0                __eqsf2
                0x00000000000087e0                __nesf2
 .text          0x000000000000882c       0x8c d:/gnat/2018-arm-elf/bin/../lib/gcc/arm-eabi/7.3.1/thumb/v6-m\libgcc.a(gesf2.o)
                0x000000000000882c                __gesf2
                0x000000000000882c                __gtsf2
 .text          0x00000000000088b8       0x84 d:/gnat/2018-arm-elf/bin/../lib/gcc/arm-eabi/7.3.1/thumb/v6-m\libgcc.a(lesf2.o)
                0x00000000000088b8                __ltsf2
                0x00000000000088b8                __lesf2
 .text          0x000000000000893c      0x264 d:/gnat/2018-arm-elf/bin/../lib/gcc/arm-eabi/7.3.1/thumb/v6-m\libgcc.a(mulsf3.o)
                0x000000000000893c                __aeabi_fmul
 .text          0x0000000000008ba0      0x38c d:/gnat/2018-arm-elf/bin/../lib/gcc/arm-eabi/7.3.1/thumb/v6-m\libgcc.a(subsf3.o)
                0x0000000000008ba0                __aeabi_fsub
 .text          0x0000000000008f2c       0x2c d:/gnat/2018-arm-elf/bin/../lib/gcc/arm-eabi/7.3.1/thumb/v6-m\libgcc.a(unordsf2.o)
                0x0000000000008f2c                __aeabi_fcmpun
 .text          0x0000000000008f58       0x40 d:/gnat/2018-arm-elf/bin/../lib/gcc/arm-eabi/7.3.1/thumb/v6-m\libgcc.a(fixsfsi.o)
                0x0000000000008f58                __aeabi_f2iz
 .text          0x0000000000008f98       0x94 d:/gnat/2018-arm-elf/bin/../lib/gcc/arm-eabi/7.3.1/thumb/v6-m\libgcc.a(floatsisf.o)
                0x0000000000008f98                __aeabi_i2f
 .text          0x000000000000902c       0x80 d:/gnat/2018-arm-elf/bin/../lib/gcc/arm-eabi/7.3.1/thumb/v6-m\libgcc.a(floatunsisf.o)
                0x000000000000902c                __aeabi_ui2f
 .text          0x00000000000090ac       0x3c d:/gnat/2018-arm-elf/bin/../lib/gcc/arm-eabi/7.3.1/thumb/v6-m\libgcc.a(_clzsi2.o)
                0x00000000000090ac                __clzsi2
 .text          0x00000000000090e8       0x18 d:/gnat/2018-arm-elf/bin/../lib/gcc/arm-eabi/7.3.1/thumb/v6-m\libgcc.a(_clzdi2.o)
                0x00000000000090e8                __clzdi2
 .text          0x0000000000009100      0x1b0 d:/gnat/2018-arm-elf/bin/../lib/gcc/arm-eabi/7.3.1/thumb/v6-m\libgcc.a(_divdi3.o)
                0x0000000000009100                __divdi3
 *(.gnu.warning)

.glue_7         0x00000000000092b0        0x0
 .glue_7        0x00000000000092b0        0x0 linker stubs

.glue_7t        0x00000000000092b0        0x0
 .glue_7t       0x00000000000092b0        0x0 linker stubs

.vfp11_veneer   0x00000000000092b0        0x0
 .vfp11_veneer  0x00000000000092b0        0x0 linker stubs

.v4_bx          0x00000000000092b0        0x0
 .v4_bx         0x00000000000092b0        0x0 linker stubs

.iplt           0x00000000000092b0        0x0
 .iplt          0x00000000000092b0        0x0 main.o

.ARM.extab      0x00000000000092b0        0x0
 *(.ARM.extab* .gnu.linkonce.armextab.*)
 .ARM.extab     0x00000000000092b0        0x0 d:/gnat/2018-arm-elf/bin/../lib/gcc/arm-eabi/7.3.1/thumb/v6-m\libgcc.a(_udivmoddi4.o)
 .ARM.extab     0x00000000000092b0        0x0 d:/gnat/2018-arm-elf/bin/../lib/gcc/arm-eabi/7.3.1/thumb/v6-m\libgcc.a(_divdi3.o)
                [!provide]                        PROVIDE (__exidx_start, .)

.ARM.exidx      0x00000000000092b0        0x8
 *(.ARM.exidx* .gnu.linkonce.armexidx.*)
 .ARM.exidx     0x00000000000092b0        0x8 d:/gnat/2018-arm-elf/bin/../lib/gcc/arm-eabi/7.3.1/thumb/v6-m\libgcc.a(_udivmoddi4.o)
 .ARM.exidx     0x00000000000092b8        0x0 d:/gnat/2018-arm-elf/bin/../lib/gcc/arm-eabi/7.3.1/thumb/v6-m\libgcc.a(_divdi3.o)
                                          0x8 (size before relaxing)
                [!provide]                        PROVIDE (__exidx_end, .)

.rodata         0x00000000000092b8     0x10a0
 *(.lit)
 *(.rodata .rodata.* .gnu.linkonce.r*)
 .rodata        0x00000000000092b8        0x8 b__main.o
 .rodata.__gnat_version
                0x00000000000092c0       0x2b b__main.o
                0x00000000000092c0                __gnat_version
 *fill*         0x00000000000092eb        0x1 
 .rodata.__gnat_ada_main_program_name
                0x00000000000092ec        0xa b__main.o
                0x00000000000092ec                __gnat_ada_main_program_name
 *fill*         0x00000000000092f6        0x2 
 .rodata        0x00000000000092f8       0x12 D:\programming\ada_projects\Ada_Drivers_Library\boards\MicroBit\obj\zfp_lib_Debug\libada_drivers_library.a(cortex_m-nvic.o)
 *fill*         0x000000000000930a        0x2 
 .rodata        0x000000000000930c      0x1be D:\programming\ada_projects\Ada_Drivers_Library\boards\MicroBit\obj\zfp_lib_Debug\libada_drivers_library.a(microbit-ios.o)
 *fill*         0x00000000000094ca        0x2 
 .rodata.microbit__ios__analog__2
                0x00000000000094cc       0x2c D:\programming\ada_projects\Ada_Drivers_Library\boards\MicroBit\obj\zfp_lib_Debug\libada_drivers_library.a(microbit-ios.o)
 .rodata.microbit__ios__no_pwm
                0x00000000000094f8        0x1 D:\programming\ada_projects\Ada_Drivers_Library\boards\MicroBit\obj\zfp_lib_Debug\libada_drivers_library.a(microbit-ios.o)
                0x00000000000094f8                microbit__ios__no_pwm
 *fill*         0x00000000000094f9        0x3 
 .rodata.microbit__ios__pwm_timer
                0x00000000000094fc        0x4 D:\programming\ada_projects\Ada_Drivers_Library\boards\MicroBit\obj\zfp_lib_Debug\libada_drivers_library.a(microbit-ios.o)
                0x00000000000094fc                microbit__ios__pwm_timer
 .rodata.microbit__ios__pwm_interrupt
                0x0000000000009500        0x1 D:\programming\ada_projects\Ada_Drivers_Library\boards\MicroBit\obj\zfp_lib_Debug\libada_drivers_library.a(microbit-ios.o)
                0x0000000000009500                microbit__ios__pwm_interrupt
 .rodata.microbit__ios__pwm_global_compare
                0x0000000000009501        0x1 D:\programming\ada_projects\Ada_Drivers_Library\boards\MicroBit\obj\zfp_lib_Debug\libada_drivers_library.a(microbit-ios.o)
                0x0000000000009501                microbit__ios__pwm_global_compare
 *fill*         0x0000000000009502        0x2 
 .rodata        0x0000000000009504        0xe D:\programming\ada_projects\Ada_Drivers_Library\boards\MicroBit\obj\zfp_lib_Debug\libada_drivers_library.a(nrf51-adc.o)
 *fill*         0x0000000000009512        0x2 
 .rodata.nrf51__adc__start_pin_conversion
                0x0000000000009514       0x1c D:\programming\ada_projects\Ada_Drivers_Library\boards\MicroBit\obj\zfp_lib_Debug\libada_drivers_library.a(nrf51-adc.o)
 .rodata        0x0000000000009530       0x11 D:\programming\ada_projects\Ada_Drivers_Library\boards\MicroBit\obj\zfp_lib_Debug\libada_drivers_library.a(nrf51-events.o)
 *fill*         0x0000000000009541        0x3 
 .rodata.nrf51__events__power_pofwarn
                0x0000000000009544        0x4 D:\programming\ada_projects\Ada_Drivers_Library\boards\MicroBit\obj\zfp_lib_Debug\libada_drivers_library.a(nrf51-events.o)
                0x0000000000009544                nrf51__events__power_pofwarn
 .rodata.nrf51__events__clock_hfclkstarted
                0x0000000000009548        0x4 D:\programming\ada_projects\Ada_Drivers_Library\boards\MicroBit\obj\zfp_lib_Debug\libada_drivers_library.a(nrf51-events.o)
                0x0000000000009548                nrf51__events__clock_hfclkstarted
 .rodata.nrf51__events__clock_lfclkstarted
                0x000000000000954c        0x4 D:\programming\ada_projects\Ada_Drivers_Library\boards\MicroBit\obj\zfp_lib_Debug\libada_drivers_library.a(nrf51-events.o)
                0x000000000000954c                nrf51__events__clock_lfclkstarted
 .rodata.nrf51__events__clock_done
                0x0000000000009550        0x4 D:\programming\ada_projects\Ada_Drivers_Library\boards\MicroBit\obj\zfp_lib_Debug\libada_drivers_library.a(nrf51-events.o)
                0x0000000000009550                nrf51__events__clock_done
 .rodata.nrf51__events__clock_ctto
                0x0000000000009554        0x4 D:\programming\ada_projects\Ada_Drivers_Library\boards\MicroBit\obj\zfp_lib_Debug\libada_drivers_library.a(nrf51-events.o)
                0x0000000000009554                nrf51__events__clock_ctto
 .rodata.nrf51__events__gpiote_in_0
                0x0000000000009558        0x4 D:\programming\ada_projects\Ada_Drivers_Library\boards\MicroBit\obj\zfp_lib_Debug\libada_drivers_library.a(nrf51-events.o)
                0x0000000000009558                nrf51__events__gpiote_in_0
 .rodata.nrf51__events__gpiote_in_1
                0x000000000000955c        0x4 D:\programming\ada_projects\Ada_Drivers_Library\boards\MicroBit\obj\zfp_lib_Debug\libada_drivers_library.a(nrf51-events.o)
                0x000000000000955c                nrf51__events__gpiote_in_1
 .rodata.nrf51__events__gpiote_in_2
                0x0000000000009560        0x4 D:\programming\ada_projects\Ada_Drivers_Library\boards\MicroBit\obj\zfp_lib_Debug\libada_drivers_library.a(nrf51-events.o)
                0x0000000000009560                nrf51__events__gpiote_in_2
 .rodata.nrf51__events__gpiote_in_3
                0x0000000000009564        0x4 D:\programming\ada_projects\Ada_Drivers_Library\boards\MicroBit\obj\zfp_lib_Debug\libada_drivers_library.a(nrf51-events.o)
                0x0000000000009564                nrf51__events__gpiote_in_3
 .rodata.nrf51__events__gpiote_port
                0x0000000000009568        0x4 D:\programming\ada_projects\Ada_Drivers_Library\boards\MicroBit\obj\zfp_lib_Debug\libada_drivers_library.a(nrf51-events.o)
                0x0000000000009568                nrf51__events__gpiote_port
 .rodata.nrf51__events__radio_ready
                0x000000000000956c        0x4 D:\programming\ada_projects\Ada_Drivers_Library\boards\MicroBit\obj\zfp_lib_Debug\libada_drivers_library.a(nrf51-events.o)
                0x000000000000956c                nrf51__events__radio_ready
 .rodata.nrf51__events__radio_address
                0x0000000000009570        0x4 D:\programming\ada_projects\Ada_Drivers_Library\boards\MicroBit\obj\zfp_lib_Debug\libada_drivers_library.a(nrf51-events.o)
                0x0000000000009570                nrf51__events__radio_address
 .rodata.nrf51__events__radio_payload
                0x0000000000009574        0x4 D:\programming\ada_projects\Ada_Drivers_Library\boards\MicroBit\obj\zfp_lib_Debug\libada_drivers_library.a(nrf51-events.o)
                0x0000000000009574                nrf51__events__radio_payload
 .rodata.nrf51__events__radio_end
                0x0000000000009578        0x4 D:\programming\ada_projects\Ada_Drivers_Library\boards\MicroBit\obj\zfp_lib_Debug\libada_drivers_library.a(nrf51-events.o)
                0x0000000000009578                nrf51__events__radio_end
 .rodata.nrf51__events__radio_disabled
                0x000000000000957c        0x4 D:\programming\ada_projects\Ada_Drivers_Library\boards\MicroBit\obj\zfp_lib_Debug\libada_drivers_library.a(nrf51-events.o)
                0x000000000000957c                nrf51__events__radio_disabled
 .rodata.nrf51__events__radio_devmatch
                0x0000000000009580        0x4 D:\programming\ada_projects\Ada_Drivers_Library\boards\MicroBit\obj\zfp_lib_Debug\libada_drivers_library.a(nrf51-events.o)
                0x0000000000009580                nrf51__events__radio_devmatch
 .rodata.nrf51__events__radio_devmiss
                0x0000000000009584        0x4 D:\programming\ada_projects\Ada_Drivers_Library\boards\MicroBit\obj\zfp_lib_Debug\libada_drivers_library.a(nrf51-events.o)
                0x0000000000009584                nrf51__events__radio_devmiss
 .rodata.nrf51__events__radio_rssiend
                0x0000000000009588        0x4 D:\programming\ada_projects\Ada_Drivers_Library\boards\MicroBit\obj\zfp_lib_Debug\libada_drivers_library.a(nrf51-events.o)
                0x0000000000009588                nrf51__events__radio_rssiend
 .rodata.nrf51__events__radio_bcmatch
                0x000000000000958c        0x4 D:\programming\ada_projects\Ada_Drivers_Library\boards\MicroBit\obj\zfp_lib_Debug\libada_drivers_library.a(nrf51-events.o)
                0x000000000000958c                nrf51__events__radio_bcmatch
 .rodata.nrf51__events__timer_0_compare_0
                0x0000000000009590        0x4 D:\programming\ada_projects\Ada_Drivers_Library\boards\MicroBit\obj\zfp_lib_Debug\libada_drivers_library.a(nrf51-events.o)
                0x0000000000009590                nrf51__events__timer_0_compare_0
 .rodata.nrf51__events__timer_0_compare_1
                0x0000000000009594        0x4 D:\programming\ada_projects\Ada_Drivers_Library\boards\MicroBit\obj\zfp_lib_Debug\libada_drivers_library.a(nrf51-events.o)
                0x0000000000009594                nrf51__events__timer_0_compare_1
 .rodata.nrf51__events__timer_0_compare_2
                0x0000000000009598        0x4 D:\programming\ada_projects\Ada_Drivers_Library\boards\MicroBit\obj\zfp_lib_Debug\libada_drivers_library.a(nrf51-events.o)
                0x0000000000009598                nrf51__events__timer_0_compare_2
 .rodata.nrf51__events__timer_0_compare_3
                0x000000000000959c        0x4 D:\programming\ada_projects\Ada_Drivers_Library\boards\MicroBit\obj\zfp_lib_Debug\libada_drivers_library.a(nrf51-events.o)
                0x000000000000959c                nrf51__events__timer_0_compare_3
 .rodata.nrf51__events__timer_1_compare_0
                0x00000000000095a0        0x4 D:\programming\ada_projects\Ada_Drivers_Library\boards\MicroBit\obj\zfp_lib_Debug\libada_drivers_library.a(nrf51-events.o)
                0x00000000000095a0                nrf51__events__timer_1_compare_0
 .rodata.nrf51__events__timer_1_compare_1
                0x00000000000095a4        0x4 D:\programming\ada_projects\Ada_Drivers_Library\boards\MicroBit\obj\zfp_lib_Debug\libada_drivers_library.a(nrf51-events.o)
                0x00000000000095a4                nrf51__events__timer_1_compare_1
 .rodata.nrf51__events__timer_1_compare_2
                0x00000000000095a8        0x4 D:\programming\ada_projects\Ada_Drivers_Library\boards\MicroBit\obj\zfp_lib_Debug\libada_drivers_library.a(nrf51-events.o)
                0x00000000000095a8                nrf51__events__timer_1_compare_2
 .rodata.nrf51__events__timer_1_compare_3
                0x00000000000095ac        0x4 D:\programming\ada_projects\Ada_Drivers_Library\boards\MicroBit\obj\zfp_lib_Debug\libada_drivers_library.a(nrf51-events.o)
                0x00000000000095ac                nrf51__events__timer_1_compare_3
 .rodata.nrf51__events__timer_2_compare_0
                0x00000000000095b0        0x4 D:\programming\ada_projects\Ada_Drivers_Library\boards\MicroBit\obj\zfp_lib_Debug\libada_drivers_library.a(nrf51-events.o)
                0x00000000000095b0                nrf51__events__timer_2_compare_0
 .rodata.nrf51__events__timer_2_compare_1
                0x00000000000095b4        0x4 D:\programming\ada_projects\Ada_Drivers_Library\boards\MicroBit\obj\zfp_lib_Debug\libada_drivers_library.a(nrf51-events.o)
                0x00000000000095b4                nrf51__events__timer_2_compare_1
 .rodata.nrf51__events__timer_2_compare_2
                0x00000000000095b8        0x4 D:\programming\ada_projects\Ada_Drivers_Library\boards\MicroBit\obj\zfp_lib_Debug\libada_drivers_library.a(nrf51-events.o)
                0x00000000000095b8                nrf51__events__timer_2_compare_2
 .rodata.nrf51__events__timer_2_compare_3
                0x00000000000095bc        0x4 D:\programming\ada_projects\Ada_Drivers_Library\boards\MicroBit\obj\zfp_lib_Debug\libada_drivers_library.a(nrf51-events.o)
                0x00000000000095bc                nrf51__events__timer_2_compare_3
 .rodata.nrf51__events__rtc_0_tick
                0x00000000000095c0        0x4 D:\programming\ada_projects\Ada_Drivers_Library\boards\MicroBit\obj\zfp_lib_Debug\libada_drivers_library.a(nrf51-events.o)
                0x00000000000095c0                nrf51__events__rtc_0_tick
 .rodata.nrf51__events__rtc_0_overflw
                0x00000000000095c4        0x4 D:\programming\ada_projects\Ada_Drivers_Library\boards\MicroBit\obj\zfp_lib_Debug\libada_drivers_library.a(nrf51-events.o)
                0x00000000000095c4                nrf51__events__rtc_0_overflw
 .rodata.nrf51__events__rtc_0_compare_0
                0x00000000000095c8        0x4 D:\programming\ada_projects\Ada_Drivers_Library\boards\MicroBit\obj\zfp_lib_Debug\libada_drivers_library.a(nrf51-events.o)
                0x00000000000095c8                nrf51__events__rtc_0_compare_0
 .rodata.nrf51__events__rtc_0_compare_1
                0x00000000000095cc        0x4 D:\programming\ada_projects\Ada_Drivers_Library\boards\MicroBit\obj\zfp_lib_Debug\libada_drivers_library.a(nrf51-events.o)
                0x00000000000095cc                nrf51__events__rtc_0_compare_1
 .rodata.nrf51__events__rtc_0_compare_2
                0x00000000000095d0        0x4 D:\programming\ada_projects\Ada_Drivers_Library\boards\MicroBit\obj\zfp_lib_Debug\libada_drivers_library.a(nrf51-events.o)
                0x00000000000095d0                nrf51__events__rtc_0_compare_2
 .rodata.nrf51__events__rtc_0_compare_3
                0x00000000000095d4        0x4 D:\programming\ada_projects\Ada_Drivers_Library\boards\MicroBit\obj\zfp_lib_Debug\libada_drivers_library.a(nrf51-events.o)
                0x00000000000095d4                nrf51__events__rtc_0_compare_3
 .rodata.nrf51__events__rtc_1_tick
                0x00000000000095d8        0x4 D:\programming\ada_projects\Ada_Drivers_Library\boards\MicroBit\obj\zfp_lib_Debug\libada_drivers_library.a(nrf51-events.o)
                0x00000000000095d8                nrf51__events__rtc_1_tick
 .rodata.nrf51__events__rtc_1_overflw
                0x00000000000095dc        0x4 D:\programming\ada_projects\Ada_Drivers_Library\boards\MicroBit\obj\zfp_lib_Debug\libada_drivers_library.a(nrf51-events.o)
                0x00000000000095dc                nrf51__events__rtc_1_overflw
 .rodata.nrf51__events__rtc_1_compare_0
                0x00000000000095e0        0x4 D:\programming\ada_projects\Ada_Drivers_Library\boards\MicroBit\obj\zfp_lib_Debug\libada_drivers_library.a(nrf51-events.o)
                0x00000000000095e0                nrf51__events__rtc_1_compare_0
 .rodata.nrf51__events__rtc_1_compare_1
                0x00000000000095e4        0x4 D:\programming\ada_projects\Ada_Drivers_Library\boards\MicroBit\obj\zfp_lib_Debug\libada_drivers_library.a(nrf51-events.o)
                0x00000000000095e4                nrf51__events__rtc_1_compare_1
 .rodata.nrf51__events__rtc_1_compare_2
                0x00000000000095e8        0x4 D:\programming\ada_projects\Ada_Drivers_Library\boards\MicroBit\obj\zfp_lib_Debug\libada_drivers_library.a(nrf51-events.o)
                0x00000000000095e8                nrf51__events__rtc_1_compare_2
 .rodata.nrf51__events__rtc_1_compare_3
                0x00000000000095ec        0x4 D:\programming\ada_projects\Ada_Drivers_Library\boards\MicroBit\obj\zfp_lib_Debug\libada_drivers_library.a(nrf51-events.o)
                0x00000000000095ec                nrf51__events__rtc_1_compare_3
 .rodata.nrf51__events__watchdog_timeout
                0x00000000000095f0        0x4 D:\programming\ada_projects\Ada_Drivers_Library\boards\MicroBit\obj\zfp_lib_Debug\libada_drivers_library.a(nrf51-events.o)
                0x00000000000095f0                nrf51__events__watchdog_timeout
 .rodata.nrf51__events__rng_valrdy
                0x00000000000095f4        0x4 D:\programming\ada_projects\Ada_Drivers_Library\boards\MicroBit\obj\zfp_lib_Debug\libada_drivers_library.a(nrf51-events.o)
                0x00000000000095f4                nrf51__events__rng_valrdy
 .rodata.nrf51__events__temperature_datardy
                0x00000000000095f8        0x4 D:\programming\ada_projects\Ada_Drivers_Library\boards\MicroBit\obj\zfp_lib_Debug\libada_drivers_library.a(nrf51-events.o)
                0x00000000000095f8                nrf51__events__temperature_datardy
 .rodata.nrf51__events__ecb_end
                0x00000000000095fc        0x4 D:\programming\ada_projects\Ada_Drivers_Library\boards\MicroBit\obj\zfp_lib_Debug\libada_drivers_library.a(nrf51-events.o)
                0x00000000000095fc                nrf51__events__ecb_end
 .rodata.nrf51__events__ecb_error
                0x0000000000009600        0x4 D:\programming\ada_projects\Ada_Drivers_Library\boards\MicroBit\obj\zfp_lib_Debug\libada_drivers_library.a(nrf51-events.o)
                0x0000000000009600                nrf51__events__ecb_error
 .rodata.nrf51__events__ccm_ksgen_end
                0x0000000000009604        0x4 D:\programming\ada_projects\Ada_Drivers_Library\boards\MicroBit\obj\zfp_lib_Debug\libada_drivers_library.a(nrf51-events.o)
                0x0000000000009604                nrf51__events__ccm_ksgen_end
 .rodata.nrf51__events__ccm_crypt_end
                0x0000000000009608        0x4 D:\programming\ada_projects\Ada_Drivers_Library\boards\MicroBit\obj\zfp_lib_Debug\libada_drivers_library.a(nrf51-events.o)
                0x0000000000009608                nrf51__events__ccm_crypt_end
 .rodata.nrf51__events__ccm_error
                0x000000000000960c        0x4 D:\programming\ada_projects\Ada_Drivers_Library\boards\MicroBit\obj\zfp_lib_Debug\libada_drivers_library.a(nrf51-events.o)
                0x000000000000960c                nrf51__events__ccm_error
 .rodata.nrf51__events__aar_end
                0x0000000000009610        0x4 D:\programming\ada_projects\Ada_Drivers_Library\boards\MicroBit\obj\zfp_lib_Debug\libada_drivers_library.a(nrf51-events.o)
                0x0000000000009610                nrf51__events__aar_end
 .rodata.nrf51__events__aar_resolved
                0x0000000000009614        0x4 D:\programming\ada_projects\Ada_Drivers_Library\boards\MicroBit\obj\zfp_lib_Debug\libada_drivers_library.a(nrf51-events.o)
                0x0000000000009614                nrf51__events__aar_resolved
 .rodata.nrf51__events__aar_notresolved
                0x0000000000009618        0x4 D:\programming\ada_projects\Ada_Drivers_Library\boards\MicroBit\obj\zfp_lib_Debug\libada_drivers_library.a(nrf51-events.o)
                0x0000000000009618                nrf51__events__aar_notresolved
 .rodata.nrf51__events__spi_0_ready
                0x000000000000961c        0x4 D:\programming\ada_projects\Ada_Drivers_Library\boards\MicroBit\obj\zfp_lib_Debug\libada_drivers_library.a(nrf51-events.o)
                0x000000000000961c                nrf51__events__spi_0_ready
 .rodata.nrf51__events__spi_1_ready
                0x0000000000009620        0x4 D:\programming\ada_projects\Ada_Drivers_Library\boards\MicroBit\obj\zfp_lib_Debug\libada_drivers_library.a(nrf51-events.o)
                0x0000000000009620                nrf51__events__spi_1_ready
 .rodata.nrf51__events__twi_0_stopped
                0x0000000000009624        0x4 D:\programming\ada_projects\Ada_Drivers_Library\boards\MicroBit\obj\zfp_lib_Debug\libada_drivers_library.a(nrf51-events.o)
                0x0000000000009624                nrf51__events__twi_0_stopped
 .rodata.nrf51__events__twi_0_rxdrdy
                0x0000000000009628        0x4 D:\programming\ada_projects\Ada_Drivers_Library\boards\MicroBit\obj\zfp_lib_Debug\libada_drivers_library.a(nrf51-events.o)
                0x0000000000009628                nrf51__events__twi_0_rxdrdy
 .rodata.nrf51__events__twi_0_txdent
                0x000000000000962c        0x4 D:\programming\ada_projects\Ada_Drivers_Library\boards\MicroBit\obj\zfp_lib_Debug\libada_drivers_library.a(nrf51-events.o)
                0x000000000000962c                nrf51__events__twi_0_txdent
 .rodata.nrf51__events__twi_0_erro
                0x0000000000009630        0x4 D:\programming\ada_projects\Ada_Drivers_Library\boards\MicroBit\obj\zfp_lib_Debug\libada_drivers_library.a(nrf51-events.o)
                0x0000000000009630                nrf51__events__twi_0_erro
 .rodata.nrf51__events__twi_0_bb
                0x0000000000009634        0x4 D:\programming\ada_projects\Ada_Drivers_Library\boards\MicroBit\obj\zfp_lib_Debug\libada_drivers_library.a(nrf51-events.o)
                0x0000000000009634                nrf51__events__twi_0_bb
 .rodata.nrf51__events__twi_0_suspended
                0x0000000000009638        0x4 D:\programming\ada_projects\Ada_Drivers_Library\boards\MicroBit\obj\zfp_lib_Debug\libada_drivers_library.a(nrf51-events.o)
                0x0000000000009638                nrf51__events__twi_0_suspended
 .rodata.nrf51__events__twi_1_stopped
                0x000000000000963c        0x4 D:\programming\ada_projects\Ada_Drivers_Library\boards\MicroBit\obj\zfp_lib_Debug\libada_drivers_library.a(nrf51-events.o)
                0x000000000000963c                nrf51__events__twi_1_stopped
 .rodata.nrf51__events__twi_1_rxdrdy
                0x0000000000009640        0x4 D:\programming\ada_projects\Ada_Drivers_Library\boards\MicroBit\obj\zfp_lib_Debug\libada_drivers_library.a(nrf51-events.o)
                0x0000000000009640                nrf51__events__twi_1_rxdrdy
 .rodata.nrf51__events__twi_1_txdent
                0x0000000000009644        0x4 D:\programming\ada_projects\Ada_Drivers_Library\boards\MicroBit\obj\zfp_lib_Debug\libada_drivers_library.a(nrf51-events.o)
                0x0000000000009644                nrf51__events__twi_1_txdent
 .rodata.nrf51__events__twi_1_erro
                0x0000000000009648        0x4 D:\programming\ada_projects\Ada_Drivers_Library\boards\MicroBit\obj\zfp_lib_Debug\libada_drivers_library.a(nrf51-events.o)
                0x0000000000009648                nrf51__events__twi_1_erro
 .rodata.nrf51__events__twi_1_bb
                0x000000000000964c        0x4 D:\programming\ada_projects\Ada_Drivers_Library\boards\MicroBit\obj\zfp_lib_Debug\libada_drivers_library.a(nrf51-events.o)
                0x000000000000964c                nrf51__events__twi_1_bb
 .rodata.nrf51__events__twi_1_suspended
                0x0000000000009650        0x4 D:\programming\ada_projects\Ada_Drivers_Library\boards\MicroBit\obj\zfp_lib_Debug\libada_drivers_library.a(nrf51-events.o)
                0x0000000000009650                nrf51__events__twi_1_suspended
 .rodata.nrf51__events__uart_rxdrdy
                0x0000000000009654        0x4 D:\programming\ada_projects\Ada_Drivers_Library\boards\MicroBit\obj\zfp_lib_Debug\libada_drivers_library.a(nrf51-events.o)
                0x0000000000009654                nrf51__events__uart_rxdrdy
 .rodata.nrf51__events__uart_txdrdy
                0x0000000000009658        0x4 D:\programming\ada_projects\Ada_Drivers_Library\boards\MicroBit\obj\zfp_lib_Debug\libada_drivers_library.a(nrf51-events.o)
                0x0000000000009658                nrf51__events__uart_txdrdy
 .rodata.nrf51__events__uart_error
                0x000000000000965c        0x4 D:\programming\ada_projects\Ada_Drivers_Library\boards\MicroBit\obj\zfp_lib_Debug\libada_drivers_library.a(nrf51-events.o)
                0x000000000000965c                nrf51__events__uart_error
 .rodata.nrf51__events__qdec_samplerdy
                0x0000000000009660        0x4 D:\programming\ada_projects\Ada_Drivers_Library\boards\MicroBit\obj\zfp_lib_Debug\libada_drivers_library.a(nrf51-events.o)
                0x0000000000009660                nrf51__events__qdec_samplerdy
 .rodata.nrf51__events__qdec_reportrdy
                0x0000000000009664        0x4 D:\programming\ada_projects\Ada_Drivers_Library\boards\MicroBit\obj\zfp_lib_Debug\libada_drivers_library.a(nrf51-events.o)
                0x0000000000009664                nrf51__events__qdec_reportrdy
 .rodata.nrf51__events__qdec_accof
                0x0000000000009668        0x4 D:\programming\ada_projects\Ada_Drivers_Library\boards\MicroBit\obj\zfp_lib_Debug\libada_drivers_library.a(nrf51-events.o)
                0x0000000000009668                nrf51__events__qdec_accof
 .rodata.nrf51__events__adc_end
                0x000000000000966c        0x4 D:\programming\ada_projects\Ada_Drivers_Library\boards\MicroBit\obj\zfp_lib_Debug\libada_drivers_library.a(nrf51-events.o)
                0x000000000000966c                nrf51__events__adc_end
 .rodata        0x0000000000009670       0x20 D:\programming\ada_projects\Ada_Drivers_Library\boards\MicroBit\obj\zfp_lib_Debug\libada_drivers_library.a(nrf51-gpio-tasks_and_events.o)
 .rodata        0x0000000000009690       0xc3 D:\programming\ada_projects\Ada_Drivers_Library\boards\MicroBit\obj\zfp_lib_Debug\libada_drivers_library.a(nrf51-gpio.o)
 *fill*         0x0000000000009753        0x1 
 .rodata.nrf51__gpio__configure_io
                0x0000000000009754       0x1c D:\programming\ada_projects\Ada_Drivers_Library\boards\MicroBit\obj\zfp_lib_Debug\libada_drivers_library.a(nrf51-gpio.o)
 .rodata.nrf51__gpio__gpio_pointP
                0x0000000000009770        0x4 D:\programming\ada_projects\Ada_Drivers_Library\boards\MicroBit\obj\zfp_lib_Debug\libada_drivers_library.a(nrf51-gpio.o)
                0x0000000000009770                nrf51__gpio__gpio_pointP
 .rodata.nrf51__gpio__gpio_pointY
                0x0000000000009774        0x4 D:\programming\ada_projects\Ada_Drivers_Library\boards\MicroBit\obj\zfp_lib_Debug\libada_drivers_library.a(nrf51-gpio.o)
                0x0000000000009774                nrf51__gpio__gpio_pointY
 .rodata.nrf51__gpio__gpio_pointE15s
                0x0000000000009778       0x16 D:\programming\ada_projects\Ada_Drivers_Library\boards\MicroBit\obj\zfp_lib_Debug\libada_drivers_library.a(nrf51-gpio.o)
                0x0000000000009778                nrf51__gpio__gpio_pointE15s
 *fill*         0x000000000000978e        0x2 
 .rodata.nrf51__gpio__gpio_pointB19s
                0x0000000000009790       0x20 D:\programming\ada_projects\Ada_Drivers_Library\boards\MicroBit\obj\zfp_lib_Debug\libada_drivers_library.a(nrf51-gpio.o)
                0x0000000000009790                nrf51__gpio__gpio_pointB19s
 .rodata.nrf51__gpio__gpio_pointR17s___UNC
                0x00000000000097b0       0x24 D:\programming\ada_projects\Ada_Drivers_Library\boards\MicroBit\obj\zfp_lib_Debug\libada_drivers_library.a(nrf51-gpio.o)
                0x00000000000097b0                nrf51__gpio__gpio_pointR17s___UNC
 .rodata.nrf51__gpio__gpio_pointR17s
                0x00000000000097d4        0x4 D:\programming\ada_projects\Ada_Drivers_Library\boards\MicroBit\obj\zfp_lib_Debug\libada_drivers_library.a(nrf51-gpio.o)
                0x00000000000097d4                nrf51__gpio__gpio_pointR17s
 .rodata.nrf51__gpio__gpio_pointT
                0x00000000000097d8       0x38 D:\programming\ada_projects\Ada_Drivers_Library\boards\MicroBit\obj\zfp_lib_Debug\libada_drivers_library.a(nrf51-gpio.o)
                0x00000000000097d8                nrf51__gpio__gpio_pointT
 .rodata        0x0000000000009810       0x15 D:\programming\ada_projects\Ada_Drivers_Library\boards\MicroBit\obj\zfp_lib_Debug\libada_drivers_library.a(nrf51-interrupts.o)
 *fill*         0x0000000000009825        0x3 
 .rodata        0x0000000000009828        0xe D:\programming\ada_projects\Ada_Drivers_Library\boards\MicroBit\obj\zfp_lib_Debug\libada_drivers_library.a(nrf51-ppi.o)
 *fill*         0x0000000000009836        0x2 
 .rodata        0x0000000000009838        0xe D:\programming\ada_projects\Ada_Drivers_Library\boards\MicroBit\obj\zfp_lib_Debug\libada_drivers_library.a(nrf51-rtc.o)
 *fill*         0x0000000000009846        0x2 
 .rodata.nrf51__rtc__event
                0x0000000000009848       0x14 D:\programming\ada_projects\Ada_Drivers_Library\boards\MicroBit\obj\zfp_lib_Debug\libada_drivers_library.a(nrf51-rtc.o)
 .rodata.nrf51__rtc__enable_event
                0x000000000000985c       0x14 D:\programming\ada_projects\Ada_Drivers_Library\boards\MicroBit\obj\zfp_lib_Debug\libada_drivers_library.a(nrf51-rtc.o)
 .rodata.nrf51__rtc__disable_event
                0x0000000000009870       0x14 D:\programming\ada_projects\Ada_Drivers_Library\boards\MicroBit\obj\zfp_lib_Debug\libada_drivers_library.a(nrf51-rtc.o)
 .rodata        0x0000000000009884       0x10 D:\programming\ada_projects\Ada_Drivers_Library\boards\MicroBit\obj\zfp_lib_Debug\libada_drivers_library.a(nrf51-tasks.o)
 .rodata.nrf51__tasks__power_constlat
                0x0000000000009894        0x4 D:\programming\ada_projects\Ada_Drivers_Library\boards\MicroBit\obj\zfp_lib_Debug\libada_drivers_library.a(nrf51-tasks.o)
                0x0000000000009894                nrf51__tasks__power_constlat
 .rodata.nrf51__tasks__power_lowpwr
                0x0000000000009898        0x4 D:\programming\ada_projects\Ada_Drivers_Library\boards\MicroBit\obj\zfp_lib_Debug\libada_drivers_library.a(nrf51-tasks.o)
                0x0000000000009898                nrf51__tasks__power_lowpwr
 .rodata.nrf51__tasks__clock_hfclkstart
                0x000000000000989c        0x4 D:\programming\ada_projects\Ada_Drivers_Library\boards\MicroBit\obj\zfp_lib_Debug\libada_drivers_library.a(nrf51-tasks.o)
                0x000000000000989c                nrf51__tasks__clock_hfclkstart
 .rodata.nrf51__tasks__clock_hfclkstop
                0x00000000000098a0        0x4 D:\programming\ada_projects\Ada_Drivers_Library\boards\MicroBit\obj\zfp_lib_Debug\libada_drivers_library.a(nrf51-tasks.o)
                0x00000000000098a0                nrf51__tasks__clock_hfclkstop
 .rodata.nrf51__tasks__clock_lfclkstart
                0x00000000000098a4        0x4 D:\programming\ada_projects\Ada_Drivers_Library\boards\MicroBit\obj\zfp_lib_Debug\libada_drivers_library.a(nrf51-tasks.o)
                0x00000000000098a4                nrf51__tasks__clock_lfclkstart
 .rodata.nrf51__tasks__clock_lfclkstop
                0x00000000000098a8        0x4 D:\programming\ada_projects\Ada_Drivers_Library\boards\MicroBit\obj\zfp_lib_Debug\libada_drivers_library.a(nrf51-tasks.o)
                0x00000000000098a8                nrf51__tasks__clock_lfclkstop
 .rodata.nrf51__tasks__clock_cal
                0x00000000000098ac        0x4 D:\programming\ada_projects\Ada_Drivers_Library\boards\MicroBit\obj\zfp_lib_Debug\libada_drivers_library.a(nrf51-tasks.o)
                0x00000000000098ac                nrf51__tasks__clock_cal
 .rodata.nrf51__tasks__clock_ctstart
                0x00000000000098b0        0x4 D:\programming\ada_projects\Ada_Drivers_Library\boards\MicroBit\obj\zfp_lib_Debug\libada_drivers_library.a(nrf51-tasks.o)
                0x00000000000098b0                nrf51__tasks__clock_ctstart
 .rodata.nrf51__tasks__clock_ctstop
                0x00000000000098b4        0x4 D:\programming\ada_projects\Ada_Drivers_Library\boards\MicroBit\obj\zfp_lib_Debug\libada_drivers_library.a(nrf51-tasks.o)
                0x00000000000098b4                nrf51__tasks__clock_ctstop
 .rodata.nrf51__tasks__gpiote_out_0
                0x00000000000098b8        0x4 D:\programming\ada_projects\Ada_Drivers_Library\boards\MicroBit\obj\zfp_lib_Debug\libada_drivers_library.a(nrf51-tasks.o)
                0x00000000000098b8                nrf51__tasks__gpiote_out_0
 .rodata.nrf51__tasks__gpiote_out_1
                0x00000000000098bc        0x4 D:\programming\ada_projects\Ada_Drivers_Library\boards\MicroBit\obj\zfp_lib_Debug\libada_drivers_library.a(nrf51-tasks.o)
                0x00000000000098bc                nrf51__tasks__gpiote_out_1
 .rodata.nrf51__tasks__gpiote_out_2
                0x00000000000098c0        0x4 D:\programming\ada_projects\Ada_Drivers_Library\boards\MicroBit\obj\zfp_lib_Debug\libada_drivers_library.a(nrf51-tasks.o)
                0x00000000000098c0                nrf51__tasks__gpiote_out_2
 .rodata.nrf51__tasks__gpiote_out_3
                0x00000000000098c4        0x4 D:\programming\ada_projects\Ada_Drivers_Library\boards\MicroBit\obj\zfp_lib_Debug\libada_drivers_library.a(nrf51-tasks.o)
                0x00000000000098c4                nrf51__tasks__gpiote_out_3
 .rodata.nrf51__tasks__ppi_chg_0_en
                0x00000000000098c8        0x4 D:\programming\ada_projects\Ada_Drivers_Library\boards\MicroBit\obj\zfp_lib_Debug\libada_drivers_library.a(nrf51-tasks.o)
                0x00000000000098c8                nrf51__tasks__ppi_chg_0_en
 .rodata.nrf51__tasks__ppi_chg_0_dis
                0x00000000000098cc        0x4 D:\programming\ada_projects\Ada_Drivers_Library\boards\MicroBit\obj\zfp_lib_Debug\libada_drivers_library.a(nrf51-tasks.o)
                0x00000000000098cc                nrf51__tasks__ppi_chg_0_dis
 .rodata.nrf51__tasks__ppi_chg_1_en
                0x00000000000098d0        0x4 D:\programming\ada_projects\Ada_Drivers_Library\boards\MicroBit\obj\zfp_lib_Debug\libada_drivers_library.a(nrf51-tasks.o)
                0x00000000000098d0                nrf51__tasks__ppi_chg_1_en
 .rodata.nrf51__tasks__ppi_chg_1_dis
                0x00000000000098d4        0x4 D:\programming\ada_projects\Ada_Drivers_Library\boards\MicroBit\obj\zfp_lib_Debug\libada_drivers_library.a(nrf51-tasks.o)
                0x00000000000098d4                nrf51__tasks__ppi_chg_1_dis
 .rodata.nrf51__tasks__ppi_chg_2_en
                0x00000000000098d8        0x4 D:\programming\ada_projects\Ada_Drivers_Library\boards\MicroBit\obj\zfp_lib_Debug\libada_drivers_library.a(nrf51-tasks.o)
                0x00000000000098d8                nrf51__tasks__ppi_chg_2_en
 .rodata.nrf51__tasks__ppi_chg_2_dis
                0x00000000000098dc        0x4 D:\programming\ada_projects\Ada_Drivers_Library\boards\MicroBit\obj\zfp_lib_Debug\libada_drivers_library.a(nrf51-tasks.o)
                0x00000000000098dc                nrf51__tasks__ppi_chg_2_dis
 .rodata.nrf51__tasks__ppi_chg_3_en
                0x00000000000098e0        0x4 D:\programming\ada_projects\Ada_Drivers_Library\boards\MicroBit\obj\zfp_lib_Debug\libada_drivers_library.a(nrf51-tasks.o)
                0x00000000000098e0                nrf51__tasks__ppi_chg_3_en
 .rodata.nrf51__tasks__ppi_chg_3_dis
                0x00000000000098e4        0x4 D:\programming\ada_projects\Ada_Drivers_Library\boards\MicroBit\obj\zfp_lib_Debug\libada_drivers_library.a(nrf51-tasks.o)
                0x00000000000098e4                nrf51__tasks__ppi_chg_3_dis
 .rodata.nrf51__tasks__radio_txen
                0x00000000000098e8        0x4 D:\programming\ada_projects\Ada_Drivers_Library\boards\MicroBit\obj\zfp_lib_Debug\libada_drivers_library.a(nrf51-tasks.o)
                0x00000000000098e8                nrf51__tasks__radio_txen
 .rodata.nrf51__tasks__radio_rxen
                0x00000000000098ec        0x4 D:\programming\ada_projects\Ada_Drivers_Library\boards\MicroBit\obj\zfp_lib_Debug\libada_drivers_library.a(nrf51-tasks.o)
                0x00000000000098ec                nrf51__tasks__radio_rxen
 .rodata.nrf51__tasks__radio_start
                0x00000000000098f0        0x4 D:\programming\ada_projects\Ada_Drivers_Library\boards\MicroBit\obj\zfp_lib_Debug\libada_drivers_library.a(nrf51-tasks.o)
                0x00000000000098f0                nrf51__tasks__radio_start
 .rodata.nrf51__tasks__radio_stop
                0x00000000000098f4        0x4 D:\programming\ada_projects\Ada_Drivers_Library\boards\MicroBit\obj\zfp_lib_Debug\libada_drivers_library.a(nrf51-tasks.o)
                0x00000000000098f4                nrf51__tasks__radio_stop
 .rodata.nrf51__tasks__radio_disable
                0x00000000000098f8        0x4 D:\programming\ada_projects\Ada_Drivers_Library\boards\MicroBit\obj\zfp_lib_Debug\libada_drivers_library.a(nrf51-tasks.o)
                0x00000000000098f8                nrf51__tasks__radio_disable
 .rodata.nrf51__tasks__radio_rssistart
                0x00000000000098fc        0x4 D:\programming\ada_projects\Ada_Drivers_Library\boards\MicroBit\obj\zfp_lib_Debug\libada_drivers_library.a(nrf51-tasks.o)
                0x00000000000098fc                nrf51__tasks__radio_rssistart
 .rodata.nrf51__tasks__radio_rssistop
                0x0000000000009900        0x4 D:\programming\ada_projects\Ada_Drivers_Library\boards\MicroBit\obj\zfp_lib_Debug\libada_drivers_library.a(nrf51-tasks.o)
                0x0000000000009900                nrf51__tasks__radio_rssistop
 .rodata.nrf51__tasks__radio_bcstart
                0x0000000000009904        0x4 D:\programming\ada_projects\Ada_Drivers_Library\boards\MicroBit\obj\zfp_lib_Debug\libada_drivers_library.a(nrf51-tasks.o)
                0x0000000000009904                nrf51__tasks__radio_bcstart
 .rodata.nrf51__tasks__radio_bcstop
                0x0000000000009908        0x4 D:\programming\ada_projects\Ada_Drivers_Library\boards\MicroBit\obj\zfp_lib_Debug\libada_drivers_library.a(nrf51-tasks.o)
                0x0000000000009908                nrf51__tasks__radio_bcstop
 .rodata.nrf51__tasks__timer_0_start
                0x000000000000990c        0x4 D:\programming\ada_projects\Ada_Drivers_Library\boards\MicroBit\obj\zfp_lib_Debug\libada_drivers_library.a(nrf51-tasks.o)
                0x000000000000990c                nrf51__tasks__timer_0_start
 .rodata.nrf51__tasks__timer_0_stop
                0x0000000000009910        0x4 D:\programming\ada_projects\Ada_Drivers_Library\boards\MicroBit\obj\zfp_lib_Debug\libada_drivers_library.a(nrf51-tasks.o)
                0x0000000000009910                nrf51__tasks__timer_0_stop
 .rodata.nrf51__tasks__timer_0_count
                0x0000000000009914        0x4 D:\programming\ada_projects\Ada_Drivers_Library\boards\MicroBit\obj\zfp_lib_Debug\libada_drivers_library.a(nrf51-tasks.o)
                0x0000000000009914                nrf51__tasks__timer_0_count
 .rodata.nrf51__tasks__timer_0_clear
                0x0000000000009918        0x4 D:\programming\ada_projects\Ada_Drivers_Library\boards\MicroBit\obj\zfp_lib_Debug\libada_drivers_library.a(nrf51-tasks.o)
                0x0000000000009918                nrf51__tasks__timer_0_clear
 .rodata.nrf51__tasks__timer_0_capture_0
                0x000000000000991c        0x4 D:\programming\ada_projects\Ada_Drivers_Library\boards\MicroBit\obj\zfp_lib_Debug\libada_drivers_library.a(nrf51-tasks.o)
                0x000000000000991c                nrf51__tasks__timer_0_capture_0
 .rodata.nrf51__tasks__timer_0_capture_1
                0x0000000000009920        0x4 D:\programming\ada_projects\Ada_Drivers_Library\boards\MicroBit\obj\zfp_lib_Debug\libada_drivers_library.a(nrf51-tasks.o)
                0x0000000000009920                nrf51__tasks__timer_0_capture_1
 .rodata.nrf51__tasks__timer_0_capture_2
                0x0000000000009924        0x4 D:\programming\ada_projects\Ada_Drivers_Library\boards\MicroBit\obj\zfp_lib_Debug\libada_drivers_library.a(nrf51-tasks.o)
                0x0000000000009924                nrf51__tasks__timer_0_capture_2
 .rodata.nrf51__tasks__timer_0_capture_3
                0x0000000000009928        0x4 D:\programming\ada_projects\Ada_Drivers_Library\boards\MicroBit\obj\zfp_lib_Debug\libada_drivers_library.a(nrf51-tasks.o)
                0x0000000000009928                nrf51__tasks__timer_0_capture_3
 .rodata.nrf51__tasks__timer_1_start
                0x000000000000992c        0x4 D:\programming\ada_projects\Ada_Drivers_Library\boards\MicroBit\obj\zfp_lib_Debug\libada_drivers_library.a(nrf51-tasks.o)
                0x000000000000992c                nrf51__tasks__timer_1_start
 .rodata.nrf51__tasks__timer_1_stop
                0x0000000000009930        0x4 D:\programming\ada_projects\Ada_Drivers_Library\boards\MicroBit\obj\zfp_lib_Debug\libada_drivers_library.a(nrf51-tasks.o)
                0x0000000000009930                nrf51__tasks__timer_1_stop
 .rodata.nrf51__tasks__timer_1_count
                0x0000000000009934        0x4 D:\programming\ada_projects\Ada_Drivers_Library\boards\MicroBit\obj\zfp_lib_Debug\libada_drivers_library.a(nrf51-tasks.o)
                0x0000000000009934                nrf51__tasks__timer_1_count
 .rodata.nrf51__tasks__timer_1_clear
                0x0000000000009938        0x4 D:\programming\ada_projects\Ada_Drivers_Library\boards\MicroBit\obj\zfp_lib_Debug\libada_drivers_library.a(nrf51-tasks.o)
                0x0000000000009938                nrf51__tasks__timer_1_clear
 .rodata.nrf51__tasks__timer_1_capture_0
                0x000000000000993c        0x4 D:\programming\ada_projects\Ada_Drivers_Library\boards\MicroBit\obj\zfp_lib_Debug\libada_drivers_library.a(nrf51-tasks.o)
                0x000000000000993c                nrf51__tasks__timer_1_capture_0
 .rodata.nrf51__tasks__timer_1_capture_1
                0x0000000000009940        0x4 D:\programming\ada_projects\Ada_Drivers_Library\boards\MicroBit\obj\zfp_lib_Debug\libada_drivers_library.a(nrf51-tasks.o)
                0x0000000000009940                nrf51__tasks__timer_1_capture_1
 .rodata.nrf51__tasks__timer_1_capture_2
                0x0000000000009944        0x4 D:\programming\ada_projects\Ada_Drivers_Library\boards\MicroBit\obj\zfp_lib_Debug\libada_drivers_library.a(nrf51-tasks.o)
                0x0000000000009944                nrf51__tasks__timer_1_capture_2
 .rodata.nrf51__tasks__timer_1_capture_3
                0x0000000000009948        0x4 D:\programming\ada_projects\Ada_Drivers_Library\boards\MicroBit\obj\zfp_lib_Debug\libada_drivers_library.a(nrf51-tasks.o)
                0x0000000000009948                nrf51__tasks__timer_1_capture_3
 .rodata.nrf51__tasks__timer_2_start
                0x000000000000994c        0x4 D:\programming\ada_projects\Ada_Drivers_Library\boards\MicroBit\obj\zfp_lib_Debug\libada_drivers_library.a(nrf51-tasks.o)
                0x000000000000994c                nrf51__tasks__timer_2_start
 .rodata.nrf51__tasks__timer_2_stop
                0x0000000000009950        0x4 D:\programming\ada_projects\Ada_Drivers_Library\boards\MicroBit\obj\zfp_lib_Debug\libada_drivers_library.a(nrf51-tasks.o)
                0x0000000000009950                nrf51__tasks__timer_2_stop
 .rodata.nrf51__tasks__timer_2_count
                0x0000000000009954        0x4 D:\programming\ada_projects\Ada_Drivers_Library\boards\MicroBit\obj\zfp_lib_Debug\libada_drivers_library.a(nrf51-tasks.o)
                0x0000000000009954                nrf51__tasks__timer_2_count
 .rodata.nrf51__tasks__timer_2_clear
                0x0000000000009958        0x4 D:\programming\ada_projects\Ada_Drivers_Library\boards\MicroBit\obj\zfp_lib_Debug\libada_drivers_library.a(nrf51-tasks.o)
                0x0000000000009958                nrf51__tasks__timer_2_clear
 .rodata.nrf51__tasks__timer_2_capture_0
                0x000000000000995c        0x4 D:\programming\ada_projects\Ada_Drivers_Library\boards\MicroBit\obj\zfp_lib_Debug\libada_drivers_library.a(nrf51-tasks.o)
                0x000000000000995c                nrf51__tasks__timer_2_capture_0
 .rodata.nrf51__tasks__timer_2_capture_1
                0x0000000000009960        0x4 D:\programming\ada_projects\Ada_Drivers_Library\boards\MicroBit\obj\zfp_lib_Debug\libada_drivers_library.a(nrf51-tasks.o)
                0x0000000000009960                nrf51__tasks__timer_2_capture_1
 .rodata.nrf51__tasks__timer_2_capture_2
                0x0000000000009964        0x4 D:\programming\ada_projects\Ada_Drivers_Library\boards\MicroBit\obj\zfp_lib_Debug\libada_drivers_library.a(nrf51-tasks.o)
                0x0000000000009964                nrf51__tasks__timer_2_capture_2
 .rodata.nrf51__tasks__timer_2_capture_3
                0x0000000000009968        0x4 D:\programming\ada_projects\Ada_Drivers_Library\boards\MicroBit\obj\zfp_lib_Debug\libada_drivers_library.a(nrf51-tasks.o)
                0x0000000000009968                nrf51__tasks__timer_2_capture_3
 .rodata.nrf51__tasks__rtc_0_start
                0x000000000000996c        0x4 D:\programming\ada_projects\Ada_Drivers_Library\boards\MicroBit\obj\zfp_lib_Debug\libada_drivers_library.a(nrf51-tasks.o)
                0x000000000000996c                nrf51__tasks__rtc_0_start
 .rodata.nrf51__tasks__rtc_0_stop
                0x0000000000009970        0x4 D:\programming\ada_projects\Ada_Drivers_Library\boards\MicroBit\obj\zfp_lib_Debug\libada_drivers_library.a(nrf51-tasks.o)
                0x0000000000009970                nrf51__tasks__rtc_0_stop
 .rodata.nrf51__tasks__rtc_0_clear
                0x0000000000009974        0x4 D:\programming\ada_projects\Ada_Drivers_Library\boards\MicroBit\obj\zfp_lib_Debug\libada_drivers_library.a(nrf51-tasks.o)
                0x0000000000009974                nrf51__tasks__rtc_0_clear
 .rodata.nrf51__tasks__rtc_0_trigovrflw
                0x0000000000009978        0x4 D:\programming\ada_projects\Ada_Drivers_Library\boards\MicroBit\obj\zfp_lib_Debug\libada_drivers_library.a(nrf51-tasks.o)
                0x0000000000009978                nrf51__tasks__rtc_0_trigovrflw
 .rodata.nrf51__tasks__rtc_1_start
                0x000000000000997c        0x4 D:\programming\ada_projects\Ada_Drivers_Library\boards\MicroBit\obj\zfp_lib_Debug\libada_drivers_library.a(nrf51-tasks.o)
                0x000000000000997c                nrf51__tasks__rtc_1_start
 .rodata.nrf51__tasks__rtc_1_stop
                0x0000000000009980        0x4 D:\programming\ada_projects\Ada_Drivers_Library\boards\MicroBit\obj\zfp_lib_Debug\libada_drivers_library.a(nrf51-tasks.o)
                0x0000000000009980                nrf51__tasks__rtc_1_stop
 .rodata.nrf51__tasks__rtc_1_clear
                0x0000000000009984        0x4 D:\programming\ada_projects\Ada_Drivers_Library\boards\MicroBit\obj\zfp_lib_Debug\libada_drivers_library.a(nrf51-tasks.o)
                0x0000000000009984                nrf51__tasks__rtc_1_clear
 .rodata.nrf51__tasks__rtc_1_trigovrflw
                0x0000000000009988        0x4 D:\programming\ada_projects\Ada_Drivers_Library\boards\MicroBit\obj\zfp_lib_Debug\libada_drivers_library.a(nrf51-tasks.o)
                0x0000000000009988                nrf51__tasks__rtc_1_trigovrflw
 .rodata.nrf51__tasks__watchdog_start
                0x000000000000998c        0x4 D:\programming\ada_projects\Ada_Drivers_Library\boards\MicroBit\obj\zfp_lib_Debug\libada_drivers_library.a(nrf51-tasks.o)
                0x000000000000998c                nrf51__tasks__watchdog_start
 .rodata.nrf51__tasks__rng_start
                0x0000000000009990        0x4 D:\programming\ada_projects\Ada_Drivers_Library\boards\MicroBit\obj\zfp_lib_Debug\libada_drivers_library.a(nrf51-tasks.o)
                0x0000000000009990                nrf51__tasks__rng_start
 .rodata.nrf51__tasks__rng_stop
                0x0000000000009994        0x4 D:\programming\ada_projects\Ada_Drivers_Library\boards\MicroBit\obj\zfp_lib_Debug\libada_drivers_library.a(nrf51-tasks.o)
                0x0000000000009994                nrf51__tasks__rng_stop
 .rodata.nrf51__tasks__temperature_start
                0x0000000000009998        0x4 D:\programming\ada_projects\Ada_Drivers_Library\boards\MicroBit\obj\zfp_lib_Debug\libada_drivers_library.a(nrf51-tasks.o)
                0x0000000000009998                nrf51__tasks__temperature_start
 .rodata.nrf51__tasks__temperature_stop
                0x000000000000999c        0x4 D:\programming\ada_projects\Ada_Drivers_Library\boards\MicroBit\obj\zfp_lib_Debug\libada_drivers_library.a(nrf51-tasks.o)
                0x000000000000999c                nrf51__tasks__temperature_stop
 .rodata.nrf51__tasks__ecb_start
                0x00000000000099a0        0x4 D:\programming\ada_projects\Ada_Drivers_Library\boards\MicroBit\obj\zfp_lib_Debug\libada_drivers_library.a(nrf51-tasks.o)
                0x00000000000099a0                nrf51__tasks__ecb_start
 .rodata.nrf51__tasks__ecb_stop
                0x00000000000099a4        0x4 D:\programming\ada_projects\Ada_Drivers_Library\boards\MicroBit\obj\zfp_lib_Debug\libada_drivers_library.a(nrf51-tasks.o)
                0x00000000000099a4                nrf51__tasks__ecb_stop
 .rodata.nrf51__tasks__ccm_ksgen
                0x00000000000099a8        0x4 D:\programming\ada_projects\Ada_Drivers_Library\boards\MicroBit\obj\zfp_lib_Debug\libada_drivers_library.a(nrf51-tasks.o)
                0x00000000000099a8                nrf51__tasks__ccm_ksgen
 .rodata.nrf51__tasks__ccm_crypt
                0x00000000000099ac        0x4 D:\programming\ada_projects\Ada_Drivers_Library\boards\MicroBit\obj\zfp_lib_Debug\libada_drivers_library.a(nrf51-tasks.o)
                0x00000000000099ac                nrf51__tasks__ccm_crypt
 .rodata.nrf51__tasks__ccm_stop
                0x00000000000099b0        0x4 D:\programming\ada_projects\Ada_Drivers_Library\boards\MicroBit\obj\zfp_lib_Debug\libada_drivers_library.a(nrf51-tasks.o)
                0x00000000000099b0                nrf51__tasks__ccm_stop
 .rodata.nrf51__tasks__aar_start
                0x00000000000099b4        0x4 D:\programming\ada_projects\Ada_Drivers_Library\boards\MicroBit\obj\zfp_lib_Debug\libada_drivers_library.a(nrf51-tasks.o)
                0x00000000000099b4                nrf51__tasks__aar_start
 .rodata.nrf51__tasks__aar_stop
                0x00000000000099b8        0x4 D:\programming\ada_projects\Ada_Drivers_Library\boards\MicroBit\obj\zfp_lib_Debug\libada_drivers_library.a(nrf51-tasks.o)
                0x00000000000099b8                nrf51__tasks__aar_stop
 .rodata.nrf51__tasks__twi_0_startrx
                0x00000000000099bc        0x4 D:\programming\ada_projects\Ada_Drivers_Library\boards\MicroBit\obj\zfp_lib_Debug\libada_drivers_library.a(nrf51-tasks.o)
                0x00000000000099bc                nrf51__tasks__twi_0_startrx
 .rodata.nrf51__tasks__twi_0_starttx
                0x00000000000099c0        0x4 D:\programming\ada_projects\Ada_Drivers_Library\boards\MicroBit\obj\zfp_lib_Debug\libada_drivers_library.a(nrf51-tasks.o)
                0x00000000000099c0                nrf51__tasks__twi_0_starttx
 .rodata.nrf51__tasks__twi_0_stop
                0x00000000000099c4        0x4 D:\programming\ada_projects\Ada_Drivers_Library\boards\MicroBit\obj\zfp_lib_Debug\libada_drivers_library.a(nrf51-tasks.o)
                0x00000000000099c4                nrf51__tasks__twi_0_stop
 .rodata.nrf51__tasks__twi_0_suspend
                0x00000000000099c8        0x4 D:\programming\ada_projects\Ada_Drivers_Library\boards\MicroBit\obj\zfp_lib_Debug\libada_drivers_library.a(nrf51-tasks.o)
                0x00000000000099c8                nrf51__tasks__twi_0_suspend
 .rodata.nrf51__tasks__twi_0_resume
                0x00000000000099cc        0x4 D:\programming\ada_projects\Ada_Drivers_Library\boards\MicroBit\obj\zfp_lib_Debug\libada_drivers_library.a(nrf51-tasks.o)
                0x00000000000099cc                nrf51__tasks__twi_0_resume
 .rodata.nrf51__tasks__twi_1_startrx
                0x00000000000099d0        0x4 D:\programming\ada_projects\Ada_Drivers_Library\boards\MicroBit\obj\zfp_lib_Debug\libada_drivers_library.a(nrf51-tasks.o)
                0x00000000000099d0                nrf51__tasks__twi_1_startrx
 .rodata.nrf51__tasks__twi_1_starttx
                0x00000000000099d4        0x4 D:\programming\ada_projects\Ada_Drivers_Library\boards\MicroBit\obj\zfp_lib_Debug\libada_drivers_library.a(nrf51-tasks.o)
                0x00000000000099d4                nrf51__tasks__twi_1_starttx
 .rodata.nrf51__tasks__twi_1_stop
                0x00000000000099d8        0x4 D:\programming\ada_projects\Ada_Drivers_Library\boards\MicroBit\obj\zfp_lib_Debug\libada_drivers_library.a(nrf51-tasks.o)
                0x00000000000099d8                nrf51__tasks__twi_1_stop
 .rodata.nrf51__tasks__twi_1_suspend
                0x00000000000099dc        0x4 D:\programming\ada_projects\Ada_Drivers_Library\boards\MicroBit\obj\zfp_lib_Debug\libada_drivers_library.a(nrf51-tasks.o)
                0x00000000000099dc                nrf51__tasks__twi_1_suspend
 .rodata.nrf51__tasks__twi_1_resume
                0x00000000000099e0        0x4 D:\programming\ada_projects\Ada_Drivers_Library\boards\MicroBit\obj\zfp_lib_Debug\libada_drivers_library.a(nrf51-tasks.o)
                0x00000000000099e0                nrf51__tasks__twi_1_resume
 .rodata.nrf51__tasks__uart_startrx
                0x00000000000099e4        0x4 D:\programming\ada_projects\Ada_Drivers_Library\boards\MicroBit\obj\zfp_lib_Debug\libada_drivers_library.a(nrf51-tasks.o)
                0x00000000000099e4                nrf51__tasks__uart_startrx
 .rodata.nrf51__tasks__uart_stoprx
                0x00000000000099e8        0x4 D:\programming\ada_projects\Ada_Drivers_Library\boards\MicroBit\obj\zfp_lib_Debug\libada_drivers_library.a(nrf51-tasks.o)
                0x00000000000099e8                nrf51__tasks__uart_stoprx
 .rodata.nrf51__tasks__uart_starttx
                0x00000000000099ec        0x4 D:\programming\ada_projects\Ada_Drivers_Library\boards\MicroBit\obj\zfp_lib_Debug\libada_drivers_library.a(nrf51-tasks.o)
                0x00000000000099ec                nrf51__tasks__uart_starttx
 .rodata.nrf51__tasks__uart_stoptx
                0x00000000000099f0        0x4 D:\programming\ada_projects\Ada_Drivers_Library\boards\MicroBit\obj\zfp_lib_Debug\libada_drivers_library.a(nrf51-tasks.o)
                0x00000000000099f0                nrf51__tasks__uart_stoptx
 .rodata.nrf51__tasks__qdec_start
                0x00000000000099f4        0x4 D:\programming\ada_projects\Ada_Drivers_Library\boards\MicroBit\obj\zfp_lib_Debug\libada_drivers_library.a(nrf51-tasks.o)
                0x00000000000099f4                nrf51__tasks__qdec_start
 .rodata.nrf51__tasks__qdec_stop
                0x00000000000099f8        0x4 D:\programming\ada_projects\Ada_Drivers_Library\boards\MicroBit\obj\zfp_lib_Debug\libada_drivers_library.a(nrf51-tasks.o)
                0x00000000000099f8                nrf51__tasks__qdec_stop
 .rodata.nrf51__tasks__qdec_readclracc
                0x00000000000099fc        0x4 D:\programming\ada_projects\Ada_Drivers_Library\boards\MicroBit\obj\zfp_lib_Debug\libada_drivers_library.a(nrf51-tasks.o)
                0x00000000000099fc                nrf51__tasks__qdec_readclracc
 .rodata.nrf51__tasks__adc_start
                0x0000000000009a00        0x4 D:\programming\ada_projects\Ada_Drivers_Library\boards\MicroBit\obj\zfp_lib_Debug\libada_drivers_library.a(nrf51-tasks.o)
                0x0000000000009a00                nrf51__tasks__adc_start
 .rodata.nrf51__tasks__adc_stop
                0x0000000000009a04        0x4 D:\programming\ada_projects\Ada_Drivers_Library\boards\MicroBit\obj\zfp_lib_Debug\libada_drivers_library.a(nrf51-tasks.o)
                0x0000000000009a04                nrf51__tasks__adc_stop
 .rodata        0x0000000000009a08       0x60 D:\programming\ada_projects\Ada_Drivers_Library\boards\MicroBit\obj\zfp_lib_Debug\libada_drivers_library.a(nrf51-timers.o)
 .rodata.nrf51__timers__timerP
                0x0000000000009a68        0x4 D:\programming\ada_projects\Ada_Drivers_Library\boards\MicroBit\obj\zfp_lib_Debug\libada_drivers_library.a(nrf51-timers.o)
                0x0000000000009a68                nrf51__timers__timerP
 .rodata.nrf51__timers__timerY
                0x0000000000009a6c        0x4 D:\programming\ada_projects\Ada_Drivers_Library\boards\MicroBit\obj\zfp_lib_Debug\libada_drivers_library.a(nrf51-timers.o)
                0x0000000000009a6c                nrf51__timers__timerY
 .rodata.nrf51__timers__timerE21s
                0x0000000000009a70       0x13 D:\programming\ada_projects\Ada_Drivers_Library\boards\MicroBit\obj\zfp_lib_Debug\libada_drivers_library.a(nrf51-timers.o)
                0x0000000000009a70                nrf51__timers__timerE21s
 *fill*         0x0000000000009a83        0x1 
 .rodata.nrf51__timers__timerB25s
                0x0000000000009a84       0x1c D:\programming\ada_projects\Ada_Drivers_Library\boards\MicroBit\obj\zfp_lib_Debug\libada_drivers_library.a(nrf51-timers.o)
                0x0000000000009a84                nrf51__timers__timerB25s
 .rodata.nrf51__timers__timerR23s___UNC
                0x0000000000009aa0       0x24 D:\programming\ada_projects\Ada_Drivers_Library\boards\MicroBit\obj\zfp_lib_Debug\libada_drivers_library.a(nrf51-timers.o)
                0x0000000000009aa0                nrf51__timers__timerR23s___UNC
 .rodata.nrf51__timers__timerR23s
                0x0000000000009ac4        0x4 D:\programming\ada_projects\Ada_Drivers_Library\boards\MicroBit\obj\zfp_lib_Debug\libada_drivers_library.a(nrf51-timers.o)
                0x0000000000009ac4                nrf51__timers__timerR23s
 .rodata.nrf51__timers__timerT
                0x0000000000009ac8       0x5c D:\programming\ada_projects\Ada_Drivers_Library\boards\MicroBit\obj\zfp_lib_Debug\libada_drivers_library.a(nrf51-timers.o)
                0x0000000000009ac8                nrf51__timers__timerT
 .rodata        0x0000000000009b24       0xe6 D:\programming\ada_projects\Ada_Drivers_Library\boards\MicroBit\obj\zfp_lib_Debug\libada_drivers_library.a(nrf51-twi.o)
 *fill*         0x0000000000009c0a        0x2 
 .rodata.nrf51__twi__twi_masterP
                0x0000000000009c0c        0x4 D:\programming\ada_projects\Ada_Drivers_Library\boards\MicroBit\obj\zfp_lib_Debug\libada_drivers_library.a(nrf51-twi.o)
                0x0000000000009c0c                nrf51__twi__twi_masterP
 .rodata.nrf51__twi__twi_masterY
                0x0000000000009c10        0x4 D:\programming\ada_projects\Ada_Drivers_Library\boards\MicroBit\obj\zfp_lib_Debug\libada_drivers_library.a(nrf51-twi.o)
                0x0000000000009c10                nrf51__twi__twi_masterY
 .rodata.nrf51__twi__twi_masterE24s
                0x0000000000009c14       0x15 D:\programming\ada_projects\Ada_Drivers_Library\boards\MicroBit\obj\zfp_lib_Debug\libada_drivers_library.a(nrf51-twi.o)
                0x0000000000009c14                nrf51__twi__twi_masterE24s
 *fill*         0x0000000000009c29        0x3 
 .rodata.nrf51__twi__twi_masterB28s
                0x0000000000009c2c       0x20 D:\programming\ada_projects\Ada_Drivers_Library\boards\MicroBit\obj\zfp_lib_Debug\libada_drivers_library.a(nrf51-twi.o)
                0x0000000000009c2c                nrf51__twi__twi_masterB28s
 .rodata.nrf51__twi__twi_masterR26s___UNC
                0x0000000000009c4c       0x24 D:\programming\ada_projects\Ada_Drivers_Library\boards\MicroBit\obj\zfp_lib_Debug\libada_drivers_library.a(nrf51-twi.o)
                0x0000000000009c4c                nrf51__twi__twi_masterR26s___UNC
 .rodata.nrf51__twi__twi_masterR26s
                0x0000000000009c70        0x4 D:\programming\ada_projects\Ada_Drivers_Library\boards\MicroBit\obj\zfp_lib_Debug\libada_drivers_library.a(nrf51-twi.o)
                0x0000000000009c70                nrf51__twi__twi_masterR26s
 .rodata.nrf51__twi__twi_masterT
                0x0000000000009c74       0x34 D:\programming\ada_projects\Ada_Drivers_Library\boards\MicroBit\obj\zfp_lib_Debug\libada_drivers_library.a(nrf51-twi.o)
                0x0000000000009c74                nrf51__twi__twi_masterT
 .rodata        0x0000000000009ca8       0x1c D:\programming\ada_projects\Ada_Drivers_Library\boards\MicroBit\obj\zfp_lib_Debug\libada_drivers_library.a(nrf51_svd-gpio.o)
 .rodata.nrf51_svd__gpio__pin_cnf_pull_fieldA
                0x0000000000009cc4        0x4 D:\programming\ada_projects\Ada_Drivers_Library\boards\MicroBit\obj\zfp_lib_Debug\libada_drivers_library.a(nrf51_svd-gpio.o)
                0x0000000000009cc4                nrf51_svd__gpio__pin_cnf_pull_fieldA
 .rodata.nrf51_svd__gpio__pin_cnf_sense_fieldA
                0x0000000000009cc8        0x4 D:\programming\ada_projects\Ada_Drivers_Library\boards\MicroBit\obj\zfp_lib_Debug\libada_drivers_library.a(nrf51_svd-gpio.o)
                0x0000000000009cc8                nrf51_svd__gpio__pin_cnf_sense_fieldA
 .rodata.nrf51_svd__gpio__gpio_periph
                0x0000000000009ccc        0x4 D:\programming\ada_projects\Ada_Drivers_Library\boards\MicroBit\obj\zfp_lib_Debug\libada_drivers_library.a(nrf51_svd-gpio.o)
                0x0000000000009ccc                nrf51_svd__gpio__gpio_periph
 .rodata.nrf51_svd__twi__enable_enable_fieldA
                0x0000000000009cd0        0x2 D:\programming\ada_projects\Ada_Drivers_Library\boards\MicroBit\obj\zfp_lib_Debug\libada_drivers_library.a(nrf51_svd-twi.o)
                0x0000000000009cd0                nrf51_svd__twi__enable_enable_fieldA
 *fill*         0x0000000000009cd2        0x2 
 .rodata.nrf51_svd__twi__twi0_periph
                0x0000000000009cd4        0x4 D:\programming\ada_projects\Ada_Drivers_Library\boards\MicroBit\obj\zfp_lib_Debug\libada_drivers_library.a(nrf51_svd-twi.o)
                0x0000000000009cd4                nrf51_svd__twi__twi0_periph
 .rodata.nrf51_svd__twi__twi1_periph
                0x0000000000009cd8        0x4 D:\programming\ada_projects\Ada_Drivers_Library\boards\MicroBit\obj\zfp_lib_Debug\libada_drivers_library.a(nrf51_svd-twi.o)
                0x0000000000009cd8                nrf51_svd__twi__twi1_periph
 .rodata.hal__gpio__gpio_pointP
                0x0000000000009cdc        0x4 D:\programming\ada_projects\Ada_Drivers_Library\boards\MicroBit\obj\zfp_lib_Debug\libada_drivers_library.a(hal-gpio.o)
                0x0000000000009cdc                hal__gpio__gpio_pointP
 .rodata.hal__gpio__gpio_pointE7s
                0x0000000000009ce0       0x14 D:\programming\ada_projects\Ada_Drivers_Library\boards\MicroBit\obj\zfp_lib_Debug\libada_drivers_library.a(hal-gpio.o)
                0x0000000000009ce0                hal__gpio__gpio_pointE7s
 .rodata.hal__gpio__gpio_pointB11s
                0x0000000000009cf4       0x1c D:\programming\ada_projects\Ada_Drivers_Library\boards\MicroBit\obj\zfp_lib_Debug\libada_drivers_library.a(hal-gpio.o)
                0x0000000000009cf4                hal__gpio__gpio_pointB11s
 .rodata.hal__gpio__gpio_pointT
                0x0000000000009d10        0x8 D:\programming\ada_projects\Ada_Drivers_Library\boards\MicroBit\obj\zfp_lib_Debug\libada_drivers_library.a(hal-gpio.o)
                0x0000000000009d10                hal__gpio__gpio_pointT
 .rodata.hal__i2c__i2c_portP
                0x0000000000009d18        0x4 D:\programming\ada_projects\Ada_Drivers_Library\boards\MicroBit\obj\zfp_lib_Debug\libada_drivers_library.a(hal-i2c.o)
                0x0000000000009d18                hal__i2c__i2c_portP
 .rodata.hal__i2c__i2c_portE4s
                0x0000000000009d1c       0x11 D:\programming\ada_projects\Ada_Drivers_Library\boards\MicroBit\obj\zfp_lib_Debug\libada_drivers_library.a(hal-i2c.o)
                0x0000000000009d1c                hal__i2c__i2c_portE4s
 *fill*         0x0000000000009d2d        0x3 
 .rodata.hal__i2c__i2c_portB8s
                0x0000000000009d30       0x1c D:\programming\ada_projects\Ada_Drivers_Library\boards\MicroBit\obj\zfp_lib_Debug\libada_drivers_library.a(hal-i2c.o)
                0x0000000000009d30                hal__i2c__i2c_portB8s
 .rodata.hal__i2c__i2c_portT
                0x0000000000009d4c        0x8 D:\programming\ada_projects\Ada_Drivers_Library\boards\MicroBit\obj\zfp_lib_Debug\libada_drivers_library.a(hal-i2c.o)
                0x0000000000009d4c                hal__i2c__i2c_portT
 .rodata        0x0000000000009d54        0xd D:\gnat\2018-arm-elf\arm-eabi\lib\gnat\ravenscar-sfp-microbit\adalib\libgnarl.a(a-reatim.o)
 *fill*         0x0000000000009d61        0x3 
 .rodata.ada__real_time__duration_units
                0x0000000000009d64        0x4 D:\gnat\2018-arm-elf\arm-eabi\lib\gnat\ravenscar-sfp-microbit\adalib\libgnarl.a(a-reatim.o)
                0x0000000000009d64                ada__real_time__duration_units
 .rodata.ada__real_time__tick
                0x0000000000009d68        0x8 D:\gnat\2018-arm-elf\arm-eabi\lib\gnat\ravenscar-sfp-microbit\adalib\libgnarl.a(a-reatim.o)
                0x0000000000009d68                ada__real_time__tick
 .rodata.ada__real_time__time_first
                0x0000000000009d70        0x8 D:\gnat\2018-arm-elf\arm-eabi\lib\gnat\ravenscar-sfp-microbit\adalib\libgnarl.a(a-reatim.o)
                0x0000000000009d70                ada__real_time__time_first
 .rodata.ada__real_time__time_last
                0x0000000000009d78        0x8 D:\gnat\2018-arm-elf\arm-eabi\lib\gnat\ravenscar-sfp-microbit\adalib\libgnarl.a(a-reatim.o)
                0x0000000000009d78                ada__real_time__time_last
 .rodata.ada__real_time__time_span_first
                0x0000000000009d80        0x8 D:\gnat\2018-arm-elf\arm-eabi\lib\gnat\ravenscar-sfp-microbit\adalib\libgnarl.a(a-reatim.o)
                0x0000000000009d80                ada__real_time__time_span_first
 .rodata.ada__real_time__time_span_last
                0x0000000000009d88        0x8 D:\gnat\2018-arm-elf\arm-eabi\lib\gnat\ravenscar-sfp-microbit\adalib\libgnarl.a(a-reatim.o)
                0x0000000000009d88                ada__real_time__time_span_last
 .rodata.ada__real_time__time_span_unit
                0x0000000000009d90        0x8 D:\gnat\2018-arm-elf\arm-eabi\lib\gnat\ravenscar-sfp-microbit\adalib\libgnarl.a(a-reatim.o)
                0x0000000000009d90                ada__real_time__time_span_unit
 .rodata.ada__real_time__time_span_zero
                0x0000000000009d98        0x8 D:\gnat\2018-arm-elf\arm-eabi\lib\gnat\ravenscar-sfp-microbit\adalib\libgnarl.a(a-reatim.o)
                0x0000000000009d98                ada__real_time__time_span_zero
 .rodata        0x0000000000009da0        0xd D:\gnat\2018-arm-elf\arm-eabi\lib\gnat\ravenscar-sfp-microbit\adalib\libgnarl.a(a-retide.o)
 *fill*         0x0000000000009dad        0x3 
 .rodata.system__bb__board_support__alarm_interrupt_id
                0x0000000000009db0        0x4 D:\gnat\2018-arm-elf\arm-eabi\lib\gnat\ravenscar-sfp-microbit\adalib\libgnarl.a(s-bbbosu.o)
                0x0000000000009db0                system__bb__board_support__alarm_interrupt_id
 .rodata.system__bb__board_support__interrupt_request_vector
                0x0000000000009db4        0x1 D:\gnat\2018-arm-elf\arm-eabi\lib\gnat\ravenscar-sfp-microbit\adalib\libgnarl.a(s-bbbosu.o)
                0x0000000000009db4                system__bb__board_support__interrupt_request_vector
 *fill*         0x0000000000009db5        0x3 
 .rodata.system__bb__board_support__nvic_iser0
                0x0000000000009db8        0x4 D:\gnat\2018-arm-elf\arm-eabi\lib\gnat\ravenscar-sfp-microbit\adalib\libgnarl.a(s-bbbosu.o)
                0x0000000000009db8                system__bb__board_support__nvic_iser0
 .rodata.system__bb__board_support__tick_period
                0x0000000000009dbc        0x4 D:\gnat\2018-arm-elf\arm-eabi\lib\gnat\ravenscar-sfp-microbit\adalib\libgnarl.a(s-bbbosu.o)
                0x0000000000009dbc                system__bb__board_support__tick_period
 .rodata.system__bb__cpu_primitives__gnat_error_handler
                0x0000000000009dc0       0x1c D:\gnat\2018-arm-elf\arm-eabi\lib\gnat\ravenscar-sfp-microbit\adalib\libgnarl.a(s-bbcppr.o)
 .rodata.system__bb__cpu_primitives__bus_fault_vector
                0x0000000000009ddc        0x1 D:\gnat\2018-arm-elf\arm-eabi\lib\gnat\ravenscar-sfp-microbit\adalib\libgnarl.a(s-bbcppr.o)
                0x0000000000009ddc                system__bb__cpu_primitives__bus_fault_vector
 *fill*         0x0000000000009ddd        0x3 
 .rodata.system__bb__cpu_primitives__gnat_error_handler.str1.4
                0x0000000000009de0      0x16c D:\gnat\2018-arm-elf\arm-eabi\lib\gnat\ravenscar-sfp-microbit\adalib\libgnarl.a(s-bbcppr.o)
 .rodata.system__bb__cpu_primitives__hard_fault_vector
                0x0000000000009f4c        0x1 D:\gnat\2018-arm-elf\arm-eabi\lib\gnat\ravenscar-sfp-microbit\adalib\libgnarl.a(s-bbcppr.o)
                0x0000000000009f4c                system__bb__cpu_primitives__hard_fault_vector
 .rodata.system__bb__cpu_primitives__has_os_extensions
                0x0000000000009f4d        0x1 D:\gnat\2018-arm-elf\arm-eabi\lib\gnat\ravenscar-sfp-microbit\adalib\libgnarl.a(s-bbcppr.o)
                0x0000000000009f4d                system__bb__cpu_primitives__has_os_extensions
 .rodata.system__bb__cpu_primitives__has_vtor
                0x0000000000009f4e        0x1 D:\gnat\2018-arm-elf\arm-eabi\lib\gnat\ravenscar-sfp-microbit\adalib\libgnarl.a(s-bbcppr.o)
                0x0000000000009f4e                system__bb__cpu_primitives__has_vtor
 .rodata.system__bb__cpu_primitives__interrupt_request_vector
                0x0000000000009f4f        0x1 D:\gnat\2018-arm-elf\arm-eabi\lib\gnat\ravenscar-sfp-microbit\adalib\libgnarl.a(s-bbcppr.o)
                0x0000000000009f4f                system__bb__cpu_primitives__interrupt_request_vector
 .rodata.system__bb__cpu_primitives__is_armv6m
                0x0000000000009f50        0x1 D:\gnat\2018-arm-elf\arm-eabi\lib\gnat\ravenscar-sfp-microbit\adalib\libgnarl.a(s-bbcppr.o)
                0x0000000000009f50                system__bb__cpu_primitives__is_armv6m
 *fill*         0x0000000000009f51        0x3 
 .rodata.system__bb__cpu_primitives__nl
                0x0000000000009f54        0x2 D:\gnat\2018-arm-elf\arm-eabi\lib\gnat\ravenscar-sfp-microbit\adalib\libgnarl.a(s-bbcppr.o)
                0x0000000000009f54                system__bb__cpu_primitives__nl
 .rodata.system__bb__cpu_primitives__nmi_vector
                0x0000000000009f56        0x1 D:\gnat\2018-arm-elf\arm-eabi\lib\gnat\ravenscar-sfp-microbit\adalib\libgnarl.a(s-bbcppr.o)
                0x0000000000009f56                system__bb__cpu_primitives__nmi_vector
 .rodata.system__bb__cpu_primitives__pend_sv_vector
                0x0000000000009f57        0x1 D:\gnat\2018-arm-elf\arm-eabi\lib\gnat\ravenscar-sfp-microbit\adalib\libgnarl.a(s-bbcppr.o)
                0x0000000000009f57                system__bb__cpu_primitives__pend_sv_vector
 .rodata.system__bb__cpu_primitives__reset_vector
                0x0000000000009f58        0x1 D:\gnat\2018-arm-elf\arm-eabi\lib\gnat\ravenscar-sfp-microbit\adalib\libgnarl.a(s-bbcppr.o)
                0x0000000000009f58                system__bb__cpu_primitives__reset_vector
 .rodata.system__bb__cpu_primitives__sp_process
                0x0000000000009f59        0x1 D:\gnat\2018-arm-elf\arm-eabi\lib\gnat\ravenscar-sfp-microbit\adalib\libgnarl.a(s-bbcppr.o)
                0x0000000000009f59                system__bb__cpu_primitives__sp_process
 .rodata.system__bb__cpu_primitives__sv_call_vector
                0x0000000000009f5a        0x1 D:\gnat\2018-arm-elf\arm-eabi\lib\gnat\ravenscar-sfp-microbit\adalib\libgnarl.a(s-bbcppr.o)
                0x0000000000009f5a                system__bb__cpu_primitives__sv_call_vector
 .rodata.system__bb__cpu_primitives__sys_tick_vector
                0x0000000000009f5b        0x1 D:\gnat\2018-arm-elf\arm-eabi\lib\gnat\ravenscar-sfp-microbit\adalib\libgnarl.a(s-bbcppr.o)
                0x0000000000009f5b                system__bb__cpu_primitives__sys_tick_vector
 .rodata.system__bb__cpu_primitives__usage_fault_vector
                0x0000000000009f5c        0x1 D:\gnat\2018-arm-elf\arm-eabi\lib\gnat\ravenscar-sfp-microbit\adalib\libgnarl.a(s-bbcppr.o)
                0x0000000000009f5c                system__bb__cpu_primitives__usage_fault_vector
 *fill*         0x0000000000009f5d        0x3 
 .rodata.system__bb__interrupts__no_interrupt
                0x0000000000009f60        0x4 D:\gnat\2018-arm-elf\arm-eabi\lib\gnat\ravenscar-sfp-microbit\adalib\libgnarl.a(s-bbinte.o)
                0x0000000000009f60                system__bb__interrupts__no_interrupt
 .rodata.system__bb__time__initial_composite_execution_time
                0x0000000000009f64        0x8 D:\gnat\2018-arm-elf\arm-eabi\lib\gnat\ravenscar-sfp-microbit\adalib\libgnarl.a(s-bbtime.o)
                0x0000000000009f64                system__bb__time__initial_composite_execution_time
 .rodata.system__bb__time__periods_in_epoch
                0x0000000000009f6c        0x4 D:\gnat\2018-arm-elf\arm-eabi\lib\gnat\ravenscar-sfp-microbit\adalib\libgnarl.a(s-bbtime.o)
                0x0000000000009f6c                system__bb__time__periods_in_epoch
 .rodata.system__bb__time__update_in_progress
                0x0000000000009f70        0x4 D:\gnat\2018-arm-elf\arm-eabi\lib\gnat\ravenscar-sfp-microbit\adalib\libgnarl.a(s-bbtime.o)
                0x0000000000009f70                system__bb__time__update_in_progress
 .rodata.system__tasking__idle_priority
                0x0000000000009f74        0x4 D:\gnat\2018-arm-elf\arm-eabi\lib\gnat\ravenscar-sfp-microbit\adalib\libgnarl.a(s-taskin.o)
                0x0000000000009f74                system__tasking__idle_priority
 .rodata.system__tasking__initialize.str1.4
                0x0000000000009f78       0x3a D:\gnat\2018-arm-elf\arm-eabi\lib\gnat\ravenscar-sfp-microbit\adalib\libgnarl.a(s-taskin.o)
 *fill*         0x0000000000009fb2        0x2 
 .rodata.system__tasking__library_task_level
                0x0000000000009fb4        0x4 D:\gnat\2018-arm-elf\arm-eabi\lib\gnat\ravenscar-sfp-microbit\adalib\libgnarl.a(s-taskin.o)
                0x0000000000009fb4                system__tasking__library_task_level
 .rodata.system__tasking__null_task
                0x0000000000009fb8        0x4 D:\gnat\2018-arm-elf\arm-eabi\lib\gnat\ravenscar-sfp-microbit\adalib\libgnarl.a(s-taskin.o)
                0x0000000000009fb8                system__tasking__null_task
 .rodata.system__tasking__task_statesN
                0x0000000000009fbc       0x22 D:\gnat\2018-arm-elf\arm-eabi\lib\gnat\ravenscar-sfp-microbit\adalib\libgnarl.a(s-taskin.o)
                0x0000000000009fbc                system__tasking__task_statesN
 *fill*         0x0000000000009fde        0x2 
 .rodata.system__tasking__task_statesS
                0x0000000000009fe0      0x130 D:\gnat\2018-arm-elf\arm-eabi\lib\gnat\ravenscar-sfp-microbit\adalib\libgnarl.a(s-taskin.o)
                0x0000000000009fe0                system__tasking__task_statesS
 .rodata.system__bb__threads__null_thread_id
                0x000000000000a110        0x4 D:\gnat\2018-arm-elf\arm-eabi\lib\gnat\ravenscar-sfp-microbit\adalib\libgnarl.a(s-bbthre.o)
                0x000000000000a110                system__bb__threads__null_thread_id
 .rodata.system__bb__threads__thread_statesN
                0x000000000000a114        0x4 D:\gnat\2018-arm-elf\arm-eabi\lib\gnat\ravenscar-sfp-microbit\adalib\libgnarl.a(s-bbthre.o)
                0x000000000000a114                system__bb__threads__thread_statesN
 .rodata.system__bb__threads__thread_statesS
                0x000000000000a118       0x18 D:\gnat\2018-arm-elf\arm-eabi\lib\gnat\ravenscar-sfp-microbit\adalib\libgnarl.a(s-bbthre.o)
                0x000000000000a118                system__bb__threads__thread_statesS
 .rodata.system__bb__timing_events__timing_eventB12s
                0x000000000000a130       0x1c D:\gnat\2018-arm-elf\arm-eabi\lib\gnat\ravenscar-sfp-microbit\adalib\libgnarl.a(s-bbtiev.o)
                0x000000000000a130                system__bb__timing_events__timing_eventB12s
 .rodata.system__bb__timing_events__timing_eventE8s
                0x000000000000a14c       0x25 D:\gnat\2018-arm-elf\arm-eabi\lib\gnat\ravenscar-sfp-microbit\adalib\libgnarl.a(s-bbtiev.o)
                0x000000000000a14c                system__bb__timing_events__timing_eventE8s
 *fill*         0x000000000000a171        0x3 
 .rodata.system__bb__timing_events__timing_eventP
                0x000000000000a174        0x4 D:\gnat\2018-arm-elf\arm-eabi\lib\gnat\ravenscar-sfp-microbit\adalib\libgnarl.a(s-bbtiev.o)
                0x000000000000a174                system__bb__timing_events__timing_eventP
 .rodata.system__bb__timing_events__timing_eventR10s
                0x000000000000a178        0x4 D:\gnat\2018-arm-elf\arm-eabi\lib\gnat\ravenscar-sfp-microbit\adalib\libgnarl.a(s-bbtiev.o)
                0x000000000000a178                system__bb__timing_events__timing_eventR10s
 .rodata.system__bb__timing_events__timing_eventR10s___UNC
                0x000000000000a17c        0xc D:\gnat\2018-arm-elf\arm-eabi\lib\gnat\ravenscar-sfp-microbit\adalib\libgnarl.a(s-bbtiev.o)
                0x000000000000a17c                system__bb__timing_events__timing_eventR10s___UNC
 .rodata.system__bb__timing_events__timing_eventT
                0x000000000000a188       0x1c D:\gnat\2018-arm-elf\arm-eabi\lib\gnat\ravenscar-sfp-microbit\adalib\libgnarl.a(s-bbtiev.o)
                0x000000000000a188                system__bb__timing_events__timing_eventT
 .rodata.system__bb__timing_events__timing_eventY
                0x000000000000a1a4        0x4 D:\gnat\2018-arm-elf\arm-eabi\lib\gnat\ravenscar-sfp-microbit\adalib\libgnarl.a(s-bbtiev.o)
                0x000000000000a1a4                system__bb__timing_events__timing_eventY
 .rodata.system__task_primitives__operations__idle_stack_size
                0x000000000000a1a8        0x4 D:\gnat\2018-arm-elf\arm-eabi\lib\gnat\ravenscar-sfp-microbit\adalib\libgnarl.a(s-taprop.o)
                0x000000000000a1a8                system__task_primitives__operations__idle_stack_size
 .rodata        0x000000000000a1ac       0x18 D:\gnat\2018-arm-elf\arm-eabi\lib\gnat\ravenscar-sfp-microbit\adalib\libgnat.a(a-elchha.o)
 .rodata.__gnat_last_chance_handler.str1.4
                0x000000000000a1c4       0x5c D:\gnat\2018-arm-elf\arm-eabi\lib\gnat\ravenscar-sfp-microbit\adalib\libgnat.a(a-elchha.o)
                                         0x5a (size before relaxing)
 .rodata.ada__exceptions__null_id
                0x000000000000a220        0x4 D:\gnat\2018-arm-elf\arm-eabi\lib\gnat\ravenscar-sfp-microbit\adalib\libgnat.a(a-except.o)
                0x000000000000a220                ada__exceptions__null_id
 .rodata.ada__exceptions__empty_c_string___UNC
                0x000000000000a224        0xc D:\gnat\2018-arm-elf\arm-eabi\lib\gnat\ravenscar-sfp-microbit\adalib\libgnat.a(a-except.o)
                0x000000000000a224                ada__exceptions__empty_c_string___UNC
 .rodata.ada__exceptions__empty_c_string
                0x000000000000a230        0x4 D:\gnat\2018-arm-elf\arm-eabi\lib\gnat\ravenscar-sfp-microbit\adalib\libgnat.a(a-except.o)
                0x000000000000a230                ada__exceptions__empty_c_string
 .rodata.system__assertions__R2s
                0x000000000000a234        0x4 D:\gnat\2018-arm-elf\arm-eabi\lib\gnat\ravenscar-sfp-microbit\adalib\libgnat.a(s-assert.o)
                0x000000000000a234                system__assertions__R2s
 .rodata.system__assertions__assert_failureE
                0x000000000000a238       0x21 D:\gnat\2018-arm-elf\arm-eabi\lib\gnat\ravenscar-sfp-microbit\adalib\libgnat.a(s-assert.o)
                0x000000000000a238                system__assertions__assert_failureE
 *fill*         0x000000000000a259        0x3 
 .rodata.system__parameters__c_malloc_linkname
                0x000000000000a25c        0xd D:\gnat\2018-arm-elf\arm-eabi\lib\gnat\ravenscar-sfp-microbit\adalib\libgnat.a(s-parame.o)
                0x000000000000a25c                system__parameters__c_malloc_linkname
 *fill*         0x000000000000a269        0x3 
 .rodata.system__parameters__default_stack_size
                0x000000000000a26c        0x4 D:\gnat\2018-arm-elf\arm-eabi\lib\gnat\ravenscar-sfp-microbit\adalib\libgnat.a(s-parame.o)
                0x000000000000a26c                system__parameters__default_stack_size
 .rodata.system__parameters__garbage_collected
                0x000000000000a270        0x1 D:\gnat\2018-arm-elf\arm-eabi\lib\gnat\ravenscar-sfp-microbit\adalib\libgnat.a(s-parame.o)
                0x000000000000a270                system__parameters__garbage_collected
 *fill*         0x000000000000a271        0x3 
 .rodata.system__parameters__minimum_stack_size
                0x000000000000a274        0x4 D:\gnat\2018-arm-elf\arm-eabi\lib\gnat\ravenscar-sfp-microbit\adalib\libgnat.a(s-parame.o)
                0x000000000000a274                system__parameters__minimum_stack_size
 .rodata.system__parameters__no_abort
                0x000000000000a278        0x1 D:\gnat\2018-arm-elf\arm-eabi\lib\gnat\ravenscar-sfp-microbit\adalib\libgnat.a(s-parame.o)
                0x000000000000a278                system__parameters__no_abort
 *fill*         0x000000000000a279        0x3 
 .rodata.system__parameters__runtime_default_sec_stack_size
                0x000000000000a27c        0x4 D:\gnat\2018-arm-elf\arm-eabi\lib\gnat\ravenscar-sfp-microbit\adalib\libgnat.a(s-parame.o)
                0x000000000000a27c                system__parameters__runtime_default_sec_stack_size
 .rodata.system__parameters__single_lock
                0x000000000000a280        0x1 D:\gnat\2018-arm-elf\arm-eabi\lib\gnat\ravenscar-sfp-microbit\adalib\libgnat.a(s-parame.o)
                0x000000000000a280                system__parameters__single_lock
 .rodata.system__parameters__stack_grows_down
                0x000000000000a281        0x1 D:\gnat\2018-arm-elf\arm-eabi\lib\gnat\ravenscar-sfp-microbit\adalib\libgnat.a(s-parame.o)
                0x000000000000a281                system__parameters__stack_grows_down
 *fill*         0x000000000000a282        0x2 
 .rodata.system__parameters__unspecified_size
                0x000000000000a284        0x4 D:\gnat\2018-arm-elf\arm-eabi\lib\gnat\ravenscar-sfp-microbit\adalib\libgnat.a(s-parame.o)
                0x000000000000a284                system__parameters__unspecified_size
 .rodata        0x000000000000a288        0xd D:\gnat\2018-arm-elf\arm-eabi\lib\gnat\ravenscar-sfp-microbit\adalib\libgnat.a(s-secsta.o)
 *fill*         0x000000000000a295        0x3 
 .rodata        0x000000000000a298       0x80 d:/gnat/2018-arm-elf/bin/../lib/gcc/arm-eabi/7.3.1/thumb/v6-m\libgcc.a(divsf3.o)
 .rodata        0x000000000000a318       0x40 d:/gnat/2018-arm-elf/bin/../lib/gcc/arm-eabi/7.3.1/thumb/v6-m\libgcc.a(mulsf3.o)
                0x000000000000a358                . = ALIGN (0x4)
                0x000000000000a358                __rom_end = .
                0x000000000000a358                __data_load = __rom_end

.rel.dyn        0x000000000000a358        0x0
 .rel.iplt      0x000000000000a358        0x0 main.o

.data           0x0000000020000000      0x198 load address 0x000000000000a358
                0x0000000020000000                __data_start = .
 *(.data .data.* .gnu.linkonce.d*)
 .data          0x0000000020000000        0x0 main.o
 .data          0x0000000020000000        0x0 b__main.o
 .data.ada_main_E
                0x0000000020000000        0x2 b__main.o
                0x0000000020000000                ada_main_E
 .data          0x0000000020000002        0x0 D:\programming\ada_projects\Ada_Drivers_Library\boards\MicroBit\obj\zfp_lib_Debug\libada_drivers_library.a(cortex_m-nvic.o)
 .data.cortex_m__nvic_E
                0x0000000020000002        0x2 D:\programming\ada_projects\Ada_Drivers_Library\boards\MicroBit\obj\zfp_lib_Debug\libada_drivers_library.a(cortex_m-nvic.o)
                0x0000000020000002                cortex_m__nvic_E
 .data          0x0000000020000004        0x0 D:\programming\ada_projects\Ada_Drivers_Library\boards\MicroBit\obj\zfp_lib_Debug\libada_drivers_library.a(microbit-ios.o)
 .data.microbit__ios_E
                0x0000000020000004        0x2 D:\programming\ada_projects\Ada_Drivers_Library\boards\MicroBit\obj\zfp_lib_Debug\libada_drivers_library.a(microbit-ios.o)
                0x0000000020000004                microbit__ios_E
 *fill*         0x0000000020000006        0x2 
 .data.microbit__ios__current_mode
                0x0000000020000008       0x15 D:\programming\ada_projects\Ada_Drivers_Library\boards\MicroBit\obj\zfp_lib_Debug\libada_drivers_library.a(microbit-ios.o)
                0x0000000020000008                microbit__ios__current_mode
 *fill*         0x000000002000001d        0x3 
 .data.microbit__ios__pwm_alloc
                0x0000000020000020       0x15 D:\programming\ada_projects\Ada_Drivers_Library\boards\MicroBit\obj\zfp_lib_Debug\libada_drivers_library.a(microbit-ios.o)
                0x0000000020000020                microbit__ios__pwm_alloc
 *fill*         0x0000000020000035        0x3 
 .data.microbit__ios__pwm_period
                0x0000000020000038        0x4 D:\programming\ada_projects\Ada_Drivers_Library\boards\MicroBit\obj\zfp_lib_Debug\libada_drivers_library.a(microbit-ios.o)
                0x0000000020000038                microbit__ios__pwm_period
 .data          0x000000002000003c        0x0 D:\programming\ada_projects\Ada_Drivers_Library\boards\MicroBit\obj\zfp_lib_Debug\libada_drivers_library.a(nrf51-adc.o)
 .data.nrf51__adc_E
                0x000000002000003c        0x2 D:\programming\ada_projects\Ada_Drivers_Library\boards\MicroBit\obj\zfp_lib_Debug\libada_drivers_library.a(nrf51-adc.o)
                0x000000002000003c                nrf51__adc_E
 .data          0x000000002000003e        0x0 D:\programming\ada_projects\Ada_Drivers_Library\boards\MicroBit\obj\zfp_lib_Debug\libada_drivers_library.a(nrf51-device.o)
 .data.nrf51__device_E
                0x000000002000003e        0x2 D:\programming\ada_projects\Ada_Drivers_Library\boards\MicroBit\obj\zfp_lib_Debug\libada_drivers_library.a(nrf51-device.o)
                0x000000002000003e                nrf51__device_E
 .data          0x0000000020000040        0x0 D:\programming\ada_projects\Ada_Drivers_Library\boards\MicroBit\obj\zfp_lib_Debug\libada_drivers_library.a(nrf51-events.o)
 .data.nrf51__events_E
                0x0000000020000040        0x2 D:\programming\ada_projects\Ada_Drivers_Library\boards\MicroBit\obj\zfp_lib_Debug\libada_drivers_library.a(nrf51-events.o)
                0x0000000020000040                nrf51__events_E
 .data          0x0000000020000042        0x0 D:\programming\ada_projects\Ada_Drivers_Library\boards\MicroBit\obj\zfp_lib_Debug\libada_drivers_library.a(nrf51-gpio-tasks_and_events.o)
 .data.nrf51__gpio__tasks_and_events_E
                0x0000000020000042        0x2 D:\programming\ada_projects\Ada_Drivers_Library\boards\MicroBit\obj\zfp_lib_Debug\libada_drivers_library.a(nrf51-gpio-tasks_and_events.o)
                0x0000000020000042                nrf51__gpio__tasks_and_events_E
 .data          0x0000000020000044        0x0 D:\programming\ada_projects\Ada_Drivers_Library\boards\MicroBit\obj\zfp_lib_Debug\libada_drivers_library.a(nrf51-gpio.o)
 .data.nrf51__gpio_E
                0x0000000020000044        0x2 D:\programming\ada_projects\Ada_Drivers_Library\boards\MicroBit\obj\zfp_lib_Debug\libada_drivers_library.a(nrf51-gpio.o)
                0x0000000020000044                nrf51__gpio_E
 .data.nrf51__gpio__modeE4b
                0x0000000020000046        0x1 D:\programming\ada_projects\Ada_Drivers_Library\boards\MicroBit\obj\zfp_lib_Debug\libada_drivers_library.a(nrf51-gpio.o)
                0x0000000020000046                nrf51__gpio__modeE4b
 .data.nrf51__gpio__set_modeE11b
                0x0000000020000047        0x1 D:\programming\ada_projects\Ada_Drivers_Library\boards\MicroBit\obj\zfp_lib_Debug\libada_drivers_library.a(nrf51-gpio.o)
                0x0000000020000047                nrf51__gpio__set_modeE11b
 .data.nrf51__gpio__pull_resistorE17b
                0x0000000020000048        0x1 D:\programming\ada_projects\Ada_Drivers_Library\boards\MicroBit\obj\zfp_lib_Debug\libada_drivers_library.a(nrf51-gpio.o)
                0x0000000020000048                nrf51__gpio__pull_resistorE17b
 .data.nrf51__gpio__set_pull_resistorE23b
                0x0000000020000049        0x1 D:\programming\ada_projects\Ada_Drivers_Library\boards\MicroBit\obj\zfp_lib_Debug\libada_drivers_library.a(nrf51-gpio.o)
                0x0000000020000049                nrf51__gpio__set_pull_resistorE23b
 .data.nrf51__gpio__configure_ioE38b
                0x000000002000004a        0x1 D:\programming\ada_projects\Ada_Drivers_Library\boards\MicroBit\obj\zfp_lib_Debug\libada_drivers_library.a(nrf51-gpio.o)
                0x000000002000004a                nrf51__gpio__configure_ioE38b
 .data          0x000000002000004b        0x0 D:\programming\ada_projects\Ada_Drivers_Library\boards\MicroBit\obj\zfp_lib_Debug\libada_drivers_library.a(nrf51-interrupts.o)
 *fill*         0x000000002000004b        0x1 
 .data.nrf51__interrupts_E
                0x000000002000004c        0x2 D:\programming\ada_projects\Ada_Drivers_Library\boards\MicroBit\obj\zfp_lib_Debug\libada_drivers_library.a(nrf51-interrupts.o)
                0x000000002000004c                nrf51__interrupts_E
 *fill*         0x000000002000004e        0x2 
 .data.nrf51__interrupts__handlers
                0x0000000020000050       0x80 D:\programming\ada_projects\Ada_Drivers_Library\boards\MicroBit\obj\zfp_lib_Debug\libada_drivers_library.a(nrf51-interrupts.o)
 .data          0x00000000200000d0        0x0 D:\programming\ada_projects\Ada_Drivers_Library\boards\MicroBit\obj\zfp_lib_Debug\libada_drivers_library.a(nrf51-ppi.o)
 .data.nrf51__ppi_E
                0x00000000200000d0        0x2 D:\programming\ada_projects\Ada_Drivers_Library\boards\MicroBit\obj\zfp_lib_Debug\libada_drivers_library.a(nrf51-ppi.o)
                0x00000000200000d0                nrf51__ppi_E
 .data          0x00000000200000d2        0x0 D:\programming\ada_projects\Ada_Drivers_Library\boards\MicroBit\obj\zfp_lib_Debug\libada_drivers_library.a(nrf51-rtc.o)
 .data.nrf51__rtc_E
                0x00000000200000d2        0x2 D:\programming\ada_projects\Ada_Drivers_Library\boards\MicroBit\obj\zfp_lib_Debug\libada_drivers_library.a(nrf51-rtc.o)
                0x00000000200000d2                nrf51__rtc_E
 .data          0x00000000200000d4        0x0 D:\programming\ada_projects\Ada_Drivers_Library\boards\MicroBit\obj\zfp_lib_Debug\libada_drivers_library.a(nrf51-tasks.o)
 .data.nrf51__tasks_E
                0x00000000200000d4        0x2 D:\programming\ada_projects\Ada_Drivers_Library\boards\MicroBit\obj\zfp_lib_Debug\libada_drivers_library.a(nrf51-tasks.o)
                0x00000000200000d4                nrf51__tasks_E
 .data          0x00000000200000d6        0x0 D:\programming\ada_projects\Ada_Drivers_Library\boards\MicroBit\obj\zfp_lib_Debug\libada_drivers_library.a(nrf51-timers.o)
 .data.nrf51__timers_E
                0x00000000200000d6        0x2 D:\programming\ada_projects\Ada_Drivers_Library\boards\MicroBit\obj\zfp_lib_Debug\libada_drivers_library.a(nrf51-timers.o)
                0x00000000200000d6                nrf51__timers_E
 .data.nrf51__timers__set_prescalerE4b
                0x00000000200000d8        0x1 D:\programming\ada_projects\Ada_Drivers_Library\boards\MicroBit\obj\zfp_lib_Debug\libada_drivers_library.a(nrf51-timers.o)
                0x00000000200000d8                nrf51__timers__set_prescalerE4b
 .data.nrf51__timers__set_modeE6b
                0x00000000200000d9        0x1 D:\programming\ada_projects\Ada_Drivers_Library\boards\MicroBit\obj\zfp_lib_Debug\libada_drivers_library.a(nrf51-timers.o)
                0x00000000200000d9                nrf51__timers__set_modeE6b
 .data.nrf51__timers__set_bitmodeE11b
                0x00000000200000da        0x1 D:\programming\ada_projects\Ada_Drivers_Library\boards\MicroBit\obj\zfp_lib_Debug\libada_drivers_library.a(nrf51-timers.o)
                0x00000000200000da                nrf51__timers__set_bitmodeE11b
 .data.nrf51__timers__bitmodeE19b
                0x00000000200000db        0x1 D:\programming\ada_projects\Ada_Drivers_Library\boards\MicroBit\obj\zfp_lib_Debug\libada_drivers_library.a(nrf51-timers.o)
                0x00000000200000db                nrf51__timers__bitmodeE19b
 .data.nrf51__timers__compare_interruptE26b
                0x00000000200000dc        0x1 D:\programming\ada_projects\Ada_Drivers_Library\boards\MicroBit\obj\zfp_lib_Debug\libada_drivers_library.a(nrf51-timers.o)
                0x00000000200000dc                nrf51__timers__compare_interruptE26b
 .data.nrf51__timers__startE1b
                0x00000000200000dd        0x1 D:\programming\ada_projects\Ada_Drivers_Library\boards\MicroBit\obj\zfp_lib_Debug\libada_drivers_library.a(nrf51-timers.o)
                0x00000000200000dd                nrf51__timers__startE1b
 .data.nrf51__timers__stopE2b
                0x00000000200000de        0x1 D:\programming\ada_projects\Ada_Drivers_Library\boards\MicroBit\obj\zfp_lib_Debug\libada_drivers_library.a(nrf51-timers.o)
                0x00000000200000de                nrf51__timers__stopE2b
 .data.nrf51__timers__clearE3b
                0x00000000200000df        0x1 D:\programming\ada_projects\Ada_Drivers_Library\boards\MicroBit\obj\zfp_lib_Debug\libada_drivers_library.a(nrf51-timers.o)
                0x00000000200000df                nrf51__timers__clearE3b
 .data.nrf51__timers__compare_shortcutE27b
                0x00000000200000e0        0x1 D:\programming\ada_projects\Ada_Drivers_Library\boards\MicroBit\obj\zfp_lib_Debug\libada_drivers_library.a(nrf51-timers.o)
                0x00000000200000e0                nrf51__timers__compare_shortcutE27b
 .data.nrf51__timers__set_compareE28b
                0x00000000200000e1        0x1 D:\programming\ada_projects\Ada_Drivers_Library\boards\MicroBit\obj\zfp_lib_Debug\libada_drivers_library.a(nrf51-timers.o)
                0x00000000200000e1                nrf51__timers__set_compareE28b
 .data.nrf51__timers__captureE29b
                0x00000000200000e2        0x1 D:\programming\ada_projects\Ada_Drivers_Library\boards\MicroBit\obj\zfp_lib_Debug\libada_drivers_library.a(nrf51-timers.o)
                0x00000000200000e2                nrf51__timers__captureE29b
 .data.nrf51__timers__captureE31b
                0x00000000200000e3        0x1 D:\programming\ada_projects\Ada_Drivers_Library\boards\MicroBit\obj\zfp_lib_Debug\libada_drivers_library.a(nrf51-timers.o)
                0x00000000200000e3                nrf51__timers__captureE31b
 .data.nrf51__timers__cc_registerE33b
                0x00000000200000e4        0x1 D:\programming\ada_projects\Ada_Drivers_Library\boards\MicroBit\obj\zfp_lib_Debug\libada_drivers_library.a(nrf51-timers.o)
                0x00000000200000e4                nrf51__timers__cc_registerE33b
 .data          0x00000000200000e5        0x0 D:\programming\ada_projects\Ada_Drivers_Library\boards\MicroBit\obj\zfp_lib_Debug\libada_drivers_library.a(nrf51-twi.o)
 *fill*         0x00000000200000e5        0x1 
 .data.nrf51__twi_E
                0x00000000200000e6        0x2 D:\programming\ada_projects\Ada_Drivers_Library\boards\MicroBit\obj\zfp_lib_Debug\libada_drivers_library.a(nrf51-twi.o)
                0x00000000200000e6                nrf51__twi_E
 .data.nrf51__twi__enableE1b
                0x00000000200000e8        0x1 D:\programming\ada_projects\Ada_Drivers_Library\boards\MicroBit\obj\zfp_lib_Debug\libada_drivers_library.a(nrf51-twi.o)
                0x00000000200000e8                nrf51__twi__enableE1b
 .data.nrf51__twi__disableE2b
                0x00000000200000e9        0x1 D:\programming\ada_projects\Ada_Drivers_Library\boards\MicroBit\obj\zfp_lib_Debug\libada_drivers_library.a(nrf51-twi.o)
                0x00000000200000e9                nrf51__twi__disableE2b
 .data.nrf51__twi__enabledE5b
                0x00000000200000ea        0x1 D:\programming\ada_projects\Ada_Drivers_Library\boards\MicroBit\obj\zfp_lib_Debug\libada_drivers_library.a(nrf51-twi.o)
                0x00000000200000ea                nrf51__twi__enabledE5b
 .data.nrf51__twi__configureE7b
                0x00000000200000eb        0x1 D:\programming\ada_projects\Ada_Drivers_Library\boards\MicroBit\obj\zfp_lib_Debug\libada_drivers_library.a(nrf51-twi.o)
                0x00000000200000eb                nrf51__twi__configureE7b
 .data.nrf51__twi__disconnectE8b
                0x00000000200000ec        0x1 D:\programming\ada_projects\Ada_Drivers_Library\boards\MicroBit\obj\zfp_lib_Debug\libada_drivers_library.a(nrf51-twi.o)
                0x00000000200000ec                nrf51__twi__disconnectE8b
 .data.nrf51__twi__master_transmitE17b
                0x00000000200000ed        0x1 D:\programming\ada_projects\Ada_Drivers_Library\boards\MicroBit\obj\zfp_lib_Debug\libada_drivers_library.a(nrf51-twi.o)
                0x00000000200000ed                nrf51__twi__master_transmitE17b
 .data.nrf51__twi__master_receiveE27b
                0x00000000200000ee        0x1 D:\programming\ada_projects\Ada_Drivers_Library\boards\MicroBit\obj\zfp_lib_Debug\libada_drivers_library.a(nrf51-twi.o)
                0x00000000200000ee                nrf51__twi__master_receiveE27b
 .data.nrf51__twi__mem_writeE41b
                0x00000000200000ef        0x1 D:\programming\ada_projects\Ada_Drivers_Library\boards\MicroBit\obj\zfp_lib_Debug\libada_drivers_library.a(nrf51-twi.o)
                0x00000000200000ef                nrf51__twi__mem_writeE41b
 .data.nrf51__twi__mem_readE55b
                0x00000000200000f0        0x1 D:\programming\ada_projects\Ada_Drivers_Library\boards\MicroBit\obj\zfp_lib_Debug\libada_drivers_library.a(nrf51-twi.o)
                0x00000000200000f0                nrf51__twi__mem_readE55b
 .data          0x00000000200000f1        0x0 D:\programming\ada_projects\Ada_Drivers_Library\boards\MicroBit\obj\zfp_lib_Debug\libada_drivers_library.a(nrf51_svd-gpio.o)
 .data          0x00000000200000f1        0x0 D:\programming\ada_projects\Ada_Drivers_Library\boards\MicroBit\obj\zfp_lib_Debug\libada_drivers_library.a(nrf51_svd-twi.o)
 .data          0x00000000200000f1        0x0 D:\programming\ada_projects\Ada_Drivers_Library\boards\MicroBit\obj\zfp_lib_Debug\libada_drivers_library.a(hal-gpio.o)
 *fill*         0x00000000200000f1        0x1 
 .data.hal__gpio_E
                0x00000000200000f2        0x2 D:\programming\ada_projects\Ada_Drivers_Library\boards\MicroBit\obj\zfp_lib_Debug\libada_drivers_library.a(hal-gpio.o)
                0x00000000200000f2                hal__gpio_E
 .data          0x00000000200000f4        0x0 D:\programming\ada_projects\Ada_Drivers_Library\boards\MicroBit\obj\zfp_lib_Debug\libada_drivers_library.a(hal-i2c.o)
 .data.hal__i2c_E
                0x00000000200000f4        0x2 D:\programming\ada_projects\Ada_Drivers_Library\boards\MicroBit\obj\zfp_lib_Debug\libada_drivers_library.a(hal-i2c.o)
                0x00000000200000f4                hal__i2c_E
 .data          0x00000000200000f6        0x0 D:\gnat\2018-arm-elf\arm-eabi\lib\gnat\ravenscar-sfp-microbit\adalib\libgnarl.a(a-reatim.o)
 .data.ada__real_time_E
                0x00000000200000f6        0x2 D:\gnat\2018-arm-elf\arm-eabi\lib\gnat\ravenscar-sfp-microbit\adalib\libgnarl.a(a-reatim.o)
                0x00000000200000f6                ada__real_time_E
 .data          0x00000000200000f8        0x0 D:\gnat\2018-arm-elf\arm-eabi\lib\gnat\ravenscar-sfp-microbit\adalib\libgnarl.a(a-retide.o)
 .data.ada__real_time__delays_E
                0x00000000200000f8        0x2 D:\gnat\2018-arm-elf\arm-eabi\lib\gnat\ravenscar-sfp-microbit\adalib\libgnarl.a(a-retide.o)
                0x00000000200000f8                ada__real_time__delays_E
 .data          0x00000000200000fa        0x0 D:\gnat\2018-arm-elf\arm-eabi\lib\gnat\ravenscar-sfp-microbit\adalib\libgnarl.a(s-bbbosu.o)
 *fill*         0x00000000200000fa        0x2 
 .data.system__bb__board_support__time__upper_alarm_handler
                0x00000000200000fc        0x4 D:\gnat\2018-arm-elf\arm-eabi\lib\gnat\ravenscar-sfp-microbit\adalib\libgnarl.a(s-bbbosu.o)
                0x00000000200000fc                system__bb__board_support__time__upper_alarm_handler
 .data          0x0000000020000100        0x0 D:\gnat\2018-arm-elf\arm-eabi\lib\gnat\ravenscar-sfp-microbit\adalib\libgnarl.a(s-bbcppr.o)
 .data          0x0000000020000100        0x0 D:\gnat\2018-arm-elf\arm-eabi\lib\gnat\ravenscar-sfp-microbit\adalib\libgnarl.a(s-bbinte.o)
 .data.system__bb__interrupts__interrupt_being_handled
                0x0000000020000100        0x4 D:\gnat\2018-arm-elf\arm-eabi\lib\gnat\ravenscar-sfp-microbit\adalib\libgnarl.a(s-bbinte.o)
                0x0000000020000100                system__bb__interrupts__interrupt_being_handled
 .data          0x0000000020000104        0x0 D:\gnat\2018-arm-elf\arm-eabi\lib\gnat\ravenscar-sfp-microbit\adalib\libgnarl.a(s-bbthqu.o)
 .data.__gnat_running_thread_table
                0x0000000020000104        0x4 D:\gnat\2018-arm-elf\arm-eabi\lib\gnat\ravenscar-sfp-microbit\adalib\libgnarl.a(s-bbthqu.o)
                0x0000000020000104                __gnat_running_thread_table
 .data.first_thread_table
                0x0000000020000108        0x4 D:\gnat\2018-arm-elf\arm-eabi\lib\gnat\ravenscar-sfp-microbit\adalib\libgnarl.a(s-bbthqu.o)
                0x0000000020000108                first_thread_table
 .data.system__bb__threads__queues__alarms_table
                0x000000002000010c        0x4 D:\gnat\2018-arm-elf\arm-eabi\lib\gnat\ravenscar-sfp-microbit\adalib\libgnarl.a(s-bbthqu.o)
                0x000000002000010c                system__bb__threads__queues__alarms_table
 .data.system__bb__threads__queues__global_list
                0x0000000020000110        0x4 D:\gnat\2018-arm-elf\arm-eabi\lib\gnat\ravenscar-sfp-microbit\adalib\libgnarl.a(s-bbthqu.o)
                0x0000000020000110                system__bb__threads__queues__global_list
 .data          0x0000000020000114        0x0 D:\gnat\2018-arm-elf\arm-eabi\lib\gnat\ravenscar-sfp-microbit\adalib\libgnarl.a(s-bbtime.o)
 .data.system__bb__time__alarm_lock
                0x0000000020000114        0x2 D:\gnat\2018-arm-elf\arm-eabi\lib\gnat\ravenscar-sfp-microbit\adalib\libgnarl.a(s-bbtime.o)
                0x0000000020000114                system__bb__time__alarm_lock
 *fill*         0x0000000020000116        0x2 
 .data.system__bb__time__max_sleep
                0x0000000020000118        0x8 D:\gnat\2018-arm-elf\arm-eabi\lib\gnat\ravenscar-sfp-microbit\adalib\libgnarl.a(s-bbtime.o)
                0x0000000020000118                system__bb__time__max_sleep
 .data.system__bb__time__pending_alarm
                0x0000000020000120        0x8 D:\gnat\2018-arm-elf\arm-eabi\lib\gnat\ravenscar-sfp-microbit\adalib\libgnarl.a(s-bbtime.o)
                0x0000000020000120                system__bb__time__pending_alarm
 .data.system__bb__time__scheduling_event_hook
                0x0000000020000128        0x4 D:\gnat\2018-arm-elf\arm-eabi\lib\gnat\ravenscar-sfp-microbit\adalib\libgnarl.a(s-bbtime.o)
                0x0000000020000128                system__bb__time__scheduling_event_hook
 .data.system__bb__time__software_clock
                0x000000002000012c        0x8 D:\gnat\2018-arm-elf\arm-eabi\lib\gnat\ravenscar-sfp-microbit\adalib\libgnarl.a(s-bbtime.o)
                0x000000002000012c                system__bb__time__software_clock
 .data          0x0000000020000134        0x0 D:\gnat\2018-arm-elf\arm-eabi\lib\gnat\ravenscar-sfp-microbit\adalib\libgnarl.a(s-bcpcst.o)
 .data          0x0000000020000134        0x0 D:\gnat\2018-arm-elf\arm-eabi\lib\gnat\ravenscar-sfp-microbit\adalib\libgnarl.a(s-taskin.o)
 .data.__gl_main_cpu
                0x0000000020000134        0x4 D:\gnat\2018-arm-elf\arm-eabi\lib\gnat\ravenscar-sfp-microbit\adalib\libgnarl.a(s-taskin.o)
                0x0000000020000134                __gl_main_cpu
 .data.__gl_main_priority
                0x0000000020000138        0x4 D:\gnat\2018-arm-elf\arm-eabi\lib\gnat\ravenscar-sfp-microbit\adalib\libgnarl.a(s-taskin.o)
                0x0000000020000138                __gl_main_priority
 .data.system__tasking__fall_back_handler
                0x000000002000013c        0x8 D:\gnat\2018-arm-elf\arm-eabi\lib\gnat\ravenscar-sfp-microbit\adalib\libgnarl.a(s-taskin.o)
                0x000000002000013c                system__tasking__fall_back_handler
 .data.system__tasking__initialized
                0x0000000020000144        0x1 D:\gnat\2018-arm-elf\arm-eabi\lib\gnat\ravenscar-sfp-microbit\adalib\libgnarl.a(s-taskin.o)
 .data          0x0000000020000145        0x0 D:\gnat\2018-arm-elf\arm-eabi\lib\gnat\ravenscar-sfp-microbit\adalib\libgnarl.a(s-bbprot.o)
 *fill*         0x0000000020000145        0x3 
 .data.system__bb__protection__wakeup_served_entry_callback
                0x0000000020000148        0x4 D:\gnat\2018-arm-elf\arm-eabi\lib\gnat\ravenscar-sfp-microbit\adalib\libgnarl.a(s-bbprot.o)
                0x0000000020000148                system__bb__protection__wakeup_served_entry_callback
 .data          0x000000002000014c        0x0 D:\gnat\2018-arm-elf\arm-eabi\lib\gnat\ravenscar-sfp-microbit\adalib\libgnarl.a(s-bbthre.o)
 .data.system__bb__threads__initialized
                0x000000002000014c        0x1 D:\gnat\2018-arm-elf\arm-eabi\lib\gnat\ravenscar-sfp-microbit\adalib\libgnarl.a(s-bbthre.o)
                0x000000002000014c                system__bb__threads__initialized
 .data          0x000000002000014d        0x0 D:\gnat\2018-arm-elf\arm-eabi\lib\gnat\ravenscar-sfp-microbit\adalib\libgnarl.a(s-bbtiev.o)
 *fill*         0x000000002000014d        0x1 
 .data.system__bb__timing_events_E
                0x000000002000014e        0x2 D:\gnat\2018-arm-elf\arm-eabi\lib\gnat\ravenscar-sfp-microbit\adalib\libgnarl.a(s-bbtiev.o)
                0x000000002000014e                system__bb__timing_events_E
 .data.system__bb__timing_events__events_table
                0x0000000020000150        0x4 D:\gnat\2018-arm-elf\arm-eabi\lib\gnat\ravenscar-sfp-microbit\adalib\libgnarl.a(s-bbtiev.o)
                0x0000000020000150                system__bb__timing_events__events_table
 .data          0x0000000020000154        0x0 D:\gnat\2018-arm-elf\arm-eabi\lib\gnat\ravenscar-sfp-microbit\adalib\libgnarl.a(s-taprop.o)
 .data.system__task_primitives__operations__environment_task
                0x0000000020000154        0x4 D:\gnat\2018-arm-elf\arm-eabi\lib\gnat\ravenscar-sfp-microbit\adalib\libgnarl.a(s-taprop.o)
                0x0000000020000154                system__task_primitives__operations__environment_task
 .data          0x0000000020000158        0x0 D:\gnat\2018-arm-elf\arm-eabi\lib\gnat\ravenscar-sfp-microbit\adalib\libgnarl.a(s-tasdeb.o)
 .data.system__tasking__debug_E
                0x0000000020000158        0x2 D:\gnat\2018-arm-elf\arm-eabi\lib\gnat\ravenscar-sfp-microbit\adalib\libgnarl.a(s-tasdeb.o)
                0x0000000020000158                system__tasking__debug_E
 *fill*         0x000000002000015a        0x2 
 .data.system__tasking__debug__first_task
                0x000000002000015c        0x4 D:\gnat\2018-arm-elf\arm-eabi\lib\gnat\ravenscar-sfp-microbit\adalib\libgnarl.a(s-tasdeb.o)
                0x000000002000015c                system__tasking__debug__first_task
 .data.system__tasking__debug__last_task
                0x0000000020000160        0x4 D:\gnat\2018-arm-elf\arm-eabi\lib\gnat\ravenscar-sfp-microbit\adalib\libgnarl.a(s-tasdeb.o)
                0x0000000020000160                system__tasking__debug__last_task
 .data          0x0000000020000164        0x0 D:\gnat\2018-arm-elf\arm-eabi\lib\gnat\ravenscar-sfp-microbit\adalib\libgnat.a(a-elchha.o)
 .data.ada__exceptions__last_chance_handler_E
                0x0000000020000164        0x2 D:\gnat\2018-arm-elf\arm-eabi\lib\gnat\ravenscar-sfp-microbit\adalib\libgnat.a(a-elchha.o)
                0x0000000020000164                ada__exceptions__last_chance_handler_E
 .data          0x0000000020000166        0x0 D:\gnat\2018-arm-elf\arm-eabi\lib\gnat\ravenscar-sfp-microbit\adalib\libgnat.a(a-except.o)
 .data.ada__exceptions_E
                0x0000000020000166        0x2 D:\gnat\2018-arm-elf\arm-eabi\lib\gnat\ravenscar-sfp-microbit\adalib\libgnat.a(a-except.o)
                0x0000000020000166                ada__exceptions_E
 .data          0x0000000020000168        0x0 D:\gnat\2018-arm-elf\arm-eabi\lib\gnat\ravenscar-sfp-microbit\adalib\libgnat.a(g-io.o)
 .data.gnat__io_E
                0x0000000020000168        0x2 D:\gnat\2018-arm-elf\arm-eabi\lib\gnat\ravenscar-sfp-microbit\adalib\libgnat.a(g-io.o)
                0x0000000020000168                gnat__io_E
 .data          0x000000002000016a        0x0 D:\gnat\2018-arm-elf\arm-eabi\lib\gnat\ravenscar-sfp-microbit\adalib\libgnat.a(s-assert.o)
 .data.system__assertions_E
                0x000000002000016a        0x2 D:\gnat\2018-arm-elf\arm-eabi\lib\gnat\ravenscar-sfp-microbit\adalib\libgnat.a(s-assert.o)
                0x000000002000016a                system__assertions_E
 .data.system__assertions__assert_failure
                0x000000002000016c       0x18 D:\gnat\2018-arm-elf\arm-eabi\lib\gnat\ravenscar-sfp-microbit\adalib\libgnat.a(s-assert.o)
                0x000000002000016c                system__assertions__assert_failure
 .data          0x0000000020000184        0x0 D:\gnat\2018-arm-elf\arm-eabi\lib\gnat\ravenscar-sfp-microbit\adalib\libgnat.a(s-macres.o)
 .data.system__machine_reset_E
                0x0000000020000184        0x2 D:\gnat\2018-arm-elf\arm-eabi\lib\gnat\ravenscar-sfp-microbit\adalib\libgnat.a(s-macres.o)
                0x0000000020000184                system__machine_reset_E
 .data          0x0000000020000186        0x0 D:\gnat\2018-arm-elf\arm-eabi\lib\gnat\ravenscar-sfp-microbit\adalib\libgnat.a(s-memcop.o)
 .data.system__memory_copy_E
                0x0000000020000186        0x2 D:\gnat\2018-arm-elf\arm-eabi\lib\gnat\ravenscar-sfp-microbit\adalib\libgnat.a(s-memcop.o)
                0x0000000020000186                system__memory_copy_E
 .data          0x0000000020000188        0x0 D:\gnat\2018-arm-elf\arm-eabi\lib\gnat\ravenscar-sfp-microbit\adalib\libgnat.a(s-memset.o)
 .data.system__memory_set_E
                0x0000000020000188        0x2 D:\gnat\2018-arm-elf\arm-eabi\lib\gnat\ravenscar-sfp-microbit\adalib\libgnat.a(s-memset.o)
                0x0000000020000188                system__memory_set_E
 .data          0x000000002000018a        0x0 D:\gnat\2018-arm-elf\arm-eabi\lib\gnat\ravenscar-sfp-microbit\adalib\libgnat.a(s-parame.o)
 .data.system__parameters_E
                0x000000002000018a        0x2 D:\gnat\2018-arm-elf\arm-eabi\lib\gnat\ravenscar-sfp-microbit\adalib\libgnat.a(s-parame.o)
                0x000000002000018a                system__parameters_E
 .data          0x000000002000018c        0x0 D:\gnat\2018-arm-elf\arm-eabi\lib\gnat\ravenscar-sfp-microbit\adalib\libgnat.a(s-secsta.o)
 .data.system__secondary_stack_E
                0x000000002000018c        0x2 D:\gnat\2018-arm-elf\arm-eabi\lib\gnat\ravenscar-sfp-microbit\adalib\libgnat.a(s-secsta.o)
                0x000000002000018c                system__secondary_stack_E
 *fill*         0x000000002000018e        0x2 
 .data.system__secondary_stack__num_of_assigned_stacks
                0x0000000020000190        0x4 D:\gnat\2018-arm-elf\arm-eabi\lib\gnat\ravenscar-sfp-microbit\adalib\libgnat.a(s-secsta.o)
                0x0000000020000190                system__secondary_stack__num_of_assigned_stacks
 .data          0x0000000020000194        0x0 D:\gnat\2018-arm-elf\arm-eabi\lib\gnat\ravenscar-sfp-microbit\adalib\libgnat.a(s-textio.o)
 .data.system__text_io_E
                0x0000000020000194        0x2 D:\gnat\2018-arm-elf\arm-eabi\lib\gnat\ravenscar-sfp-microbit\adalib\libgnat.a(s-textio.o)
                0x0000000020000194                system__text_io_E
 .data.system__text_io__initialized
                0x0000000020000196        0x1 D:\gnat\2018-arm-elf\arm-eabi\lib\gnat\ravenscar-sfp-microbit\adalib\libgnat.a(s-textio.o)
                0x0000000020000196                system__text_io__initialized
 .data          0x0000000020000197        0x0 D:\gnat\2018-arm-elf\arm-eabi\lib\gnat\ravenscar-sfp-microbit\adalib\libgnat.a(start-rom.o)
 .data          0x0000000020000197        0x0 D:\gnat\2018-arm-elf\arm-eabi\lib\gnat\ravenscar-sfp-microbit\adalib\libgnat.a(handler.o)
 .data          0x0000000020000197        0x0 D:\gnat\2018-arm-elf\arm-eabi\lib\gnat\ravenscar-sfp-microbit\adalib\libgnat.a(breakpoint_handler-cortexm.o)
 .data          0x0000000020000197        0x0 d:/gnat/2018-arm-elf/bin/../lib/gcc/arm-eabi/7.3.1/thumb/v6-m\libgcc.a(_divsi3.o)
 .data          0x0000000020000197        0x0 d:/gnat/2018-arm-elf/bin/../lib/gcc/arm-eabi/7.3.1/thumb/v6-m\libgcc.a(_dvmd_tls.o)
 .data          0x0000000020000197        0x0 d:/gnat/2018-arm-elf/bin/../lib/gcc/arm-eabi/7.3.1/thumb/v6-m\libgcc.a(_arm_cmpsf2.o)
 .data          0x0000000020000197        0x0 d:/gnat/2018-arm-elf/bin/../lib/gcc/arm-eabi/7.3.1/thumb/v6-m\libgcc.a(_aeabi_ldivmod.o)
 .data          0x0000000020000197        0x0 d:/gnat/2018-arm-elf/bin/../lib/gcc/arm-eabi/7.3.1/thumb/v6-m\libgcc.a(_aeabi_uldivmod.o)
 .data          0x0000000020000197        0x0 d:/gnat/2018-arm-elf/bin/../lib/gcc/arm-eabi/7.3.1/thumb/v6-m\libgcc.a(_muldi3.o)
 .data          0x0000000020000197        0x0 d:/gnat/2018-arm-elf/bin/../lib/gcc/arm-eabi/7.3.1/thumb/v6-m\libgcc.a(_fixunssfsi.o)
 .data          0x0000000020000197        0x0 d:/gnat/2018-arm-elf/bin/../lib/gcc/arm-eabi/7.3.1/thumb/v6-m\libgcc.a(_udivmoddi4.o)
 .data          0x0000000020000197        0x0 d:/gnat/2018-arm-elf/bin/../lib/gcc/arm-eabi/7.3.1/thumb/v6-m\libgcc.a(bpabi.o)
 .data          0x0000000020000197        0x0 d:/gnat/2018-arm-elf/bin/../lib/gcc/arm-eabi/7.3.1/thumb/v6-m\libgcc.a(addsf3.o)
 .data          0x0000000020000197        0x0 d:/gnat/2018-arm-elf/bin/../lib/gcc/arm-eabi/7.3.1/thumb/v6-m\libgcc.a(divsf3.o)
 .data          0x0000000020000197        0x0 d:/gnat/2018-arm-elf/bin/../lib/gcc/arm-eabi/7.3.1/thumb/v6-m\libgcc.a(eqsf2.o)
 .data          0x0000000020000197        0x0 d:/gnat/2018-arm-elf/bin/../lib/gcc/arm-eabi/7.3.1/thumb/v6-m\libgcc.a(gesf2.o)
 .data          0x0000000020000197        0x0 d:/gnat/2018-arm-elf/bin/../lib/gcc/arm-eabi/7.3.1/thumb/v6-m\libgcc.a(lesf2.o)
 .data          0x0000000020000197        0x0 d:/gnat/2018-arm-elf/bin/../lib/gcc/arm-eabi/7.3.1/thumb/v6-m\libgcc.a(mulsf3.o)
 .data          0x0000000020000197        0x0 d:/gnat/2018-arm-elf/bin/../lib/gcc/arm-eabi/7.3.1/thumb/v6-m\libgcc.a(subsf3.o)
 .data          0x0000000020000197        0x0 d:/gnat/2018-arm-elf/bin/../lib/gcc/arm-eabi/7.3.1/thumb/v6-m\libgcc.a(unordsf2.o)
 .data          0x0000000020000197        0x0 d:/gnat/2018-arm-elf/bin/../lib/gcc/arm-eabi/7.3.1/thumb/v6-m\libgcc.a(fixsfsi.o)
 .data          0x0000000020000197        0x0 d:/gnat/2018-arm-elf/bin/../lib/gcc/arm-eabi/7.3.1/thumb/v6-m\libgcc.a(floatsisf.o)
 .data          0x0000000020000197        0x0 d:/gnat/2018-arm-elf/bin/../lib/gcc/arm-eabi/7.3.1/thumb/v6-m\libgcc.a(floatunsisf.o)
 .data          0x0000000020000197        0x0 d:/gnat/2018-arm-elf/bin/../lib/gcc/arm-eabi/7.3.1/thumb/v6-m\libgcc.a(_clzsi2.o)
 .data          0x0000000020000197        0x0 d:/gnat/2018-arm-elf/bin/../lib/gcc/arm-eabi/7.3.1/thumb/v6-m\libgcc.a(_clzdi2.o)
 .data          0x0000000020000197        0x0 d:/gnat/2018-arm-elf/bin/../lib/gcc/arm-eabi/7.3.1/thumb/v6-m\libgcc.a(_divdi3.o)
                0x0000000020000198                . = ALIGN (0x4)
 *fill*         0x0000000020000197        0x1 
                0x0000000020000198                __data_end = .
                0x0000000000000066                __data_words = ((__data_end - __data_start) >> 0x2)

.igot.plt       0x0000000020000198        0x0 load address 0x000000000000a4f0
 .igot.plt      0x0000000020000198        0x0 main.o

.bss            0x0000000020000198     0x1660 load address 0x000000000000a4f0
                0x0000000020000198                . = ALIGN (0x8)
                0x0000000020000198                __bss_start = .
 *(.bss .bss.*)
 .bss           0x0000000020000198        0x0 main.o
 .bss           0x0000000020000198        0x0 b__main.o
 .bss.ada_main__sec_default_sized_stacks
                0x0000000020000198      0x210 b__main.o
 .bss           0x00000000200003a8        0x0 D:\programming\ada_projects\Ada_Drivers_Library\boards\MicroBit\obj\zfp_lib_Debug\libada_drivers_library.a(cortex_m-nvic.o)
 .bss           0x00000000200003a8        0x0 D:\programming\ada_projects\Ada_Drivers_Library\boards\MicroBit\obj\zfp_lib_Debug\libada_drivers_library.a(microbit-ios.o)
 .bss.microbit__ios__points
                0x00000000200003a8       0xa8 D:\programming\ada_projects\Ada_Drivers_Library\boards\MicroBit\obj\zfp_lib_Debug\libada_drivers_library.a(microbit-ios.o)
                0x00000000200003a8                microbit__ios__points
 .bss.microbit__ios__pwms
                0x0000000020000450       0x24 D:\programming\ada_projects\Ada_Drivers_Library\boards\MicroBit\obj\zfp_lib_Debug\libada_drivers_library.a(microbit-ios.o)
                0x0000000020000450                microbit__ios__pwms
 .bss           0x0000000020000474        0x0 D:\programming\ada_projects\Ada_Drivers_Library\boards\MicroBit\obj\zfp_lib_Debug\libada_drivers_library.a(nrf51-adc.o)
 .bss           0x0000000020000474        0x0 D:\programming\ada_projects\Ada_Drivers_Library\boards\MicroBit\obj\zfp_lib_Debug\libada_drivers_library.a(nrf51-device.o)
 .bss.nrf51__device__p00
                0x0000000020000474        0x8 D:\programming\ada_projects\Ada_Drivers_Library\boards\MicroBit\obj\zfp_lib_Debug\libada_drivers_library.a(nrf51-device.o)
                0x0000000020000474                nrf51__device( *)
 .bss.nrf51__device__p01
                0x000000002000047c        0x8 D:\programming\ada_projects\Ada_Drivers_Library\boards\MicroBit\obj\zfp_lib_Debug\libada_drivers_library.a(nrf51-device.o)
                0x000000002000047c                nrf51__device__p01
 .bss.nrf51__device__p02
                0x0000000020000484        0x8 D:\programming\ada_projects\Ada_Drivers_Library\boards\MicroBit\obj\zfp_lib_Debug\libada_drivers_library.a(nrf51-device.o)
                0x0000000020000484                nrf51__device__p02
 .bss.nrf51__device__p03
                0x000000002000048c        0x8 D:\programming\ada_projects\Ada_Drivers_Library\boards\MicroBit\obj\zfp_lib_Debug\libada_drivers_library.a(nrf51-device.o)
                0x000000002000048c                nrf51__device__p03
 .bss.nrf51__device__p04
                0x0000000020000494        0x8 D:\programming\ada_projects\Ada_Drivers_Library\boards\MicroBit\obj\zfp_lib_Debug\libada_drivers_library.a(nrf51-device.o)
                0x0000000020000494                nrf51__device__p04
 .bss.nrf51__device__p05
                0x000000002000049c        0x8 D:\programming\ada_projects\Ada_Drivers_Library\boards\MicroBit\obj\zfp_lib_Debug\libada_drivers_library.a(nrf51-device.o)
                0x000000002000049c                nrf51__device__p05
 .bss.nrf51__device__p06
                0x00000000200004a4        0x8 D:\programming\ada_projects\Ada_Drivers_Library\boards\MicroBit\obj\zfp_lib_Debug\libada_drivers_library.a(nrf51-device.o)
                0x00000000200004a4                nrf51__device__p06
 .bss.nrf51__device__p07
                0x00000000200004ac        0x8 D:\programming\ada_projects\Ada_Drivers_Library\boards\MicroBit\obj\zfp_lib_Debug\libada_drivers_library.a(nrf51-device.o)
                0x00000000200004ac                nrf51__device__p07
 .bss.nrf51__device__p08
                0x00000000200004b4        0x8 D:\programming\ada_projects\Ada_Drivers_Library\boards\MicroBit\obj\zfp_lib_Debug\libada_drivers_library.a(nrf51-device.o)
                0x00000000200004b4                nrf51__device__p08
 .bss.nrf51__device__p09
                0x00000000200004bc        0x8 D:\programming\ada_projects\Ada_Drivers_Library\boards\MicroBit\obj\zfp_lib_Debug\libada_drivers_library.a(nrf51-device.o)
                0x00000000200004bc                nrf51__device__p09
 .bss.nrf51__device__p10
                0x00000000200004c4        0x8 D:\programming\ada_projects\Ada_Drivers_Library\boards\MicroBit\obj\zfp_lib_Debug\libada_drivers_library.a(nrf51-device.o)
                0x00000000200004c4                nrf51__device__p10
 .bss.nrf51__device__p11
                0x00000000200004cc        0x8 D:\programming\ada_projects\Ada_Drivers_Library\boards\MicroBit\obj\zfp_lib_Debug\libada_drivers_library.a(nrf51-device.o)
                0x00000000200004cc                nrf51__device__p11
 .bss.nrf51__device__p12
                0x00000000200004d4        0x8 D:\programming\ada_projects\Ada_Drivers_Library\boards\MicroBit\obj\zfp_lib_Debug\libada_drivers_library.a(nrf51-device.o)
                0x00000000200004d4                nrf51__device__p12
 .bss.nrf51__device__p13
                0x00000000200004dc        0x8 D:\programming\ada_projects\Ada_Drivers_Library\boards\MicroBit\obj\zfp_lib_Debug\libada_drivers_library.a(nrf51-device.o)
                0x00000000200004dc                nrf51__device__p13
 .bss.nrf51__device__p14
                0x00000000200004e4        0x8 D:\programming\ada_projects\Ada_Drivers_Library\boards\MicroBit\obj\zfp_lib_Debug\libada_drivers_library.a(nrf51-device.o)
                0x00000000200004e4                nrf51__device__p14
 .bss.nrf51__device__p15
                0x00000000200004ec        0x8 D:\programming\ada_projects\Ada_Drivers_Library\boards\MicroBit\obj\zfp_lib_Debug\libada_drivers_library.a(nrf51-device.o)
                0x00000000200004ec                nrf51__device__p15
 .bss.nrf51__device__p16
                0x00000000200004f4        0x8 D:\programming\ada_projects\Ada_Drivers_Library\boards\MicroBit\obj\zfp_lib_Debug\libada_drivers_library.a(nrf51-device.o)
                0x00000000200004f4                nrf51__device__p16
 .bss.nrf51__device__p17
                0x00000000200004fc        0x8 D:\programming\ada_projects\Ada_Drivers_Library\boards\MicroBit\obj\zfp_lib_Debug\libada_drivers_library.a(nrf51-device.o)
                0x00000000200004fc                nrf51__device__p17
 .bss.nrf51__device__p18
                0x0000000020000504        0x8 D:\programming\ada_projects\Ada_Drivers_Library\boards\MicroBit\obj\zfp_lib_Debug\libada_drivers_library.a(nrf51-device.o)
                0x0000000020000504                nrf51__device__p18
 .bss.nrf51__device__p19
                0x000000002000050c        0x8 D:\programming\ada_projects\Ada_Drivers_Library\boards\MicroBit\obj\zfp_lib_Debug\libada_drivers_library.a(nrf51-device.o)
                0x000000002000050c                nrf51__device__p19
 .bss.nrf51__device__p20
                0x0000000020000514        0x8 D:\programming\ada_projects\Ada_Drivers_Library\boards\MicroBit\obj\zfp_lib_Debug\libada_drivers_library.a(nrf51-device.o)
                0x0000000020000514                nrf51__device__p20
 .bss.nrf51__device__p21
                0x000000002000051c        0x8 D:\programming\ada_projects\Ada_Drivers_Library\boards\MicroBit\obj\zfp_lib_Debug\libada_drivers_library.a(nrf51-device.o)
                0x000000002000051c                nrf51__device__p21
 .bss.nrf51__device__p22
                0x0000000020000524        0x8 D:\programming\ada_projects\Ada_Drivers_Library\boards\MicroBit\obj\zfp_lib_Debug\libada_drivers_library.a(nrf51-device.o)
                0x0000000020000524                nrf51__device__p22
 .bss.nrf51__device__p23
                0x000000002000052c        0x8 D:\programming\ada_projects\Ada_Drivers_Library\boards\MicroBit\obj\zfp_lib_Debug\libada_drivers_library.a(nrf51-device.o)
                0x000000002000052c                nrf51__device__p23
 .bss.nrf51__device__p24
                0x0000000020000534        0x8 D:\programming\ada_projects\Ada_Drivers_Library\boards\MicroBit\obj\zfp_lib_Debug\libada_drivers_library.a(nrf51-device.o)
                0x0000000020000534                nrf51__device__p24
 .bss.nrf51__device__p25
                0x000000002000053c        0x8 D:\programming\ada_projects\Ada_Drivers_Library\boards\MicroBit\obj\zfp_lib_Debug\libada_drivers_library.a(nrf51-device.o)
                0x000000002000053c                nrf51__device__p25
 .bss.nrf51__device__p26
                0x0000000020000544        0x8 D:\programming\ada_projects\Ada_Drivers_Library\boards\MicroBit\obj\zfp_lib_Debug\libada_drivers_library.a(nrf51-device.o)
                0x0000000020000544                nrf51__device__p26
 .bss.nrf51__device__p27
                0x000000002000054c        0x8 D:\programming\ada_projects\Ada_Drivers_Library\boards\MicroBit\obj\zfp_lib_Debug\libada_drivers_library.a(nrf51-device.o)
                0x000000002000054c                nrf51__device__p27
 .bss.nrf51__device__p28
                0x0000000020000554        0x8 D:\programming\ada_projects\Ada_Drivers_Library\boards\MicroBit\obj\zfp_lib_Debug\libada_drivers_library.a(nrf51-device.o)
                0x0000000020000554                nrf51__device__p28
 .bss.nrf51__device__p29
                0x000000002000055c        0x8 D:\programming\ada_projects\Ada_Drivers_Library\boards\MicroBit\obj\zfp_lib_Debug\libada_drivers_library.a(nrf51-device.o)
                0x000000002000055c                nrf51__device__p29
 .bss.nrf51__device__p30
                0x0000000020000564        0x8 D:\programming\ada_projects\Ada_Drivers_Library\boards\MicroBit\obj\zfp_lib_Debug\libada_drivers_library.a(nrf51-device.o)
                0x0000000020000564                nrf51__device__p30
 .bss.nrf51__device__p31
                0x000000002000056c        0x8 D:\programming\ada_projects\Ada_Drivers_Library\boards\MicroBit\obj\zfp_lib_Debug\libada_drivers_library.a(nrf51-device.o)
                0x000000002000056c                nrf51__device__p31
 .bss.nrf51__device__rtc_0
                0x0000000020000574        0x4 D:\programming\ada_projects\Ada_Drivers_Library\boards\MicroBit\obj\zfp_lib_Debug\libada_drivers_library.a(nrf51-device.o)
                0x0000000020000574                nrf51__device__rtc_0
 .bss.nrf51__device__rtc_1
                0x0000000020000578        0x4 D:\programming\ada_projects\Ada_Drivers_Library\boards\MicroBit\obj\zfp_lib_Debug\libada_drivers_library.a(nrf51-device.o)
                0x0000000020000578                nrf51__device__rtc_1
 .bss.nrf51__device__twi_0
                0x000000002000057c        0xc D:\programming\ada_projects\Ada_Drivers_Library\boards\MicroBit\obj\zfp_lib_Debug\libada_drivers_library.a(nrf51-device.o)
                0x000000002000057c                nrf51__device__twi_0
 .bss.nrf51__device__twi_1
                0x0000000020000588        0xc D:\programming\ada_projects\Ada_Drivers_Library\boards\MicroBit\obj\zfp_lib_Debug\libada_drivers_library.a(nrf51-device.o)
                0x0000000020000588                nrf51__device__twi_1
 .bss.nrf51__device__timer_0
                0x0000000020000594        0x8 D:\programming\ada_projects\Ada_Drivers_Library\boards\MicroBit\obj\zfp_lib_Debug\libada_drivers_library.a(nrf51-device.o)
                0x0000000020000594                nrf51__device__timer_0
 .bss.nrf51__device__timer_1
                0x000000002000059c        0x8 D:\programming\ada_projects\Ada_Drivers_Library\boards\MicroBit\obj\zfp_lib_Debug\libada_drivers_library.a(nrf51-device.o)
                0x000000002000059c                nrf51__device__timer_1
 .bss.nrf51__device__timer_2
                0x00000000200005a4        0x8 D:\programming\ada_projects\Ada_Drivers_Library\boards\MicroBit\obj\zfp_lib_Debug\libada_drivers_library.a(nrf51-device.o)
                0x00000000200005a4                nrf51__device__timer_2
 .bss           0x00000000200005ac        0x0 D:\programming\ada_projects\Ada_Drivers_Library\boards\MicroBit\obj\zfp_lib_Debug\libada_drivers_library.a(nrf51-events.o)
 .bss           0x00000000200005ac        0x0 D:\programming\ada_projects\Ada_Drivers_Library\boards\MicroBit\obj\zfp_lib_Debug\libada_drivers_library.a(nrf51-gpio-tasks_and_events.o)
 .bss           0x00000000200005ac        0x0 D:\programming\ada_projects\Ada_Drivers_Library\boards\MicroBit\obj\zfp_lib_Debug\libada_drivers_library.a(nrf51-gpio.o)
 .bss           0x00000000200005ac        0x0 D:\programming\ada_projects\Ada_Drivers_Library\boards\MicroBit\obj\zfp_lib_Debug\libada_drivers_library.a(nrf51-interrupts.o)
 .bss           0x00000000200005ac        0x0 D:\programming\ada_projects\Ada_Drivers_Library\boards\MicroBit\obj\zfp_lib_Debug\libada_drivers_library.a(nrf51-ppi.o)
 .bss           0x00000000200005ac        0x0 D:\programming\ada_projects\Ada_Drivers_Library\boards\MicroBit\obj\zfp_lib_Debug\libada_drivers_library.a(nrf51-rtc.o)
 .bss           0x00000000200005ac        0x0 D:\programming\ada_projects\Ada_Drivers_Library\boards\MicroBit\obj\zfp_lib_Debug\libada_drivers_library.a(nrf51-tasks.o)
 .bss           0x00000000200005ac        0x0 D:\programming\ada_projects\Ada_Drivers_Library\boards\MicroBit\obj\zfp_lib_Debug\libada_drivers_library.a(nrf51-timers.o)
 .bss           0x00000000200005ac        0x0 D:\programming\ada_projects\Ada_Drivers_Library\boards\MicroBit\obj\zfp_lib_Debug\libada_drivers_library.a(nrf51-twi.o)
 .bss           0x00000000200005ac        0x0 D:\programming\ada_projects\Ada_Drivers_Library\boards\MicroBit\obj\zfp_lib_Debug\libada_drivers_library.a(nrf51_svd-gpio.o)
 .bss           0x00000000200005ac        0x0 D:\programming\ada_projects\Ada_Drivers_Library\boards\MicroBit\obj\zfp_lib_Debug\libada_drivers_library.a(nrf51_svd-twi.o)
 .bss           0x00000000200005ac        0x0 D:\programming\ada_projects\Ada_Drivers_Library\boards\MicroBit\obj\zfp_lib_Debug\libada_drivers_library.a(hal-gpio.o)
 .bss           0x00000000200005ac        0x0 D:\programming\ada_projects\Ada_Drivers_Library\boards\MicroBit\obj\zfp_lib_Debug\libada_drivers_library.a(hal-i2c.o)
 .bss           0x00000000200005ac        0x0 D:\gnat\2018-arm-elf\arm-eabi\lib\gnat\ravenscar-sfp-microbit\adalib\libgnarl.a(a-reatim.o)
 .bss           0x00000000200005ac        0x0 D:\gnat\2018-arm-elf\arm-eabi\lib\gnat\ravenscar-sfp-microbit\adalib\libgnarl.a(a-retide.o)
 .bss           0x00000000200005ac        0x0 D:\gnat\2018-arm-elf\arm-eabi\lib\gnat\ravenscar-sfp-microbit\adalib\libgnarl.a(s-bbbosu.o)
 .bss.__gnat_alarm_time
                0x00000000200005ac        0x4 D:\gnat\2018-arm-elf\arm-eabi\lib\gnat\ravenscar-sfp-microbit\adalib\libgnarl.a(s-bbbosu.o)
                0x00000000200005ac                __gnat_alarm_time
 .bss.system__bb__board_support__next_tick_time
                0x00000000200005b0        0x4 D:\gnat\2018-arm-elf\arm-eabi\lib\gnat\ravenscar-sfp-microbit\adalib\libgnarl.a(s-bbbosu.o)
                0x00000000200005b0                system__bb__board_support__next_tick_time
 .bss           0x00000000200005b4        0x0 D:\gnat\2018-arm-elf\arm-eabi\lib\gnat\ravenscar-sfp-microbit\adalib\libgnarl.a(s-bbcppr.o)
 .bss.__gnat_bb_exception_handlers
                0x00000000200005b4       0x44 D:\gnat\2018-arm-elf\arm-eabi\lib\gnat\ravenscar-sfp-microbit\adalib\libgnarl.a(s-bbcppr.o)
                0x00000000200005b4                __gnat_bb_exception_handlers
 .bss           0x00000000200005f8        0x0 D:\gnat\2018-arm-elf\arm-eabi\lib\gnat\ravenscar-sfp-microbit\adalib\libgnarl.a(s-bbinte.o)
 .bss.interrupt_stack_table
                0x00000000200005f8        0x4 D:\gnat\2018-arm-elf\arm-eabi\lib\gnat\ravenscar-sfp-microbit\adalib\libgnarl.a(s-bbinte.o)
                0x00000000200005f8                interrupt_stack_table
 .bss.system__bb__interrupts__interrupt_handlers_table
                0x00000000200005fc       0x70 D:\gnat\2018-arm-elf\arm-eabi\lib\gnat\ravenscar-sfp-microbit\adalib\libgnarl.a(s-bbinte.o)
                0x00000000200005fc                system__bb__interrupts__interrupt_handlers_table
 .bss           0x000000002000066c        0x0 D:\gnat\2018-arm-elf\arm-eabi\lib\gnat\ravenscar-sfp-microbit\adalib\libgnarl.a(s-bbthqu.o)
 .bss           0x000000002000066c        0x0 D:\gnat\2018-arm-elf\arm-eabi\lib\gnat\ravenscar-sfp-microbit\adalib\libgnarl.a(s-bbtime.o)
 .bss           0x000000002000066c        0x0 D:\gnat\2018-arm-elf\arm-eabi\lib\gnat\ravenscar-sfp-microbit\adalib\libgnarl.a(s-bcpcst.o)
 .bss           0x000000002000066c        0x0 D:\gnat\2018-arm-elf\arm-eabi\lib\gnat\ravenscar-sfp-microbit\adalib\libgnarl.a(s-taskin.o)
 *fill*         0x000000002000066c        0x4 
 .bss.system__tasking__environment_task
                0x0000000020000670       0xb8 D:\gnat\2018-arm-elf\arm-eabi\lib\gnat\ravenscar-sfp-microbit\adalib\libgnarl.a(s-taskin.o)
 .bss           0x0000000020000728        0x0 D:\gnat\2018-arm-elf\arm-eabi\lib\gnat\ravenscar-sfp-microbit\adalib\libgnarl.a(s-bbprot.o)
 .bss           0x0000000020000728        0x0 D:\gnat\2018-arm-elf\arm-eabi\lib\gnat\ravenscar-sfp-microbit\adalib\libgnarl.a(s-bbthre.o)
 .bss           0x0000000020000728        0x0 D:\gnat\2018-arm-elf\arm-eabi\lib\gnat\ravenscar-sfp-microbit\adalib\libgnarl.a(s-bbtiev.o)
 .bss           0x0000000020000728        0x0 D:\gnat\2018-arm-elf\arm-eabi\lib\gnat\ravenscar-sfp-microbit\adalib\libgnarl.a(s-taprop.o)
 .bss.__gnat_idle_stack_table
                0x0000000020000728        0x4 D:\gnat\2018-arm-elf\arm-eabi\lib\gnat\ravenscar-sfp-microbit\adalib\libgnarl.a(s-taprop.o)
                0x0000000020000728                __gnat_idle_stack_table
 *fill*         0x000000002000072c        0x4 
 .bss.system__task_primitives__operations__idle_stacks
                0x0000000020000730      0x800 D:\gnat\2018-arm-elf\arm-eabi\lib\gnat\ravenscar-sfp-microbit\adalib\libgnarl.a(s-taprop.o)
                0x0000000020000730                system__task_primitives__operations__idle_stacks
 .bss.system__task_primitives__operations__idle_tasks
                0x0000000020000f30       0xb8 D:\gnat\2018-arm-elf\arm-eabi\lib\gnat\ravenscar-sfp-microbit\adalib\libgnarl.a(s-taprop.o)
                0x0000000020000f30                system__task_primitives__operations__idle_tasks
 .bss           0x0000000020000fe8        0x0 D:\gnat\2018-arm-elf\arm-eabi\lib\gnat\ravenscar-sfp-microbit\adalib\libgnarl.a(s-tasdeb.o)
 .bss           0x0000000020000fe8        0x0 D:\gnat\2018-arm-elf\arm-eabi\lib\gnat\ravenscar-sfp-microbit\adalib\libgnat.a(a-elchha.o)
 .bss           0x0000000020000fe8        0x0 D:\gnat\2018-arm-elf\arm-eabi\lib\gnat\ravenscar-sfp-microbit\adalib\libgnat.a(a-except.o)
 .bss           0x0000000020000fe8        0x0 D:\gnat\2018-arm-elf\arm-eabi\lib\gnat\ravenscar-sfp-microbit\adalib\libgnat.a(g-io.o)
 .bss           0x0000000020000fe8        0x0 D:\gnat\2018-arm-elf\arm-eabi\lib\gnat\ravenscar-sfp-microbit\adalib\libgnat.a(s-assert.o)
 .bss           0x0000000020000fe8        0x0 D:\gnat\2018-arm-elf\arm-eabi\lib\gnat\ravenscar-sfp-microbit\adalib\libgnat.a(s-macres.o)
 .bss           0x0000000020000fe8        0x0 D:\gnat\2018-arm-elf\arm-eabi\lib\gnat\ravenscar-sfp-microbit\adalib\libgnat.a(s-memcop.o)
 .bss           0x0000000020000fe8        0x0 D:\gnat\2018-arm-elf\arm-eabi\lib\gnat\ravenscar-sfp-microbit\adalib\libgnat.a(s-memset.o)
 .bss           0x0000000020000fe8        0x0 D:\gnat\2018-arm-elf\arm-eabi\lib\gnat\ravenscar-sfp-microbit\adalib\libgnat.a(s-parame.o)
 .bss           0x0000000020000fe8        0x0 D:\gnat\2018-arm-elf\arm-eabi\lib\gnat\ravenscar-sfp-microbit\adalib\libgnat.a(s-secsta.o)
 .bss.__gnat_binder_ss_count
                0x0000000020000fe8        0x4 D:\gnat\2018-arm-elf\arm-eabi\lib\gnat\ravenscar-sfp-microbit\adalib\libgnat.a(s-secsta.o)
                0x0000000020000fe8                __gnat_binder_ss_count
 .bss.__gnat_default_ss_pool
                0x0000000020000fec        0x4 D:\gnat\2018-arm-elf\arm-eabi\lib\gnat\ravenscar-sfp-microbit\adalib\libgnat.a(s-secsta.o)
                0x0000000020000fec                __gnat_default_ss_pool
 .bss.__gnat_default_ss_size
                0x0000000020000ff0        0x4 D:\gnat\2018-arm-elf\arm-eabi\lib\gnat\ravenscar-sfp-microbit\adalib\libgnat.a(s-secsta.o)
                0x0000000020000ff0                __gnat_default_ss_size
 .bss.system__secondary_stack__ss_pool
                0x0000000020000ff4        0x4 D:\gnat\2018-arm-elf\arm-eabi\lib\gnat\ravenscar-sfp-microbit\adalib\libgnat.a(s-secsta.o)
                0x0000000020000ff4                system__secondary_stack__ss_pool
 .bss           0x0000000020000ff8        0x0 D:\gnat\2018-arm-elf\arm-eabi\lib\gnat\ravenscar-sfp-microbit\adalib\libgnat.a(s-textio.o)
 .bss           0x0000000020000ff8        0x0 D:\gnat\2018-arm-elf\arm-eabi\lib\gnat\ravenscar-sfp-microbit\adalib\libgnat.a(start-rom.o)
 .bss           0x0000000020000ff8        0x0 D:\gnat\2018-arm-elf\arm-eabi\lib\gnat\ravenscar-sfp-microbit\adalib\libgnat.a(handler.o)
 .bss           0x0000000020000ff8        0x0 D:\gnat\2018-arm-elf\arm-eabi\lib\gnat\ravenscar-sfp-microbit\adalib\libgnat.a(breakpoint_handler-cortexm.o)
 .bss           0x0000000020000ff8        0x0 d:/gnat/2018-arm-elf/bin/../lib/gcc/arm-eabi/7.3.1/thumb/v6-m\libgcc.a(_divsi3.o)
 .bss           0x0000000020000ff8        0x0 d:/gnat/2018-arm-elf/bin/../lib/gcc/arm-eabi/7.3.1/thumb/v6-m\libgcc.a(_dvmd_tls.o)
 .bss           0x0000000020000ff8        0x0 d:/gnat/2018-arm-elf/bin/../lib/gcc/arm-eabi/7.3.1/thumb/v6-m\libgcc.a(_arm_cmpsf2.o)
 .bss           0x0000000020000ff8        0x0 d:/gnat/2018-arm-elf/bin/../lib/gcc/arm-eabi/7.3.1/thumb/v6-m\libgcc.a(_aeabi_ldivmod.o)
 .bss           0x0000000020000ff8        0x0 d:/gnat/2018-arm-elf/bin/../lib/gcc/arm-eabi/7.3.1/thumb/v6-m\libgcc.a(_aeabi_uldivmod.o)
 .bss           0x0000000020000ff8        0x0 d:/gnat/2018-arm-elf/bin/../lib/gcc/arm-eabi/7.3.1/thumb/v6-m\libgcc.a(_muldi3.o)
 .bss           0x0000000020000ff8        0x0 d:/gnat/2018-arm-elf/bin/../lib/gcc/arm-eabi/7.3.1/thumb/v6-m\libgcc.a(_fixunssfsi.o)
 .bss           0x0000000020000ff8        0x0 d:/gnat/2018-arm-elf/bin/../lib/gcc/arm-eabi/7.3.1/thumb/v6-m\libgcc.a(_udivmoddi4.o)
 .bss           0x0000000020000ff8        0x0 d:/gnat/2018-arm-elf/bin/../lib/gcc/arm-eabi/7.3.1/thumb/v6-m\libgcc.a(bpabi.o)
 .bss           0x0000000020000ff8        0x0 d:/gnat/2018-arm-elf/bin/../lib/gcc/arm-eabi/7.3.1/thumb/v6-m\libgcc.a(addsf3.o)
 .bss           0x0000000020000ff8        0x0 d:/gnat/2018-arm-elf/bin/../lib/gcc/arm-eabi/7.3.1/thumb/v6-m\libgcc.a(divsf3.o)
 .bss           0x0000000020000ff8        0x0 d:/gnat/2018-arm-elf/bin/../lib/gcc/arm-eabi/7.3.1/thumb/v6-m\libgcc.a(eqsf2.o)
 .bss           0x0000000020000ff8        0x0 d:/gnat/2018-arm-elf/bin/../lib/gcc/arm-eabi/7.3.1/thumb/v6-m\libgcc.a(gesf2.o)
 .bss           0x0000000020000ff8        0x0 d:/gnat/2018-arm-elf/bin/../lib/gcc/arm-eabi/7.3.1/thumb/v6-m\libgcc.a(lesf2.o)
 .bss           0x0000000020000ff8        0x0 d:/gnat/2018-arm-elf/bin/../lib/gcc/arm-eabi/7.3.1/thumb/v6-m\libgcc.a(mulsf3.o)
 .bss           0x0000000020000ff8        0x0 d:/gnat/2018-arm-elf/bin/../lib/gcc/arm-eabi/7.3.1/thumb/v6-m\libgcc.a(subsf3.o)
 .bss           0x0000000020000ff8        0x0 d:/gnat/2018-arm-elf/bin/../lib/gcc/arm-eabi/7.3.1/thumb/v6-m\libgcc.a(unordsf2.o)
 .bss           0x0000000020000ff8        0x0 d:/gnat/2018-arm-elf/bin/../lib/gcc/arm-eabi/7.3.1/thumb/v6-m\libgcc.a(fixsfsi.o)
 .bss           0x0000000020000ff8        0x0 d:/gnat/2018-arm-elf/bin/../lib/gcc/arm-eabi/7.3.1/thumb/v6-m\libgcc.a(floatsisf.o)
 .bss           0x0000000020000ff8        0x0 d:/gnat/2018-arm-elf/bin/../lib/gcc/arm-eabi/7.3.1/thumb/v6-m\libgcc.a(floatunsisf.o)
 .bss           0x0000000020000ff8        0x0 d:/gnat/2018-arm-elf/bin/../lib/gcc/arm-eabi/7.3.1/thumb/v6-m\libgcc.a(_clzsi2.o)
 .bss           0x0000000020000ff8        0x0 d:/gnat/2018-arm-elf/bin/../lib/gcc/arm-eabi/7.3.1/thumb/v6-m\libgcc.a(_clzdi2.o)
 .bss           0x0000000020000ff8        0x0 d:/gnat/2018-arm-elf/bin/../lib/gcc/arm-eabi/7.3.1/thumb/v6-m\libgcc.a(_divdi3.o)
 *(COMMON)
                0x0000000020000ff8                . = ALIGN (0x8)
                0x0000000020000ff8                __bss_end = .
                0x0000000020000ff8                __interrupt_stack_start = .
 *(.interrupt_stacks)
 .interrupt_stacks
                0x0000000020000ff8      0x400 D:\gnat\2018-arm-elf\arm-eabi\lib\gnat\ravenscar-sfp-microbit\adalib\libgnarl.a(s-bbinte.o)
                0x0000000020000ff8                system__bb__interrupts__interrupt_stacks
                0x00000000200013f8                . = ALIGN (0x8)
                0x00000000200013f8                __interrupt_stack_end = .
                0x00000000200013f8                __stack_start = .
                0x00000000200017f8                . = (. + DEFINED (__stack_size)?__stack_size:_DEFAULT_STACK_SIZE)
 *fill*         0x00000000200013f8      0x400 
                0x00000000200017f8                . = ALIGN (0x8)
                0x00000000200017f8                __stack_end = .
                0x00000000200017f8                _end = .
                0x00000000200017f8                __heap_start = .
                0x0000000020004000                __heap_end = (ORIGIN (sram_bs) + LENGTH (sram_bs))
                0x0000000000000398                __bss_words = ((__bss_end - __bss_start) >> 0x2)

.debug
 *(.debug)

.line
 *(.line)

.debug_srcinfo
 *(.debug_srcinfo)

.debug_sfnames
 *(.debug_sfnames)

.debug_aranges  0x0000000000000000      0x888
 *(.debug_aranges)
 .debug_aranges
                0x0000000000000000       0x20 main.o
 .debug_aranges
                0x0000000000000020       0x30 b__main.o
 .debug_aranges
                0x0000000000000050       0x50 D:\programming\ada_projects\Ada_Drivers_Library\boards\MicroBit\obj\zfp_lib_Debug\libada_drivers_library.a(cortex_m-nvic.o)
 .debug_aranges
                0x00000000000000a0       0x98 D:\programming\ada_projects\Ada_Drivers_Library\boards\MicroBit\obj\zfp_lib_Debug\libada_drivers_library.a(microbit-ios.o)
 .debug_aranges
                0x0000000000000138       0x48 D:\programming\ada_projects\Ada_Drivers_Library\boards\MicroBit\obj\zfp_lib_Debug\libada_drivers_library.a(nrf51-adc.o)
 .debug_aranges
                0x0000000000000180       0x20 D:\programming\ada_projects\Ada_Drivers_Library\boards\MicroBit\obj\zfp_lib_Debug\libada_drivers_library.a(nrf51-device.o)
 .debug_aranges
                0x00000000000001a0       0x48 D:\programming\ada_projects\Ada_Drivers_Library\boards\MicroBit\obj\zfp_lib_Debug\libada_drivers_library.a(nrf51-events.o)
 .debug_aranges
                0x00000000000001e8       0x40 D:\programming\ada_projects\Ada_Drivers_Library\boards\MicroBit\obj\zfp_lib_Debug\libada_drivers_library.a(nrf51-gpio-tasks_and_events.o)
 .debug_aranges
                0x0000000000000228       0x70 D:\programming\ada_projects\Ada_Drivers_Library\boards\MicroBit\obj\zfp_lib_Debug\libada_drivers_library.a(nrf51-gpio.o)
 .debug_aranges
                0x0000000000000298       0x48 D:\programming\ada_projects\Ada_Drivers_Library\boards\MicroBit\obj\zfp_lib_Debug\libada_drivers_library.a(nrf51-interrupts.o)
 .debug_aranges
                0x00000000000002e0       0x50 D:\programming\ada_projects\Ada_Drivers_Library\boards\MicroBit\obj\zfp_lib_Debug\libada_drivers_library.a(nrf51-ppi.o)
 .debug_aranges
                0x0000000000000330       0x60 D:\programming\ada_projects\Ada_Drivers_Library\boards\MicroBit\obj\zfp_lib_Debug\libada_drivers_library.a(nrf51-rtc.o)
 .debug_aranges
                0x0000000000000390       0x30 D:\programming\ada_projects\Ada_Drivers_Library\boards\MicroBit\obj\zfp_lib_Debug\libada_drivers_library.a(nrf51-tasks.o)
 .debug_aranges
                0x00000000000003c0       0xc0 D:\programming\ada_projects\Ada_Drivers_Library\boards\MicroBit\obj\zfp_lib_Debug\libada_drivers_library.a(nrf51-timers.o)
 .debug_aranges
                0x0000000000000480       0x70 D:\programming\ada_projects\Ada_Drivers_Library\boards\MicroBit\obj\zfp_lib_Debug\libada_drivers_library.a(nrf51-twi.o)
 .debug_aranges
                0x00000000000004f0       0x18 D:\programming\ada_projects\Ada_Drivers_Library\boards\MicroBit\obj\zfp_lib_Debug\libada_drivers_library.a(nrf51_svd-gpio.o)
 .debug_aranges
                0x0000000000000508       0x18 D:\programming\ada_projects\Ada_Drivers_Library\boards\MicroBit\obj\zfp_lib_Debug\libada_drivers_library.a(nrf51_svd-twi.o)
 .debug_aranges
                0x0000000000000520       0x18 D:\programming\ada_projects\Ada_Drivers_Library\boards\MicroBit\obj\zfp_lib_Debug\libada_drivers_library.a(hal-gpio.o)
 .debug_aranges
                0x0000000000000538       0x18 D:\programming\ada_projects\Ada_Drivers_Library\boards\MicroBit\obj\zfp_lib_Debug\libada_drivers_library.a(hal-i2c.o)
 .debug_aranges
                0x0000000000000550       0x20 D:\gnat\2018-arm-elf\arm-eabi\lib\gnat\ravenscar-sfp-microbit\adalib\libgnarl.a(s-tasdeb.o)
 .debug_aranges
                0x0000000000000570       0x18 D:\gnat\2018-arm-elf\arm-eabi\lib\gnat\ravenscar-sfp-microbit\adalib\libgnat.a(a-except.o)
 .debug_aranges
                0x0000000000000588       0x20 D:\gnat\2018-arm-elf\arm-eabi\lib\gnat\ravenscar-sfp-microbit\adalib\libgnat.a(s-assert.o)
 .debug_aranges
                0x00000000000005a8       0x20 d:/gnat/2018-arm-elf/bin/../lib/gcc/arm-eabi/7.3.1/thumb/v6-m\libgcc.a(_divsi3.o)
 .debug_aranges
                0x00000000000005c8       0x20 d:/gnat/2018-arm-elf/bin/../lib/gcc/arm-eabi/7.3.1/thumb/v6-m\libgcc.a(_dvmd_tls.o)
 .debug_aranges
                0x00000000000005e8       0x20 d:/gnat/2018-arm-elf/bin/../lib/gcc/arm-eabi/7.3.1/thumb/v6-m\libgcc.a(_arm_cmpsf2.o)
 .debug_aranges
                0x0000000000000608       0x20 d:/gnat/2018-arm-elf/bin/../lib/gcc/arm-eabi/7.3.1/thumb/v6-m\libgcc.a(_aeabi_ldivmod.o)
 .debug_aranges
                0x0000000000000628       0x20 d:/gnat/2018-arm-elf/bin/../lib/gcc/arm-eabi/7.3.1/thumb/v6-m\libgcc.a(_aeabi_uldivmod.o)
 .debug_aranges
                0x0000000000000648       0x20 d:/gnat/2018-arm-elf/bin/../lib/gcc/arm-eabi/7.3.1/thumb/v6-m\libgcc.a(_muldi3.o)
 .debug_aranges
                0x0000000000000668       0x20 d:/gnat/2018-arm-elf/bin/../lib/gcc/arm-eabi/7.3.1/thumb/v6-m\libgcc.a(_fixunssfsi.o)
 .debug_aranges
                0x0000000000000688       0x20 d:/gnat/2018-arm-elf/bin/../lib/gcc/arm-eabi/7.3.1/thumb/v6-m\libgcc.a(_udivmoddi4.o)
 .debug_aranges
                0x00000000000006a8       0x20 d:/gnat/2018-arm-elf/bin/../lib/gcc/arm-eabi/7.3.1/thumb/v6-m\libgcc.a(bpabi.o)
 .debug_aranges
                0x00000000000006c8       0x20 d:/gnat/2018-arm-elf/bin/../lib/gcc/arm-eabi/7.3.1/thumb/v6-m\libgcc.a(addsf3.o)
 .debug_aranges
                0x00000000000006e8       0x20 d:/gnat/2018-arm-elf/bin/../lib/gcc/arm-eabi/7.3.1/thumb/v6-m\libgcc.a(divsf3.o)
 .debug_aranges
                0x0000000000000708       0x20 d:/gnat/2018-arm-elf/bin/../lib/gcc/arm-eabi/7.3.1/thumb/v6-m\libgcc.a(eqsf2.o)
 .debug_aranges
                0x0000000000000728       0x20 d:/gnat/2018-arm-elf/bin/../lib/gcc/arm-eabi/7.3.1/thumb/v6-m\libgcc.a(gesf2.o)
 .debug_aranges
                0x0000000000000748       0x20 d:/gnat/2018-arm-elf/bin/../lib/gcc/arm-eabi/7.3.1/thumb/v6-m\libgcc.a(lesf2.o)
 .debug_aranges
                0x0000000000000768       0x20 d:/gnat/2018-arm-elf/bin/../lib/gcc/arm-eabi/7.3.1/thumb/v6-m\libgcc.a(mulsf3.o)
 .debug_aranges
                0x0000000000000788       0x20 d:/gnat/2018-arm-elf/bin/../lib/gcc/arm-eabi/7.3.1/thumb/v6-m\libgcc.a(subsf3.o)
 .debug_aranges
                0x00000000000007a8       0x20 d:/gnat/2018-arm-elf/bin/../lib/gcc/arm-eabi/7.3.1/thumb/v6-m\libgcc.a(unordsf2.o)
 .debug_aranges
                0x00000000000007c8       0x20 d:/gnat/2018-arm-elf/bin/../lib/gcc/arm-eabi/7.3.1/thumb/v6-m\libgcc.a(fixsfsi.o)
 .debug_aranges
                0x00000000000007e8       0x20 d:/gnat/2018-arm-elf/bin/../lib/gcc/arm-eabi/7.3.1/thumb/v6-m\libgcc.a(floatsisf.o)
 .debug_aranges
                0x0000000000000808       0x20 d:/gnat/2018-arm-elf/bin/../lib/gcc/arm-eabi/7.3.1/thumb/v6-m\libgcc.a(floatunsisf.o)
 .debug_aranges
                0x0000000000000828       0x20 d:/gnat/2018-arm-elf/bin/../lib/gcc/arm-eabi/7.3.1/thumb/v6-m\libgcc.a(_clzsi2.o)
 .debug_aranges
                0x0000000000000848       0x20 d:/gnat/2018-arm-elf/bin/../lib/gcc/arm-eabi/7.3.1/thumb/v6-m\libgcc.a(_clzdi2.o)
 .debug_aranges
                0x0000000000000868       0x20 d:/gnat/2018-arm-elf/bin/../lib/gcc/arm-eabi/7.3.1/thumb/v6-m\libgcc.a(_divdi3.o)

.debug_pubnames
 *(.debug_pubnames)

.debug_info     0x0000000000000000     0xe2be
 *(.debug_info .gnu.linkonce.wi.*)
 .debug_info    0x0000000000000000       0x71 main.o
 .debug_info    0x0000000000000071      0x4ab b__main.o
 .debug_info    0x000000000000051c      0x2e7 D:\programming\ada_projects\Ada_Drivers_Library\boards\MicroBit\obj\zfp_lib_Debug\libada_drivers_library.a(cortex_m-nvic.o)
 .debug_info    0x0000000000000803     0x10fc D:\programming\ada_projects\Ada_Drivers_Library\boards\MicroBit\obj\zfp_lib_Debug\libada_drivers_library.a(microbit-ios.o)
 .debug_info    0x00000000000018ff      0x225 D:\programming\ada_projects\Ada_Drivers_Library\boards\MicroBit\obj\zfp_lib_Debug\libada_drivers_library.a(nrf51-adc.o)
 .debug_info    0x0000000000001b24     0x1dd1 D:\programming\ada_projects\Ada_Drivers_Library\boards\MicroBit\obj\zfp_lib_Debug\libada_drivers_library.a(nrf51-device.o)
 .debug_info    0x00000000000038f5      0x807 D:\programming\ada_projects\Ada_Drivers_Library\boards\MicroBit\obj\zfp_lib_Debug\libada_drivers_library.a(nrf51-events.o)
 .debug_info    0x00000000000040fc      0x369 D:\programming\ada_projects\Ada_Drivers_Library\boards\MicroBit\obj\zfp_lib_Debug\libada_drivers_library.a(nrf51-gpio-tasks_and_events.o)
 .debug_info    0x0000000000004465      0x66b D:\programming\ada_projects\Ada_Drivers_Library\boards\MicroBit\obj\zfp_lib_Debug\libada_drivers_library.a(nrf51-gpio.o)
 .debug_info    0x0000000000004ad0      0x29f D:\programming\ada_projects\Ada_Drivers_Library\boards\MicroBit\obj\zfp_lib_Debug\libada_drivers_library.a(nrf51-interrupts.o)
 .debug_info    0x0000000000004d6f      0x2bc D:\programming\ada_projects\Ada_Drivers_Library\boards\MicroBit\obj\zfp_lib_Debug\libada_drivers_library.a(nrf51-ppi.o)
 .debug_info    0x000000000000502b      0xce6 D:\programming\ada_projects\Ada_Drivers_Library\boards\MicroBit\obj\zfp_lib_Debug\libada_drivers_library.a(nrf51-rtc.o)
 .debug_info    0x0000000000005d11      0x834 D:\programming\ada_projects\Ada_Drivers_Library\boards\MicroBit\obj\zfp_lib_Debug\libada_drivers_library.a(nrf51-tasks.o)
 .debug_info    0x0000000000006545      0xc89 D:\programming\ada_projects\Ada_Drivers_Library\boards\MicroBit\obj\zfp_lib_Debug\libada_drivers_library.a(nrf51-timers.o)
 .debug_info    0x00000000000071ce      0xf68 D:\programming\ada_projects\Ada_Drivers_Library\boards\MicroBit\obj\zfp_lib_Debug\libada_drivers_library.a(nrf51-twi.o)
 .debug_info    0x0000000000008136      0x6c6 D:\programming\ada_projects\Ada_Drivers_Library\boards\MicroBit\obj\zfp_lib_Debug\libada_drivers_library.a(nrf51_svd-gpio.o)
 .debug_info    0x00000000000087fc      0x889 D:\programming\ada_projects\Ada_Drivers_Library\boards\MicroBit\obj\zfp_lib_Debug\libada_drivers_library.a(nrf51_svd-twi.o)
 .debug_info    0x0000000000009085       0x3a D:\programming\ada_projects\Ada_Drivers_Library\boards\MicroBit\obj\zfp_lib_Debug\libada_drivers_library.a(hal-gpio.o)
 .debug_info    0x00000000000090bf       0x5d D:\programming\ada_projects\Ada_Drivers_Library\boards\MicroBit\obj\zfp_lib_Debug\libada_drivers_library.a(hal-i2c.o)
 .debug_info    0x000000000000911c      0x65b D:\gnat\2018-arm-elf\arm-eabi\lib\gnat\ravenscar-sfp-microbit\adalib\libgnarl.a(s-tasdeb.o)
 .debug_info    0x0000000000009777      0x149 D:\gnat\2018-arm-elf\arm-eabi\lib\gnat\ravenscar-sfp-microbit\adalib\libgnat.a(a-except.o)
 .debug_info    0x00000000000098c0      0x1cf D:\gnat\2018-arm-elf\arm-eabi\lib\gnat\ravenscar-sfp-microbit\adalib\libgnat.a(s-assert.o)
 .debug_info    0x0000000000009a8f       0x26 d:/gnat/2018-arm-elf/bin/../lib/gcc/arm-eabi/7.3.1/thumb/v6-m\libgcc.a(_divsi3.o)
 .debug_info    0x0000000000009ab5       0x26 d:/gnat/2018-arm-elf/bin/../lib/gcc/arm-eabi/7.3.1/thumb/v6-m\libgcc.a(_dvmd_tls.o)
 .debug_info    0x0000000000009adb       0x26 d:/gnat/2018-arm-elf/bin/../lib/gcc/arm-eabi/7.3.1/thumb/v6-m\libgcc.a(_arm_cmpsf2.o)
 .debug_info    0x0000000000009b01       0x26 d:/gnat/2018-arm-elf/bin/../lib/gcc/arm-eabi/7.3.1/thumb/v6-m\libgcc.a(_aeabi_ldivmod.o)
 .debug_info    0x0000000000009b27       0x26 d:/gnat/2018-arm-elf/bin/../lib/gcc/arm-eabi/7.3.1/thumb/v6-m\libgcc.a(_aeabi_uldivmod.o)
 .debug_info    0x0000000000009b4d      0xac2 d:/gnat/2018-arm-elf/bin/../lib/gcc/arm-eabi/7.3.1/thumb/v6-m\libgcc.a(_muldi3.o)
 .debug_info    0x000000000000a60f      0x9e4 d:/gnat/2018-arm-elf/bin/../lib/gcc/arm-eabi/7.3.1/thumb/v6-m\libgcc.a(_fixunssfsi.o)
 .debug_info    0x000000000000aff3      0xa3d d:/gnat/2018-arm-elf/bin/../lib/gcc/arm-eabi/7.3.1/thumb/v6-m\libgcc.a(_udivmoddi4.o)
 .debug_info    0x000000000000ba30       0xd2 d:/gnat/2018-arm-elf/bin/../lib/gcc/arm-eabi/7.3.1/thumb/v6-m\libgcc.a(bpabi.o)
 .debug_info    0x000000000000bb02      0x32c d:/gnat/2018-arm-elf/bin/../lib/gcc/arm-eabi/7.3.1/thumb/v6-m\libgcc.a(addsf3.o)
 .debug_info    0x000000000000be2e      0x32d d:/gnat/2018-arm-elf/bin/../lib/gcc/arm-eabi/7.3.1/thumb/v6-m\libgcc.a(divsf3.o)
 .debug_info    0x000000000000c15b      0x228 d:/gnat/2018-arm-elf/bin/../lib/gcc/arm-eabi/7.3.1/thumb/v6-m\libgcc.a(eqsf2.o)
 .debug_info    0x000000000000c383      0x234 d:/gnat/2018-arm-elf/bin/../lib/gcc/arm-eabi/7.3.1/thumb/v6-m\libgcc.a(gesf2.o)
 .debug_info    0x000000000000c5b7      0x237 d:/gnat/2018-arm-elf/bin/../lib/gcc/arm-eabi/7.3.1/thumb/v6-m\libgcc.a(lesf2.o)
 .debug_info    0x000000000000c7ee      0x393 d:/gnat/2018-arm-elf/bin/../lib/gcc/arm-eabi/7.3.1/thumb/v6-m\libgcc.a(mulsf3.o)
 .debug_info    0x000000000000cb81      0x32c d:/gnat/2018-arm-elf/bin/../lib/gcc/arm-eabi/7.3.1/thumb/v6-m\libgcc.a(subsf3.o)
 .debug_info    0x000000000000cead      0x21d d:/gnat/2018-arm-elf/bin/../lib/gcc/arm-eabi/7.3.1/thumb/v6-m\libgcc.a(unordsf2.o)
 .debug_info    0x000000000000d0ca      0x1d0 d:/gnat/2018-arm-elf/bin/../lib/gcc/arm-eabi/7.3.1/thumb/v6-m\libgcc.a(fixsfsi.o)
 .debug_info    0x000000000000d29a      0x24a d:/gnat/2018-arm-elf/bin/../lib/gcc/arm-eabi/7.3.1/thumb/v6-m\libgcc.a(floatsisf.o)
 .debug_info    0x000000000000d4e4      0x23e d:/gnat/2018-arm-elf/bin/../lib/gcc/arm-eabi/7.3.1/thumb/v6-m\libgcc.a(floatunsisf.o)
 .debug_info    0x000000000000d722       0x26 d:/gnat/2018-arm-elf/bin/../lib/gcc/arm-eabi/7.3.1/thumb/v6-m\libgcc.a(_clzsi2.o)
 .debug_info    0x000000000000d748       0x26 d:/gnat/2018-arm-elf/bin/../lib/gcc/arm-eabi/7.3.1/thumb/v6-m\libgcc.a(_clzdi2.o)
 .debug_info    0x000000000000d76e      0xb50 d:/gnat/2018-arm-elf/bin/../lib/gcc/arm-eabi/7.3.1/thumb/v6-m\libgcc.a(_divdi3.o)

.debug_abbrev   0x0000000000000000     0x3b6e
 *(.debug_abbrev)
 .debug_abbrev  0x0000000000000000       0x55 main.o
 .debug_abbrev  0x0000000000000055      0x202 b__main.o
 .debug_abbrev  0x0000000000000257      0x1af D:\programming\ada_projects\Ada_Drivers_Library\boards\MicroBit\obj\zfp_lib_Debug\libada_drivers_library.a(cortex_m-nvic.o)
 .debug_abbrev  0x0000000000000406      0x3f4 D:\programming\ada_projects\Ada_Drivers_Library\boards\MicroBit\obj\zfp_lib_Debug\libada_drivers_library.a(microbit-ios.o)
 .debug_abbrev  0x00000000000007fa      0x102 D:\programming\ada_projects\Ada_Drivers_Library\boards\MicroBit\obj\zfp_lib_Debug\libada_drivers_library.a(nrf51-adc.o)
 .debug_abbrev  0x00000000000008fc      0x2dd D:\programming\ada_projects\Ada_Drivers_Library\boards\MicroBit\obj\zfp_lib_Debug\libada_drivers_library.a(nrf51-device.o)
 .debug_abbrev  0x0000000000000bd9       0xf6 D:\programming\ada_projects\Ada_Drivers_Library\boards\MicroBit\obj\zfp_lib_Debug\libada_drivers_library.a(nrf51-events.o)
 .debug_abbrev  0x0000000000000ccf      0x12a D:\programming\ada_projects\Ada_Drivers_Library\boards\MicroBit\obj\zfp_lib_Debug\libada_drivers_library.a(nrf51-gpio-tasks_and_events.o)
 .debug_abbrev  0x0000000000000df9      0x1f4 D:\programming\ada_projects\Ada_Drivers_Library\boards\MicroBit\obj\zfp_lib_Debug\libada_drivers_library.a(nrf51-gpio.o)
 .debug_abbrev  0x0000000000000fed      0x159 D:\programming\ada_projects\Ada_Drivers_Library\boards\MicroBit\obj\zfp_lib_Debug\libada_drivers_library.a(nrf51-interrupts.o)
 .debug_abbrev  0x0000000000001146      0x147 D:\programming\ada_projects\Ada_Drivers_Library\boards\MicroBit\obj\zfp_lib_Debug\libada_drivers_library.a(nrf51-ppi.o)
 .debug_abbrev  0x000000000000128d      0x2eb D:\programming\ada_projects\Ada_Drivers_Library\boards\MicroBit\obj\zfp_lib_Debug\libada_drivers_library.a(nrf51-rtc.o)
 .debug_abbrev  0x0000000000001578       0xc2 D:\programming\ada_projects\Ada_Drivers_Library\boards\MicroBit\obj\zfp_lib_Debug\libada_drivers_library.a(nrf51-tasks.o)
 .debug_abbrev  0x000000000000163a      0x34a D:\programming\ada_projects\Ada_Drivers_Library\boards\MicroBit\obj\zfp_lib_Debug\libada_drivers_library.a(nrf51-timers.o)
 .debug_abbrev  0x0000000000001984      0x329 D:\programming\ada_projects\Ada_Drivers_Library\boards\MicroBit\obj\zfp_lib_Debug\libada_drivers_library.a(nrf51-twi.o)
 .debug_abbrev  0x0000000000001cad      0x1c1 D:\programming\ada_projects\Ada_Drivers_Library\boards\MicroBit\obj\zfp_lib_Debug\libada_drivers_library.a(nrf51_svd-gpio.o)
 .debug_abbrev  0x0000000000001e6e      0x190 D:\programming\ada_projects\Ada_Drivers_Library\boards\MicroBit\obj\zfp_lib_Debug\libada_drivers_library.a(nrf51_svd-twi.o)
 .debug_abbrev  0x0000000000001ffe       0x1b D:\programming\ada_projects\Ada_Drivers_Library\boards\MicroBit\obj\zfp_lib_Debug\libada_drivers_library.a(hal-gpio.o)
 .debug_abbrev  0x0000000000002019       0x28 D:\programming\ada_projects\Ada_Drivers_Library\boards\MicroBit\obj\zfp_lib_Debug\libada_drivers_library.a(hal-i2c.o)
 .debug_abbrev  0x0000000000002041      0x232 D:\gnat\2018-arm-elf\arm-eabi\lib\gnat\ravenscar-sfp-microbit\adalib\libgnarl.a(s-tasdeb.o)
 .debug_abbrev  0x0000000000002273       0xc6 D:\gnat\2018-arm-elf\arm-eabi\lib\gnat\ravenscar-sfp-microbit\adalib\libgnat.a(a-except.o)
 .debug_abbrev  0x0000000000002339      0x100 D:\gnat\2018-arm-elf\arm-eabi\lib\gnat\ravenscar-sfp-microbit\adalib\libgnat.a(s-assert.o)
 .debug_abbrev  0x0000000000002439       0x14 d:/gnat/2018-arm-elf/bin/../lib/gcc/arm-eabi/7.3.1/thumb/v6-m\libgcc.a(_divsi3.o)
 .debug_abbrev  0x000000000000244d       0x14 d:/gnat/2018-arm-elf/bin/../lib/gcc/arm-eabi/7.3.1/thumb/v6-m\libgcc.a(_dvmd_tls.o)
 .debug_abbrev  0x0000000000002461       0x14 d:/gnat/2018-arm-elf/bin/../lib/gcc/arm-eabi/7.3.1/thumb/v6-m\libgcc.a(_arm_cmpsf2.o)
 .debug_abbrev  0x0000000000002475       0x14 d:/gnat/2018-arm-elf/bin/../lib/gcc/arm-eabi/7.3.1/thumb/v6-m\libgcc.a(_aeabi_ldivmod.o)
 .debug_abbrev  0x0000000000002489       0x14 d:/gnat/2018-arm-elf/bin/../lib/gcc/arm-eabi/7.3.1/thumb/v6-m\libgcc.a(_aeabi_uldivmod.o)
 .debug_abbrev  0x000000000000249d      0x18e d:/gnat/2018-arm-elf/bin/../lib/gcc/arm-eabi/7.3.1/thumb/v6-m\libgcc.a(_muldi3.o)
 .debug_abbrev  0x000000000000262b      0x140 d:/gnat/2018-arm-elf/bin/../lib/gcc/arm-eabi/7.3.1/thumb/v6-m\libgcc.a(_fixunssfsi.o)
 .debug_abbrev  0x000000000000276b      0x15e d:/gnat/2018-arm-elf/bin/../lib/gcc/arm-eabi/7.3.1/thumb/v6-m\libgcc.a(_udivmoddi4.o)
 .debug_abbrev  0x00000000000028c9       0xb3 d:/gnat/2018-arm-elf/bin/../lib/gcc/arm-eabi/7.3.1/thumb/v6-m\libgcc.a(bpabi.o)
 .debug_abbrev  0x000000000000297c      0x18e d:/gnat/2018-arm-elf/bin/../lib/gcc/arm-eabi/7.3.1/thumb/v6-m\libgcc.a(addsf3.o)
 .debug_abbrev  0x0000000000002b0a      0x16d d:/gnat/2018-arm-elf/bin/../lib/gcc/arm-eabi/7.3.1/thumb/v6-m\libgcc.a(divsf3.o)
 .debug_abbrev  0x0000000000002c77      0x155 d:/gnat/2018-arm-elf/bin/../lib/gcc/arm-eabi/7.3.1/thumb/v6-m\libgcc.a(eqsf2.o)
 .debug_abbrev  0x0000000000002dcc      0x175 d:/gnat/2018-arm-elf/bin/../lib/gcc/arm-eabi/7.3.1/thumb/v6-m\libgcc.a(gesf2.o)
 .debug_abbrev  0x0000000000002f41      0x166 d:/gnat/2018-arm-elf/bin/../lib/gcc/arm-eabi/7.3.1/thumb/v6-m\libgcc.a(lesf2.o)
 .debug_abbrev  0x00000000000030a7      0x174 d:/gnat/2018-arm-elf/bin/../lib/gcc/arm-eabi/7.3.1/thumb/v6-m\libgcc.a(mulsf3.o)
 .debug_abbrev  0x000000000000321b      0x18e d:/gnat/2018-arm-elf/bin/../lib/gcc/arm-eabi/7.3.1/thumb/v6-m\libgcc.a(subsf3.o)
 .debug_abbrev  0x00000000000033a9      0x155 d:/gnat/2018-arm-elf/bin/../lib/gcc/arm-eabi/7.3.1/thumb/v6-m\libgcc.a(unordsf2.o)
 .debug_abbrev  0x00000000000034fe      0x159 d:/gnat/2018-arm-elf/bin/../lib/gcc/arm-eabi/7.3.1/thumb/v6-m\libgcc.a(fixsfsi.o)
 .debug_abbrev  0x0000000000003657      0x187 d:/gnat/2018-arm-elf/bin/../lib/gcc/arm-eabi/7.3.1/thumb/v6-m\libgcc.a(floatsisf.o)
 .debug_abbrev  0x00000000000037de      0x187 d:/gnat/2018-arm-elf/bin/../lib/gcc/arm-eabi/7.3.1/thumb/v6-m\libgcc.a(floatunsisf.o)
 .debug_abbrev  0x0000000000003965       0x14 d:/gnat/2018-arm-elf/bin/../lib/gcc/arm-eabi/7.3.1/thumb/v6-m\libgcc.a(_clzsi2.o)
 .debug_abbrev  0x0000000000003979       0x14 d:/gnat/2018-arm-elf/bin/../lib/gcc/arm-eabi/7.3.1/thumb/v6-m\libgcc.a(_clzdi2.o)
 .debug_abbrev  0x000000000000398d      0x1e1 d:/gnat/2018-arm-elf/bin/../lib/gcc/arm-eabi/7.3.1/thumb/v6-m\libgcc.a(_divdi3.o)

.debug_line     0x0000000000000000     0x42eb
 *(.debug_line)
 .debug_line    0x0000000000000000       0x6f main.o
 .debug_line    0x000000000000006f      0x101 b__main.o
 .debug_line    0x0000000000000170      0x18e D:\programming\ada_projects\Ada_Drivers_Library\boards\MicroBit\obj\zfp_lib_Debug\libada_drivers_library.a(cortex_m-nvic.o)
 .debug_line    0x00000000000002fe      0x69e D:\programming\ada_projects\Ada_Drivers_Library\boards\MicroBit\obj\zfp_lib_Debug\libada_drivers_library.a(microbit-ios.o)
 .debug_line    0x000000000000099c      0x198 D:\programming\ada_projects\Ada_Drivers_Library\boards\MicroBit\obj\zfp_lib_Debug\libada_drivers_library.a(nrf51-adc.o)
 .debug_line    0x0000000000000b34      0x284 D:\programming\ada_projects\Ada_Drivers_Library\boards\MicroBit\obj\zfp_lib_Debug\libada_drivers_library.a(nrf51-device.o)
 .debug_line    0x0000000000000db8      0x172 D:\programming\ada_projects\Ada_Drivers_Library\boards\MicroBit\obj\zfp_lib_Debug\libada_drivers_library.a(nrf51-events.o)
 .debug_line    0x0000000000000f2a      0x1ea D:\programming\ada_projects\Ada_Drivers_Library\boards\MicroBit\obj\zfp_lib_Debug\libada_drivers_library.a(nrf51-gpio-tasks_and_events.o)
 .debug_line    0x0000000000001114      0x409 D:\programming\ada_projects\Ada_Drivers_Library\boards\MicroBit\obj\zfp_lib_Debug\libada_drivers_library.a(nrf51-gpio.o)
 .debug_line    0x000000000000151d      0x12f D:\programming\ada_projects\Ada_Drivers_Library\boards\MicroBit\obj\zfp_lib_Debug\libada_drivers_library.a(nrf51-interrupts.o)
 .debug_line    0x000000000000164c      0x209 D:\programming\ada_projects\Ada_Drivers_Library\boards\MicroBit\obj\zfp_lib_Debug\libada_drivers_library.a(nrf51-ppi.o)
 .debug_line    0x0000000000001855      0x29f D:\programming\ada_projects\Ada_Drivers_Library\boards\MicroBit\obj\zfp_lib_Debug\libada_drivers_library.a(nrf51-rtc.o)
 .debug_line    0x0000000000001af4       0xc6 D:\programming\ada_projects\Ada_Drivers_Library\boards\MicroBit\obj\zfp_lib_Debug\libada_drivers_library.a(nrf51-tasks.o)
 .debug_line    0x0000000000001bba      0x4bb D:\programming\ada_projects\Ada_Drivers_Library\boards\MicroBit\obj\zfp_lib_Debug\libada_drivers_library.a(nrf51-timers.o)
 .debug_line    0x0000000000002075      0x471 D:\programming\ada_projects\Ada_Drivers_Library\boards\MicroBit\obj\zfp_lib_Debug\libada_drivers_library.a(nrf51-twi.o)
 .debug_line    0x00000000000024e6       0xc0 D:\programming\ada_projects\Ada_Drivers_Library\boards\MicroBit\obj\zfp_lib_Debug\libada_drivers_library.a(nrf51_svd-gpio.o)
 .debug_line    0x00000000000025a6      0x108 D:\programming\ada_projects\Ada_Drivers_Library\boards\MicroBit\obj\zfp_lib_Debug\libada_drivers_library.a(nrf51_svd-twi.o)
 .debug_line    0x00000000000026ae       0x1d D:\programming\ada_projects\Ada_Drivers_Library\boards\MicroBit\obj\zfp_lib_Debug\libada_drivers_library.a(hal-gpio.o)
 .debug_line    0x00000000000026cb       0x1d D:\programming\ada_projects\Ada_Drivers_Library\boards\MicroBit\obj\zfp_lib_Debug\libada_drivers_library.a(hal-i2c.o)
 .debug_line    0x00000000000026e8      0x2a7 D:\gnat\2018-arm-elf\arm-eabi\lib\gnat\ravenscar-sfp-microbit\adalib\libgnarl.a(s-tasdeb.o)
 .debug_line    0x000000000000298f       0xbc D:\gnat\2018-arm-elf\arm-eabi\lib\gnat\ravenscar-sfp-microbit\adalib\libgnat.a(a-except.o)
 .debug_line    0x0000000000002a4b      0x15e D:\gnat\2018-arm-elf\arm-eabi\lib\gnat\ravenscar-sfp-microbit\adalib\libgnat.a(s-assert.o)
 .debug_line    0x0000000000002ba9       0x74 d:/gnat/2018-arm-elf/bin/../lib/gcc/arm-eabi/7.3.1/thumb/v6-m\libgcc.a(_divsi3.o)
 .debug_line    0x0000000000002c1d       0x61 d:/gnat/2018-arm-elf/bin/../lib/gcc/arm-eabi/7.3.1/thumb/v6-m\libgcc.a(_dvmd_tls.o)
 .debug_line    0x0000000000002c7e       0x76 d:/gnat/2018-arm-elf/bin/../lib/gcc/arm-eabi/7.3.1/thumb/v6-m\libgcc.a(_arm_cmpsf2.o)
 .debug_line    0x0000000000002cf4       0x6c d:/gnat/2018-arm-elf/bin/../lib/gcc/arm-eabi/7.3.1/thumb/v6-m\libgcc.a(_aeabi_ldivmod.o)
 .debug_line    0x0000000000002d60       0x6c d:/gnat/2018-arm-elf/bin/../lib/gcc/arm-eabi/7.3.1/thumb/v6-m\libgcc.a(_aeabi_uldivmod.o)
 .debug_line    0x0000000000002dcc      0x12d d:/gnat/2018-arm-elf/bin/../lib/gcc/arm-eabi/7.3.1/thumb/v6-m\libgcc.a(_muldi3.o)
 .debug_line    0x0000000000002ef9      0x110 d:/gnat/2018-arm-elf/bin/../lib/gcc/arm-eabi/7.3.1/thumb/v6-m\libgcc.a(_fixunssfsi.o)
 .debug_line    0x0000000000003009      0x146 d:/gnat/2018-arm-elf/bin/../lib/gcc/arm-eabi/7.3.1/thumb/v6-m\libgcc.a(_udivmoddi4.o)
 .debug_line    0x000000000000314f       0x61 d:/gnat/2018-arm-elf/bin/../lib/gcc/arm-eabi/7.3.1/thumb/v6-m\libgcc.a(bpabi.o)
 .debug_line    0x00000000000031b0      0x2c3 d:/gnat/2018-arm-elf/bin/../lib/gcc/arm-eabi/7.3.1/thumb/v6-m\libgcc.a(addsf3.o)
 .debug_line    0x0000000000003473      0x184 d:/gnat/2018-arm-elf/bin/../lib/gcc/arm-eabi/7.3.1/thumb/v6-m\libgcc.a(divsf3.o)
 .debug_line    0x00000000000035f7       0xee d:/gnat/2018-arm-elf/bin/../lib/gcc/arm-eabi/7.3.1/thumb/v6-m\libgcc.a(eqsf2.o)
 .debug_line    0x00000000000036e5      0x112 d:/gnat/2018-arm-elf/bin/../lib/gcc/arm-eabi/7.3.1/thumb/v6-m\libgcc.a(gesf2.o)
 .debug_line    0x00000000000037f7      0x112 d:/gnat/2018-arm-elf/bin/../lib/gcc/arm-eabi/7.3.1/thumb/v6-m\libgcc.a(lesf2.o)
 .debug_line    0x0000000000003909      0x175 d:/gnat/2018-arm-elf/bin/../lib/gcc/arm-eabi/7.3.1/thumb/v6-m\libgcc.a(mulsf3.o)
 .debug_line    0x0000000000003a7e      0x2d6 d:/gnat/2018-arm-elf/bin/../lib/gcc/arm-eabi/7.3.1/thumb/v6-m\libgcc.a(subsf3.o)
 .debug_line    0x0000000000003d54       0xce d:/gnat/2018-arm-elf/bin/../lib/gcc/arm-eabi/7.3.1/thumb/v6-m\libgcc.a(unordsf2.o)
 .debug_line    0x0000000000003e22       0xcb d:/gnat/2018-arm-elf/bin/../lib/gcc/arm-eabi/7.3.1/thumb/v6-m\libgcc.a(fixsfsi.o)
 .debug_line    0x0000000000003eed       0xe5 d:/gnat/2018-arm-elf/bin/../lib/gcc/arm-eabi/7.3.1/thumb/v6-m\libgcc.a(floatsisf.o)
 .debug_line    0x0000000000003fd2       0xe7 d:/gnat/2018-arm-elf/bin/../lib/gcc/arm-eabi/7.3.1/thumb/v6-m\libgcc.a(floatunsisf.o)
 .debug_line    0x00000000000040b9       0x75 d:/gnat/2018-arm-elf/bin/../lib/gcc/arm-eabi/7.3.1/thumb/v6-m\libgcc.a(_clzsi2.o)
 .debug_line    0x000000000000412e       0x6b d:/gnat/2018-arm-elf/bin/../lib/gcc/arm-eabi/7.3.1/thumb/v6-m\libgcc.a(_clzdi2.o)
 .debug_line    0x0000000000004199      0x152 d:/gnat/2018-arm-elf/bin/../lib/gcc/arm-eabi/7.3.1/thumb/v6-m\libgcc.a(_divdi3.o)

.debug_frame    0x0000000000000000     0x1adc
 *(.debug_frame)
 .debug_frame   0x0000000000000000       0x34 main.o
 .debug_frame   0x0000000000000034       0x8c b__main.o
 .debug_frame   0x00000000000000c0      0x110 D:\programming\ada_projects\Ada_Drivers_Library\boards\MicroBit\obj\zfp_lib_Debug\libada_drivers_library.a(cortex_m-nvic.o)
 .debug_frame   0x00000000000001d0      0x270 D:\programming\ada_projects\Ada_Drivers_Library\boards\MicroBit\obj\zfp_lib_Debug\libada_drivers_library.a(microbit-ios.o)
 .debug_frame   0x0000000000000440       0xcc D:\programming\ada_projects\Ada_Drivers_Library\boards\MicroBit\obj\zfp_lib_Debug\libada_drivers_library.a(nrf51-adc.o)
 .debug_frame   0x000000000000050c       0x2c D:\programming\ada_projects\Ada_Drivers_Library\boards\MicroBit\obj\zfp_lib_Debug\libada_drivers_library.a(nrf51-device.o)
 .debug_frame   0x0000000000000538       0xd0 D:\programming\ada_projects\Ada_Drivers_Library\boards\MicroBit\obj\zfp_lib_Debug\libada_drivers_library.a(nrf51-events.o)
 .debug_frame   0x0000000000000608       0xb0 D:\programming\ada_projects\Ada_Drivers_Library\boards\MicroBit\obj\zfp_lib_Debug\libada_drivers_library.a(nrf51-gpio-tasks_and_events.o)
 .debug_frame   0x00000000000006b8      0x218 D:\programming\ada_projects\Ada_Drivers_Library\boards\MicroBit\obj\zfp_lib_Debug\libada_drivers_library.a(nrf51-gpio.o)
 .debug_frame   0x00000000000008d0       0xd0 D:\programming\ada_projects\Ada_Drivers_Library\boards\MicroBit\obj\zfp_lib_Debug\libada_drivers_library.a(nrf51-interrupts.o)
 .debug_frame   0x00000000000009a0       0xf4 D:\programming\ada_projects\Ada_Drivers_Library\boards\MicroBit\obj\zfp_lib_Debug\libada_drivers_library.a(nrf51-ppi.o)
 .debug_frame   0x0000000000000a94      0x150 D:\programming\ada_projects\Ada_Drivers_Library\boards\MicroBit\obj\zfp_lib_Debug\libada_drivers_library.a(nrf51-rtc.o)
 .debug_frame   0x0000000000000be4       0x70 D:\programming\ada_projects\Ada_Drivers_Library\boards\MicroBit\obj\zfp_lib_Debug\libada_drivers_library.a(nrf51-tasks.o)
 .debug_frame   0x0000000000000c54      0x334 D:\programming\ada_projects\Ada_Drivers_Library\boards\MicroBit\obj\zfp_lib_Debug\libada_drivers_library.a(nrf51-timers.o)
 .debug_frame   0x0000000000000f88      0x200 D:\programming\ada_projects\Ada_Drivers_Library\boards\MicroBit\obj\zfp_lib_Debug\libada_drivers_library.a(nrf51-twi.o)
 .debug_frame   0x0000000000001188      0x458 D:\programming\ada_projects\Ada_Drivers_Library\boards\MicroBit\obj\zfp_lib_Debug\libada_drivers_library.a(nrf51_svd-gpio.o)
 .debug_frame   0x00000000000015e0      0x170 D:\programming\ada_projects\Ada_Drivers_Library\boards\MicroBit\obj\zfp_lib_Debug\libada_drivers_library.a(nrf51_svd-twi.o)
 .debug_frame   0x0000000000001750       0x30 D:\gnat\2018-arm-elf\arm-eabi\lib\gnat\ravenscar-sfp-microbit\adalib\libgnarl.a(s-tasdeb.o)
 .debug_frame   0x0000000000001780       0x34 D:\gnat\2018-arm-elf\arm-eabi\lib\gnat\ravenscar-sfp-microbit\adalib\libgnat.a(s-assert.o)
 .debug_frame   0x00000000000017b4       0x20 d:/gnat/2018-arm-elf/bin/../lib/gcc/arm-eabi/7.3.1/thumb/v6-m\libgcc.a(_divsi3.o)
 .debug_frame   0x00000000000017d4       0x34 d:/gnat/2018-arm-elf/bin/../lib/gcc/arm-eabi/7.3.1/thumb/v6-m\libgcc.a(_muldi3.o)
 .debug_frame   0x0000000000001808       0x28 d:/gnat/2018-arm-elf/bin/../lib/gcc/arm-eabi/7.3.1/thumb/v6-m\libgcc.a(_fixunssfsi.o)
 .debug_frame   0x0000000000001830       0x3c d:/gnat/2018-arm-elf/bin/../lib/gcc/arm-eabi/7.3.1/thumb/v6-m\libgcc.a(_udivmoddi4.o)
 .debug_frame   0x000000000000186c       0x30 d:/gnat/2018-arm-elf/bin/../lib/gcc/arm-eabi/7.3.1/thumb/v6-m\libgcc.a(bpabi.o)
 .debug_frame   0x000000000000189c       0x38 d:/gnat/2018-arm-elf/bin/../lib/gcc/arm-eabi/7.3.1/thumb/v6-m\libgcc.a(addsf3.o)
 .debug_frame   0x00000000000018d4       0x3c d:/gnat/2018-arm-elf/bin/../lib/gcc/arm-eabi/7.3.1/thumb/v6-m\libgcc.a(divsf3.o)
 .debug_frame   0x0000000000001910       0x2c d:/gnat/2018-arm-elf/bin/../lib/gcc/arm-eabi/7.3.1/thumb/v6-m\libgcc.a(eqsf2.o)
 .debug_frame   0x000000000000193c       0x2c d:/gnat/2018-arm-elf/bin/../lib/gcc/arm-eabi/7.3.1/thumb/v6-m\libgcc.a(gesf2.o)
 .debug_frame   0x0000000000001968       0x2c d:/gnat/2018-arm-elf/bin/../lib/gcc/arm-eabi/7.3.1/thumb/v6-m\libgcc.a(lesf2.o)
 .debug_frame   0x0000000000001994       0x3c d:/gnat/2018-arm-elf/bin/../lib/gcc/arm-eabi/7.3.1/thumb/v6-m\libgcc.a(mulsf3.o)
 .debug_frame   0x00000000000019d0       0x38 d:/gnat/2018-arm-elf/bin/../lib/gcc/arm-eabi/7.3.1/thumb/v6-m\libgcc.a(subsf3.o)
 .debug_frame   0x0000000000001a08       0x20 d:/gnat/2018-arm-elf/bin/../lib/gcc/arm-eabi/7.3.1/thumb/v6-m\libgcc.a(unordsf2.o)
 .debug_frame   0x0000000000001a28       0x20 d:/gnat/2018-arm-elf/bin/../lib/gcc/arm-eabi/7.3.1/thumb/v6-m\libgcc.a(fixsfsi.o)
 .debug_frame   0x0000000000001a48       0x2c d:/gnat/2018-arm-elf/bin/../lib/gcc/arm-eabi/7.3.1/thumb/v6-m\libgcc.a(floatsisf.o)
 .debug_frame   0x0000000000001a74       0x2c d:/gnat/2018-arm-elf/bin/../lib/gcc/arm-eabi/7.3.1/thumb/v6-m\libgcc.a(floatunsisf.o)
 .debug_frame   0x0000000000001aa0       0x3c d:/gnat/2018-arm-elf/bin/../lib/gcc/arm-eabi/7.3.1/thumb/v6-m\libgcc.a(_divdi3.o)

.debug_str      0x0000000000000000     0xa9f6
 *(.debug_str)
 .debug_str     0x0000000000000000      0x28f main.o
                                        0x294 (size before relaxing)
 .debug_str     0x000000000000028f      0x840 b__main.o
                                        0x8ad (size before relaxing)
 .debug_str     0x0000000000000acf      0x498 D:\programming\ada_projects\Ada_Drivers_Library\boards\MicroBit\obj\zfp_lib_Debug\libada_drivers_library.a(cortex_m-nvic.o)
                                        0x4e7 (size before relaxing)
 .debug_str     0x0000000000000f67     0x1af7 D:\programming\ada_projects\Ada_Drivers_Library\boards\MicroBit\obj\zfp_lib_Debug\libada_drivers_library.a(microbit-ios.o)
                                       0x1de6 (size before relaxing)
 .debug_str     0x0000000000002a5e      0x2e3 D:\programming\ada_projects\Ada_Drivers_Library\boards\MicroBit\obj\zfp_lib_Debug\libada_drivers_library.a(nrf51-adc.o)
                                        0x587 (size before relaxing)
 .debug_str     0x0000000000002d41     0x1b7b D:\programming\ada_projects\Ada_Drivers_Library\boards\MicroBit\obj\zfp_lib_Debug\libada_drivers_library.a(nrf51-device.o)
                                       0x2ab9 (size before relaxing)
 .debug_str     0x00000000000048bc      0xa9f D:\programming\ada_projects\Ada_Drivers_Library\boards\MicroBit\obj\zfp_lib_Debug\libada_drivers_library.a(nrf51-events.o)
                                        0xe8d (size before relaxing)
 .debug_str     0x000000000000535b      0x535 D:\programming\ada_projects\Ada_Drivers_Library\boards\MicroBit\obj\zfp_lib_Debug\libada_drivers_library.a(nrf51-gpio-tasks_and_events.o)
                                        0x88c (size before relaxing)
 .debug_str     0x0000000000005890      0x51d D:\programming\ada_projects\Ada_Drivers_Library\boards\MicroBit\obj\zfp_lib_Debug\libada_drivers_library.a(nrf51-gpio.o)
                                        0xb92 (size before relaxing)
 .debug_str     0x0000000000005dad      0x1c5 D:\programming\ada_projects\Ada_Drivers_Library\boards\MicroBit\obj\zfp_lib_Debug\libada_drivers_library.a(nrf51-interrupts.o)
                                        0x8b8 (size before relaxing)
 .debug_str     0x0000000000005f72      0x2d5 D:\programming\ada_projects\Ada_Drivers_Library\boards\MicroBit\obj\zfp_lib_Debug\libada_drivers_library.a(nrf51-ppi.o)
                                        0x5bc (size before relaxing)
 .debug_str     0x0000000000006247      0x215 D:\programming\ada_projects\Ada_Drivers_Library\boards\MicroBit\obj\zfp_lib_Debug\libada_drivers_library.a(nrf51-rtc.o)
                                       0x114d (size before relaxing)
 .debug_str     0x000000000000645c      0xaae D:\programming\ada_projects\Ada_Drivers_Library\boards\MicroBit\obj\zfp_lib_Debug\libada_drivers_library.a(nrf51-tasks.o)
                                        0xf73 (size before relaxing)
 .debug_str     0x0000000000006f0a      0x368 D:\programming\ada_projects\Ada_Drivers_Library\boards\MicroBit\obj\zfp_lib_Debug\libada_drivers_library.a(nrf51-timers.o)
                                       0x11e8 (size before relaxing)
 .debug_str     0x0000000000007272      0x2ec D:\programming\ada_projects\Ada_Drivers_Library\boards\MicroBit\obj\zfp_lib_Debug\libada_drivers_library.a(nrf51-twi.o)
                                       0x14b2 (size before relaxing)
 .debug_str     0x000000000000755e      0x690 D:\programming\ada_projects\Ada_Drivers_Library\boards\MicroBit\obj\zfp_lib_Debug\libada_drivers_library.a(nrf51_svd-gpio.o)
                                        0xbf7 (size before relaxing)
 .debug_str     0x0000000000007bee       0x94 D:\programming\ada_projects\Ada_Drivers_Library\boards\MicroBit\obj\zfp_lib_Debug\libada_drivers_library.a(nrf51_svd-twi.o)
                                        0xee1 (size before relaxing)
 .debug_str     0x0000000000007c82       0x45 D:\programming\ada_projects\Ada_Drivers_Library\boards\MicroBit\obj\zfp_lib_Debug\libada_drivers_library.a(hal-gpio.o)
                                        0x262 (size before relaxing)
 .debug_str     0x0000000000007cc7       0x44 D:\programming\ada_projects\Ada_Drivers_Library\boards\MicroBit\obj\zfp_lib_Debug\libada_drivers_library.a(hal-i2c.o)
                                        0x2bd (size before relaxing)
 .debug_str     0x0000000000007d0b      0xc19 D:\gnat\2018-arm-elf\arm-eabi\lib\gnat\ravenscar-sfp-microbit\adalib\libgnarl.a(s-tasdeb.o)
                                        0xf31 (size before relaxing)
 .debug_str     0x0000000000008924      0x3d1 D:\gnat\2018-arm-elf\arm-eabi\lib\gnat\ravenscar-sfp-microbit\adalib\libgnat.a(a-except.o)
                                        0x482 (size before relaxing)
 .debug_str     0x0000000000008cf5      0x3fd D:\gnat\2018-arm-elf\arm-eabi\lib\gnat\ravenscar-sfp-microbit\adalib\libgnat.a(s-assert.o)
                                        0x4f8 (size before relaxing)
 .debug_str     0x00000000000090f2       0x93 d:/gnat/2018-arm-elf/bin/../lib/gcc/arm-eabi/7.3.1/thumb/v6-m\libgcc.a(_divsi3.o)
 .debug_str     0x0000000000009185       0x93 d:/gnat/2018-arm-elf/bin/../lib/gcc/arm-eabi/7.3.1/thumb/v6-m\libgcc.a(_dvmd_tls.o)
 .debug_str     0x0000000000009185       0x31 d:/gnat/2018-arm-elf/bin/../lib/gcc/arm-eabi/7.3.1/thumb/v6-m\libgcc.a(_arm_cmpsf2.o)
                                         0x93 (size before relaxing)
 .debug_str     0x00000000000091b6       0x93 d:/gnat/2018-arm-elf/bin/../lib/gcc/arm-eabi/7.3.1/thumb/v6-m\libgcc.a(_aeabi_ldivmod.o)
 .debug_str     0x00000000000091b6       0x93 d:/gnat/2018-arm-elf/bin/../lib/gcc/arm-eabi/7.3.1/thumb/v6-m\libgcc.a(_aeabi_uldivmod.o)
 .debug_str     0x00000000000091b6     0x1321 d:/gnat/2018-arm-elf/bin/../lib/gcc/arm-eabi/7.3.1/thumb/v6-m\libgcc.a(_muldi3.o)
                                       0x13b7 (size before relaxing)
 .debug_str     0x000000000000a4d7       0x3d d:/gnat/2018-arm-elf/bin/../lib/gcc/arm-eabi/7.3.1/thumb/v6-m\libgcc.a(_fixunssfsi.o)
                                       0x13a6 (size before relaxing)
 .debug_str     0x000000000000a514       0xd9 d:/gnat/2018-arm-elf/bin/../lib/gcc/arm-eabi/7.3.1/thumb/v6-m\libgcc.a(_udivmoddi4.o)
                                       0x138d (size before relaxing)
 .debug_str     0x000000000000a5ed       0x6b d:/gnat/2018-arm-elf/bin/../lib/gcc/arm-eabi/7.3.1/thumb/v6-m\libgcc.a(bpabi.o)
                                        0x191 (size before relaxing)
 .debug_str     0x000000000000a658      0x131 d:/gnat/2018-arm-elf/bin/../lib/gcc/arm-eabi/7.3.1/thumb/v6-m\libgcc.a(addsf3.o)
                                        0x2d0 (size before relaxing)
 .debug_str     0x000000000000a789      0x10a d:/gnat/2018-arm-elf/bin/../lib/gcc/arm-eabi/7.3.1/thumb/v6-m\libgcc.a(divsf3.o)
                                        0x2f5 (size before relaxing)
 .debug_str     0x000000000000a893       0x2f d:/gnat/2018-arm-elf/bin/../lib/gcc/arm-eabi/7.3.1/thumb/v6-m\libgcc.a(eqsf2.o)
                                        0x1fe (size before relaxing)
 .debug_str     0x000000000000a8c2       0x34 d:/gnat/2018-arm-elf/bin/../lib/gcc/arm-eabi/7.3.1/thumb/v6-m\libgcc.a(gesf2.o)
                                        0x222 (size before relaxing)
 .debug_str     0x000000000000a8f6       0x10 d:/gnat/2018-arm-elf/bin/../lib/gcc/arm-eabi/7.3.1/thumb/v6-m\libgcc.a(lesf2.o)
                                        0x222 (size before relaxing)
 .debug_str     0x000000000000a906       0x50 d:/gnat/2018-arm-elf/bin/../lib/gcc/arm-eabi/7.3.1/thumb/v6-m\libgcc.a(mulsf3.o)
                                        0x2f5 (size before relaxing)
 .debug_str     0x000000000000a956        0x9 d:/gnat/2018-arm-elf/bin/../lib/gcc/arm-eabi/7.3.1/thumb/v6-m\libgcc.a(subsf3.o)
                                        0x2d0 (size before relaxing)
 .debug_str     0x000000000000a95f       0x1a d:/gnat/2018-arm-elf/bin/../lib/gcc/arm-eabi/7.3.1/thumb/v6-m\libgcc.a(unordsf2.o)
                                        0x208 (size before relaxing)
 .debug_str     0x000000000000a979       0x1d d:/gnat/2018-arm-elf/bin/../lib/gcc/arm-eabi/7.3.1/thumb/v6-m\libgcc.a(fixsfsi.o)
                                        0x208 (size before relaxing)
 .debug_str     0x000000000000a996       0x45 d:/gnat/2018-arm-elf/bin/../lib/gcc/arm-eabi/7.3.1/thumb/v6-m\libgcc.a(floatsisf.o)
                                        0x297 (size before relaxing)
 .debug_str     0x000000000000a9db       0x1b d:/gnat/2018-arm-elf/bin/../lib/gcc/arm-eabi/7.3.1/thumb/v6-m\libgcc.a(floatunsisf.o)
                                        0x293 (size before relaxing)
 .debug_str     0x000000000000a9f6       0x93 d:/gnat/2018-arm-elf/bin/../lib/gcc/arm-eabi/7.3.1/thumb/v6-m\libgcc.a(_clzsi2.o)
 .debug_str     0x000000000000a9f6       0x93 d:/gnat/2018-arm-elf/bin/../lib/gcc/arm-eabi/7.3.1/thumb/v6-m\libgcc.a(_clzdi2.o)
 .debug_str     0x000000000000a9f6     0x13ba d:/gnat/2018-arm-elf/bin/../lib/gcc/arm-eabi/7.3.1/thumb/v6-m\libgcc.a(_divdi3.o)

.debug_loc      0x0000000000000000     0x3f47
 *(.debug_loc)
 .debug_loc     0x0000000000000000       0x48 D:\gnat\2018-arm-elf\arm-eabi\lib\gnat\ravenscar-sfp-microbit\adalib\libgnat.a(s-assert.o)
 .debug_loc     0x0000000000000048      0x19b d:/gnat/2018-arm-elf/bin/../lib/gcc/arm-eabi/7.3.1/thumb/v6-m\libgcc.a(_muldi3.o)
 .debug_loc     0x00000000000001e3       0x39 d:/gnat/2018-arm-elf/bin/../lib/gcc/arm-eabi/7.3.1/thumb/v6-m\libgcc.a(_fixunssfsi.o)
 .debug_loc     0x000000000000021c      0x398 d:/gnat/2018-arm-elf/bin/../lib/gcc/arm-eabi/7.3.1/thumb/v6-m\libgcc.a(_udivmoddi4.o)
 .debug_loc     0x00000000000005b4       0x70 d:/gnat/2018-arm-elf/bin/../lib/gcc/arm-eabi/7.3.1/thumb/v6-m\libgcc.a(bpabi.o)
 .debug_loc     0x0000000000000624      0xd8f d:/gnat/2018-arm-elf/bin/../lib/gcc/arm-eabi/7.3.1/thumb/v6-m\libgcc.a(addsf3.o)
 .debug_loc     0x00000000000013b3      0x794 d:/gnat/2018-arm-elf/bin/../lib/gcc/arm-eabi/7.3.1/thumb/v6-m\libgcc.a(divsf3.o)
 .debug_loc     0x0000000000001b47       0xc7 d:/gnat/2018-arm-elf/bin/../lib/gcc/arm-eabi/7.3.1/thumb/v6-m\libgcc.a(eqsf2.o)
 .debug_loc     0x0000000000001c0e      0x172 d:/gnat/2018-arm-elf/bin/../lib/gcc/arm-eabi/7.3.1/thumb/v6-m\libgcc.a(gesf2.o)
 .debug_loc     0x0000000000001d80      0x192 d:/gnat/2018-arm-elf/bin/../lib/gcc/arm-eabi/7.3.1/thumb/v6-m\libgcc.a(lesf2.o)
 .debug_loc     0x0000000000001f12      0x916 d:/gnat/2018-arm-elf/bin/../lib/gcc/arm-eabi/7.3.1/thumb/v6-m\libgcc.a(mulsf3.o)
 .debug_loc     0x0000000000002828      0xd96 d:/gnat/2018-arm-elf/bin/../lib/gcc/arm-eabi/7.3.1/thumb/v6-m\libgcc.a(subsf3.o)
 .debug_loc     0x00000000000035be       0x64 d:/gnat/2018-arm-elf/bin/../lib/gcc/arm-eabi/7.3.1/thumb/v6-m\libgcc.a(unordsf2.o)
 .debug_loc     0x0000000000003622       0xb3 d:/gnat/2018-arm-elf/bin/../lib/gcc/arm-eabi/7.3.1/thumb/v6-m\libgcc.a(fixsfsi.o)
 .debug_loc     0x00000000000036d5      0x209 d:/gnat/2018-arm-elf/bin/../lib/gcc/arm-eabi/7.3.1/thumb/v6-m\libgcc.a(floatsisf.o)
 .debug_loc     0x00000000000038de      0x20a d:/gnat/2018-arm-elf/bin/../lib/gcc/arm-eabi/7.3.1/thumb/v6-m\libgcc.a(floatunsisf.o)
 .debug_loc     0x0000000000003ae8      0x45f d:/gnat/2018-arm-elf/bin/../lib/gcc/arm-eabi/7.3.1/thumb/v6-m\libgcc.a(_divdi3.o)

.debug_macinfo
 *(.debug_macinfo)

.debug_pubtypes
 *(.debug_pubtypes)

.debug_ranges   0x0000000000000000      0x9b0
 *(.debug_ranges)
 .debug_ranges  0x0000000000000000       0x10 main.o
 .debug_ranges  0x0000000000000010       0x20 b__main.o
 .debug_ranges  0x0000000000000030       0x40 D:\programming\ada_projects\Ada_Drivers_Library\boards\MicroBit\obj\zfp_lib_Debug\libada_drivers_library.a(cortex_m-nvic.o)
 .debug_ranges  0x0000000000000070       0x88 D:\programming\ada_projects\Ada_Drivers_Library\boards\MicroBit\obj\zfp_lib_Debug\libada_drivers_library.a(microbit-ios.o)
 .debug_ranges  0x00000000000000f8       0x38 D:\programming\ada_projects\Ada_Drivers_Library\boards\MicroBit\obj\zfp_lib_Debug\libada_drivers_library.a(nrf51-adc.o)
 .debug_ranges  0x0000000000000130       0x10 D:\programming\ada_projects\Ada_Drivers_Library\boards\MicroBit\obj\zfp_lib_Debug\libada_drivers_library.a(nrf51-device.o)
 .debug_ranges  0x0000000000000140       0x38 D:\programming\ada_projects\Ada_Drivers_Library\boards\MicroBit\obj\zfp_lib_Debug\libada_drivers_library.a(nrf51-events.o)
 .debug_ranges  0x0000000000000178       0x30 D:\programming\ada_projects\Ada_Drivers_Library\boards\MicroBit\obj\zfp_lib_Debug\libada_drivers_library.a(nrf51-gpio-tasks_and_events.o)
 .debug_ranges  0x00000000000001a8       0x60 D:\programming\ada_projects\Ada_Drivers_Library\boards\MicroBit\obj\zfp_lib_Debug\libada_drivers_library.a(nrf51-gpio.o)
 .debug_ranges  0x0000000000000208       0x38 D:\programming\ada_projects\Ada_Drivers_Library\boards\MicroBit\obj\zfp_lib_Debug\libada_drivers_library.a(nrf51-interrupts.o)
 .debug_ranges  0x0000000000000240       0x40 D:\programming\ada_projects\Ada_Drivers_Library\boards\MicroBit\obj\zfp_lib_Debug\libada_drivers_library.a(nrf51-ppi.o)
 .debug_ranges  0x0000000000000280       0x50 D:\programming\ada_projects\Ada_Drivers_Library\boards\MicroBit\obj\zfp_lib_Debug\libada_drivers_library.a(nrf51-rtc.o)
 .debug_ranges  0x00000000000002d0       0x20 D:\programming\ada_projects\Ada_Drivers_Library\boards\MicroBit\obj\zfp_lib_Debug\libada_drivers_library.a(nrf51-tasks.o)
 .debug_ranges  0x00000000000002f0       0xb0 D:\programming\ada_projects\Ada_Drivers_Library\boards\MicroBit\obj\zfp_lib_Debug\libada_drivers_library.a(nrf51-timers.o)
 .debug_ranges  0x00000000000003a0       0x60 D:\programming\ada_projects\Ada_Drivers_Library\boards\MicroBit\obj\zfp_lib_Debug\libada_drivers_library.a(nrf51-twi.o)
 .debug_ranges  0x0000000000000400       0x10 D:\gnat\2018-arm-elf\arm-eabi\lib\gnat\ravenscar-sfp-microbit\adalib\libgnarl.a(s-tasdeb.o)
 .debug_ranges  0x0000000000000410       0x10 D:\gnat\2018-arm-elf\arm-eabi\lib\gnat\ravenscar-sfp-microbit\adalib\libgnat.a(s-assert.o)
 .debug_ranges  0x0000000000000420       0x28 d:/gnat/2018-arm-elf/bin/../lib/gcc/arm-eabi/7.3.1/thumb/v6-m\libgcc.a(_muldi3.o)
 .debug_ranges  0x0000000000000448      0x170 d:/gnat/2018-arm-elf/bin/../lib/gcc/arm-eabi/7.3.1/thumb/v6-m\libgcc.a(addsf3.o)
 .debug_ranges  0x00000000000005b8       0x80 d:/gnat/2018-arm-elf/bin/../lib/gcc/arm-eabi/7.3.1/thumb/v6-m\libgcc.a(divsf3.o)
 .debug_ranges  0x0000000000000638       0x30 d:/gnat/2018-arm-elf/bin/../lib/gcc/arm-eabi/7.3.1/thumb/v6-m\libgcc.a(eqsf2.o)
 .debug_ranges  0x0000000000000668       0x60 d:/gnat/2018-arm-elf/bin/../lib/gcc/arm-eabi/7.3.1/thumb/v6-m\libgcc.a(gesf2.o)
 .debug_ranges  0x00000000000006c8       0x70 d:/gnat/2018-arm-elf/bin/../lib/gcc/arm-eabi/7.3.1/thumb/v6-m\libgcc.a(lesf2.o)
 .debug_ranges  0x0000000000000738       0x68 d:/gnat/2018-arm-elf/bin/../lib/gcc/arm-eabi/7.3.1/thumb/v6-m\libgcc.a(mulsf3.o)
 .debug_ranges  0x00000000000007a0      0x180 d:/gnat/2018-arm-elf/bin/../lib/gcc/arm-eabi/7.3.1/thumb/v6-m\libgcc.a(subsf3.o)
 .debug_ranges  0x0000000000000920       0x30 d:/gnat/2018-arm-elf/bin/../lib/gcc/arm-eabi/7.3.1/thumb/v6-m\libgcc.a(unordsf2.o)
 .debug_ranges  0x0000000000000950       0x18 d:/gnat/2018-arm-elf/bin/../lib/gcc/arm-eabi/7.3.1/thumb/v6-m\libgcc.a(fixsfsi.o)
 .debug_ranges  0x0000000000000968       0x18 d:/gnat/2018-arm-elf/bin/../lib/gcc/arm-eabi/7.3.1/thumb/v6-m\libgcc.a(floatsisf.o)
 .debug_ranges  0x0000000000000980       0x18 d:/gnat/2018-arm-elf/bin/../lib/gcc/arm-eabi/7.3.1/thumb/v6-m\libgcc.a(floatunsisf.o)
 .debug_ranges  0x0000000000000998       0x18 d:/gnat/2018-arm-elf/bin/../lib/gcc/arm-eabi/7.3.1/thumb/v6-m\libgcc.a(_divdi3.o)

.comment        0x0000000000000000       0x3d
 .comment       0x0000000000000000       0x3d main.o
                                         0x3e (size before relaxing)
 .comment       0x000000000000003d       0x3e b__main.o
 .comment       0x000000000000003d       0x3e D:\programming\ada_projects\Ada_Drivers_Library\boards\MicroBit\obj\zfp_lib_Debug\libada_drivers_library.a(cortex_m-nvic.o)
 .comment       0x000000000000003d       0x3e D:\programming\ada_projects\Ada_Drivers_Library\boards\MicroBit\obj\zfp_lib_Debug\libada_drivers_library.a(microbit-ios.o)
 .comment       0x000000000000003d       0x3e D:\programming\ada_projects\Ada_Drivers_Library\boards\MicroBit\obj\zfp_lib_Debug\libada_drivers_library.a(nrf51-adc.o)
 .comment       0x000000000000003d       0x3e D:\programming\ada_projects\Ada_Drivers_Library\boards\MicroBit\obj\zfp_lib_Debug\libada_drivers_library.a(nrf51-device.o)
 .comment       0x000000000000003d       0x3e D:\programming\ada_projects\Ada_Drivers_Library\boards\MicroBit\obj\zfp_lib_Debug\libada_drivers_library.a(nrf51-events.o)
 .comment       0x000000000000003d       0x3e D:\programming\ada_projects\Ada_Drivers_Library\boards\MicroBit\obj\zfp_lib_Debug\libada_drivers_library.a(nrf51-gpio-tasks_and_events.o)
 .comment       0x000000000000003d       0x3e D:\programming\ada_projects\Ada_Drivers_Library\boards\MicroBit\obj\zfp_lib_Debug\libada_drivers_library.a(nrf51-gpio.o)
 .comment       0x000000000000003d       0x3e D:\programming\ada_projects\Ada_Drivers_Library\boards\MicroBit\obj\zfp_lib_Debug\libada_drivers_library.a(nrf51-interrupts.o)
 .comment       0x000000000000003d       0x3e D:\programming\ada_projects\Ada_Drivers_Library\boards\MicroBit\obj\zfp_lib_Debug\libada_drivers_library.a(nrf51-ppi.o)
 .comment       0x000000000000003d       0x3e D:\programming\ada_projects\Ada_Drivers_Library\boards\MicroBit\obj\zfp_lib_Debug\libada_drivers_library.a(nrf51-rtc.o)
 .comment       0x000000000000003d       0x3e D:\programming\ada_projects\Ada_Drivers_Library\boards\MicroBit\obj\zfp_lib_Debug\libada_drivers_library.a(nrf51-tasks.o)
 .comment       0x000000000000003d       0x3e D:\programming\ada_projects\Ada_Drivers_Library\boards\MicroBit\obj\zfp_lib_Debug\libada_drivers_library.a(nrf51-timers.o)
 .comment       0x000000000000003d       0x3e D:\programming\ada_projects\Ada_Drivers_Library\boards\MicroBit\obj\zfp_lib_Debug\libada_drivers_library.a(nrf51-twi.o)
 .comment       0x000000000000003d       0x3e D:\programming\ada_projects\Ada_Drivers_Library\boards\MicroBit\obj\zfp_lib_Debug\libada_drivers_library.a(nrf51_svd-gpio.o)
 .comment       0x000000000000003d       0x3e D:\programming\ada_projects\Ada_Drivers_Library\boards\MicroBit\obj\zfp_lib_Debug\libada_drivers_library.a(nrf51_svd-twi.o)
 .comment       0x000000000000003d       0x3e D:\programming\ada_projects\Ada_Drivers_Library\boards\MicroBit\obj\zfp_lib_Debug\libada_drivers_library.a(hal-gpio.o)
 .comment       0x000000000000003d       0x3e D:\programming\ada_projects\Ada_Drivers_Library\boards\MicroBit\obj\zfp_lib_Debug\libada_drivers_library.a(hal-i2c.o)
 .comment       0x000000000000003d       0x3e D:\gnat\2018-arm-elf\arm-eabi\lib\gnat\ravenscar-sfp-microbit\adalib\libgnarl.a(a-reatim.o)
 .comment       0x000000000000003d       0x3e D:\gnat\2018-arm-elf\arm-eabi\lib\gnat\ravenscar-sfp-microbit\adalib\libgnarl.a(a-retide.o)
 .comment       0x000000000000003d       0x3e D:\gnat\2018-arm-elf\arm-eabi\lib\gnat\ravenscar-sfp-microbit\adalib\libgnarl.a(s-bbbosu.o)
 .comment       0x000000000000003d       0x3e D:\gnat\2018-arm-elf\arm-eabi\lib\gnat\ravenscar-sfp-microbit\adalib\libgnarl.a(s-bbcppr.o)
 .comment       0x000000000000003d       0x3e D:\gnat\2018-arm-elf\arm-eabi\lib\gnat\ravenscar-sfp-microbit\adalib\libgnarl.a(s-bbinte.o)
 .comment       0x000000000000003d       0x3e D:\gnat\2018-arm-elf\arm-eabi\lib\gnat\ravenscar-sfp-microbit\adalib\libgnarl.a(s-bbthqu.o)
 .comment       0x000000000000003d       0x3e D:\gnat\2018-arm-elf\arm-eabi\lib\gnat\ravenscar-sfp-microbit\adalib\libgnarl.a(s-bbtime.o)
 .comment       0x000000000000003d       0x3e D:\gnat\2018-arm-elf\arm-eabi\lib\gnat\ravenscar-sfp-microbit\adalib\libgnarl.a(s-bcpcst.o)
 .comment       0x000000000000003d       0x3e D:\gnat\2018-arm-elf\arm-eabi\lib\gnat\ravenscar-sfp-microbit\adalib\libgnarl.a(s-taskin.o)
 .comment       0x000000000000003d       0x3e D:\gnat\2018-arm-elf\arm-eabi\lib\gnat\ravenscar-sfp-microbit\adalib\libgnarl.a(s-bbprot.o)
 .comment       0x000000000000003d       0x3e D:\gnat\2018-arm-elf\arm-eabi\lib\gnat\ravenscar-sfp-microbit\adalib\libgnarl.a(s-bbthre.o)
 .comment       0x000000000000003d       0x3e D:\gnat\2018-arm-elf\arm-eabi\lib\gnat\ravenscar-sfp-microbit\adalib\libgnarl.a(s-bbtiev.o)
 .comment       0x000000000000003d       0x3e D:\gnat\2018-arm-elf\arm-eabi\lib\gnat\ravenscar-sfp-microbit\adalib\libgnarl.a(s-taprop.o)
 .comment       0x000000000000003d       0x3e D:\gnat\2018-arm-elf\arm-eabi\lib\gnat\ravenscar-sfp-microbit\adalib\libgnarl.a(s-tasdeb.o)
 .comment       0x000000000000003d       0x3e D:\gnat\2018-arm-elf\arm-eabi\lib\gnat\ravenscar-sfp-microbit\adalib\libgnat.a(a-elchha.o)
 .comment       0x000000000000003d       0x3e D:\gnat\2018-arm-elf\arm-eabi\lib\gnat\ravenscar-sfp-microbit\adalib\libgnat.a(a-except.o)
 .comment       0x000000000000003d       0x3e D:\gnat\2018-arm-elf\arm-eabi\lib\gnat\ravenscar-sfp-microbit\adalib\libgnat.a(g-io.o)
 .comment       0x000000000000003d       0x3e D:\gnat\2018-arm-elf\arm-eabi\lib\gnat\ravenscar-sfp-microbit\adalib\libgnat.a(s-assert.o)
 .comment       0x000000000000003d       0x3e D:\gnat\2018-arm-elf\arm-eabi\lib\gnat\ravenscar-sfp-microbit\adalib\libgnat.a(s-macres.o)
 .comment       0x000000000000003d       0x3e D:\gnat\2018-arm-elf\arm-eabi\lib\gnat\ravenscar-sfp-microbit\adalib\libgnat.a(s-memcop.o)
 .comment       0x000000000000003d       0x3e D:\gnat\2018-arm-elf\arm-eabi\lib\gnat\ravenscar-sfp-microbit\adalib\libgnat.a(s-memset.o)
 .comment       0x000000000000003d       0x3e D:\gnat\2018-arm-elf\arm-eabi\lib\gnat\ravenscar-sfp-microbit\adalib\libgnat.a(s-parame.o)
 .comment       0x000000000000003d       0x3e D:\gnat\2018-arm-elf\arm-eabi\lib\gnat\ravenscar-sfp-microbit\adalib\libgnat.a(s-secsta.o)
 .comment       0x000000000000003d       0x3e D:\gnat\2018-arm-elf\arm-eabi\lib\gnat\ravenscar-sfp-microbit\adalib\libgnat.a(s-textio.o)
 .comment       0x000000000000003d       0x3e d:/gnat/2018-arm-elf/bin/../lib/gcc/arm-eabi/7.3.1/thumb/v6-m\libgcc.a(_muldi3.o)
 .comment       0x000000000000003d       0x3e d:/gnat/2018-arm-elf/bin/../lib/gcc/arm-eabi/7.3.1/thumb/v6-m\libgcc.a(_fixunssfsi.o)
 .comment       0x000000000000003d       0x3e d:/gnat/2018-arm-elf/bin/../lib/gcc/arm-eabi/7.3.1/thumb/v6-m\libgcc.a(_udivmoddi4.o)
 .comment       0x000000000000003d       0x3e d:/gnat/2018-arm-elf/bin/../lib/gcc/arm-eabi/7.3.1/thumb/v6-m\libgcc.a(bpabi.o)
 .comment       0x000000000000003d       0x3e d:/gnat/2018-arm-elf/bin/../lib/gcc/arm-eabi/7.3.1/thumb/v6-m\libgcc.a(addsf3.o)
 .comment       0x000000000000003d       0x3e d:/gnat/2018-arm-elf/bin/../lib/gcc/arm-eabi/7.3.1/thumb/v6-m\libgcc.a(divsf3.o)
 .comment       0x000000000000003d       0x3e d:/gnat/2018-arm-elf/bin/../lib/gcc/arm-eabi/7.3.1/thumb/v6-m\libgcc.a(eqsf2.o)
 .comment       0x000000000000003d       0x3e d:/gnat/2018-arm-elf/bin/../lib/gcc/arm-eabi/7.3.1/thumb/v6-m\libgcc.a(gesf2.o)
 .comment       0x000000000000003d       0x3e d:/gnat/2018-arm-elf/bin/../lib/gcc/arm-eabi/7.3.1/thumb/v6-m\libgcc.a(lesf2.o)
 .comment       0x000000000000003d       0x3e d:/gnat/2018-arm-elf/bin/../lib/gcc/arm-eabi/7.3.1/thumb/v6-m\libgcc.a(mulsf3.o)
 .comment       0x000000000000003d       0x3e d:/gnat/2018-arm-elf/bin/../lib/gcc/arm-eabi/7.3.1/thumb/v6-m\libgcc.a(subsf3.o)
 .comment       0x000000000000003d       0x3e d:/gnat/2018-arm-elf/bin/../lib/gcc/arm-eabi/7.3.1/thumb/v6-m\libgcc.a(unordsf2.o)
 .comment       0x000000000000003d       0x3e d:/gnat/2018-arm-elf/bin/../lib/gcc/arm-eabi/7.3.1/thumb/v6-m\libgcc.a(fixsfsi.o)
 .comment       0x000000000000003d       0x3e d:/gnat/2018-arm-elf/bin/../lib/gcc/arm-eabi/7.3.1/thumb/v6-m\libgcc.a(floatsisf.o)
 .comment       0x000000000000003d       0x3e d:/gnat/2018-arm-elf/bin/../lib/gcc/arm-eabi/7.3.1/thumb/v6-m\libgcc.a(floatunsisf.o)
 .comment       0x000000000000003d       0x3e d:/gnat/2018-arm-elf/bin/../lib/gcc/arm-eabi/7.3.1/thumb/v6-m\libgcc.a(_divdi3.o)

.ARM.attributes
                0x0000000000000000       0x2f
 .ARM.attributes
                0x0000000000000000       0x2f main.o
 .ARM.attributes
                0x000000000000002f       0x2f b__main.o
 .ARM.attributes
                0x000000000000005e       0x2f D:\programming\ada_projects\Ada_Drivers_Library\boards\MicroBit\obj\zfp_lib_Debug\libada_drivers_library.a(cortex_m-nvic.o)
 .ARM.attributes
                0x000000000000008d       0x2f D:\programming\ada_projects\Ada_Drivers_Library\boards\MicroBit\obj\zfp_lib_Debug\libada_drivers_library.a(microbit-ios.o)
 .ARM.attributes
                0x00000000000000bc       0x2f D:\programming\ada_projects\Ada_Drivers_Library\boards\MicroBit\obj\zfp_lib_Debug\libada_drivers_library.a(nrf51-adc.o)
 .ARM.attributes
                0x00000000000000eb       0x2f D:\programming\ada_projects\Ada_Drivers_Library\boards\MicroBit\obj\zfp_lib_Debug\libada_drivers_library.a(nrf51-device.o)
 .ARM.attributes
                0x000000000000011a       0x2f D:\programming\ada_projects\Ada_Drivers_Library\boards\MicroBit\obj\zfp_lib_Debug\libada_drivers_library.a(nrf51-events.o)
 .ARM.attributes
                0x0000000000000149       0x2f D:\programming\ada_projects\Ada_Drivers_Library\boards\MicroBit\obj\zfp_lib_Debug\libada_drivers_library.a(nrf51-gpio-tasks_and_events.o)
 .ARM.attributes
                0x0000000000000178       0x2f D:\programming\ada_projects\Ada_Drivers_Library\boards\MicroBit\obj\zfp_lib_Debug\libada_drivers_library.a(nrf51-gpio.o)
 .ARM.attributes
                0x00000000000001a7       0x2f D:\programming\ada_projects\Ada_Drivers_Library\boards\MicroBit\obj\zfp_lib_Debug\libada_drivers_library.a(nrf51-interrupts.o)
 .ARM.attributes
                0x00000000000001d6       0x2f D:\programming\ada_projects\Ada_Drivers_Library\boards\MicroBit\obj\zfp_lib_Debug\libada_drivers_library.a(nrf51-ppi.o)
 .ARM.attributes
                0x0000000000000205       0x2f D:\programming\ada_projects\Ada_Drivers_Library\boards\MicroBit\obj\zfp_lib_Debug\libada_drivers_library.a(nrf51-rtc.o)
 .ARM.attributes
                0x0000000000000234       0x2f D:\programming\ada_projects\Ada_Drivers_Library\boards\MicroBit\obj\zfp_lib_Debug\libada_drivers_library.a(nrf51-tasks.o)
 .ARM.attributes
                0x0000000000000263       0x2f D:\programming\ada_projects\Ada_Drivers_Library\boards\MicroBit\obj\zfp_lib_Debug\libada_drivers_library.a(nrf51-timers.o)
 .ARM.attributes
                0x0000000000000292       0x2f D:\programming\ada_projects\Ada_Drivers_Library\boards\MicroBit\obj\zfp_lib_Debug\libada_drivers_library.a(nrf51-twi.o)
 .ARM.attributes
                0x00000000000002c1       0x2f D:\programming\ada_projects\Ada_Drivers_Library\boards\MicroBit\obj\zfp_lib_Debug\libada_drivers_library.a(nrf51_svd-gpio.o)
 .ARM.attributes
                0x00000000000002f0       0x2f D:\programming\ada_projects\Ada_Drivers_Library\boards\MicroBit\obj\zfp_lib_Debug\libada_drivers_library.a(nrf51_svd-twi.o)
 .ARM.attributes
                0x000000000000031f       0x2f D:\programming\ada_projects\Ada_Drivers_Library\boards\MicroBit\obj\zfp_lib_Debug\libada_drivers_library.a(hal-gpio.o)
 .ARM.attributes
                0x000000000000034e       0x2f D:\programming\ada_projects\Ada_Drivers_Library\boards\MicroBit\obj\zfp_lib_Debug\libada_drivers_library.a(hal-i2c.o)
 .ARM.attributes
                0x000000000000037d       0x2f D:\gnat\2018-arm-elf\arm-eabi\lib\gnat\ravenscar-sfp-microbit\adalib\libgnarl.a(a-reatim.o)
 .ARM.attributes
                0x00000000000003ac       0x2f D:\gnat\2018-arm-elf\arm-eabi\lib\gnat\ravenscar-sfp-microbit\adalib\libgnarl.a(a-retide.o)
 .ARM.attributes
                0x00000000000003db       0x2f D:\gnat\2018-arm-elf\arm-eabi\lib\gnat\ravenscar-sfp-microbit\adalib\libgnarl.a(s-bbbosu.o)
 .ARM.attributes
                0x000000000000040a       0x2f D:\gnat\2018-arm-elf\arm-eabi\lib\gnat\ravenscar-sfp-microbit\adalib\libgnarl.a(s-bbcppr.o)
 .ARM.attributes
                0x0000000000000439       0x2f D:\gnat\2018-arm-elf\arm-eabi\lib\gnat\ravenscar-sfp-microbit\adalib\libgnarl.a(s-bbinte.o)
 .ARM.attributes
                0x0000000000000468       0x2f D:\gnat\2018-arm-elf\arm-eabi\lib\gnat\ravenscar-sfp-microbit\adalib\libgnarl.a(s-bbthqu.o)
 .ARM.attributes
                0x0000000000000497       0x2f D:\gnat\2018-arm-elf\arm-eabi\lib\gnat\ravenscar-sfp-microbit\adalib\libgnarl.a(s-bbtime.o)
 .ARM.attributes
                0x00000000000004c6       0x2f D:\gnat\2018-arm-elf\arm-eabi\lib\gnat\ravenscar-sfp-microbit\adalib\libgnarl.a(s-bcpcst.o)
 .ARM.attributes
                0x00000000000004f5       0x2f D:\gnat\2018-arm-elf\arm-eabi\lib\gnat\ravenscar-sfp-microbit\adalib\libgnarl.a(s-taskin.o)
 .ARM.attributes
                0x0000000000000524       0x2f D:\gnat\2018-arm-elf\arm-eabi\lib\gnat\ravenscar-sfp-microbit\adalib\libgnarl.a(s-bbprot.o)
 .ARM.attributes
                0x0000000000000553       0x2f D:\gnat\2018-arm-elf\arm-eabi\lib\gnat\ravenscar-sfp-microbit\adalib\libgnarl.a(s-bbthre.o)
 .ARM.attributes
                0x0000000000000582       0x2f D:\gnat\2018-arm-elf\arm-eabi\lib\gnat\ravenscar-sfp-microbit\adalib\libgnarl.a(s-bbtiev.o)
 .ARM.attributes
                0x00000000000005b1       0x2f D:\gnat\2018-arm-elf\arm-eabi\lib\gnat\ravenscar-sfp-microbit\adalib\libgnarl.a(s-taprop.o)
 .ARM.attributes
                0x00000000000005e0       0x2f D:\gnat\2018-arm-elf\arm-eabi\lib\gnat\ravenscar-sfp-microbit\adalib\libgnarl.a(s-tasdeb.o)
 .ARM.attributes
                0x000000000000060f       0x2f D:\gnat\2018-arm-elf\arm-eabi\lib\gnat\ravenscar-sfp-microbit\adalib\libgnat.a(a-elchha.o)
 .ARM.attributes
                0x000000000000063e       0x2f D:\gnat\2018-arm-elf\arm-eabi\lib\gnat\ravenscar-sfp-microbit\adalib\libgnat.a(a-except.o)
 .ARM.attributes
                0x000000000000066d       0x2f D:\gnat\2018-arm-elf\arm-eabi\lib\gnat\ravenscar-sfp-microbit\adalib\libgnat.a(g-io.o)
 .ARM.attributes
                0x000000000000069c       0x2f D:\gnat\2018-arm-elf\arm-eabi\lib\gnat\ravenscar-sfp-microbit\adalib\libgnat.a(s-assert.o)
 .ARM.attributes
                0x00000000000006cb       0x2f D:\gnat\2018-arm-elf\arm-eabi\lib\gnat\ravenscar-sfp-microbit\adalib\libgnat.a(s-macres.o)
 .ARM.attributes
                0x00000000000006fa       0x2f D:\gnat\2018-arm-elf\arm-eabi\lib\gnat\ravenscar-sfp-microbit\adalib\libgnat.a(s-memcop.o)
 .ARM.attributes
                0x0000000000000729       0x2f D:\gnat\2018-arm-elf\arm-eabi\lib\gnat\ravenscar-sfp-microbit\adalib\libgnat.a(s-memset.o)
 .ARM.attributes
                0x0000000000000758       0x2f D:\gnat\2018-arm-elf\arm-eabi\lib\gnat\ravenscar-sfp-microbit\adalib\libgnat.a(s-parame.o)
 .ARM.attributes
                0x0000000000000787       0x2f D:\gnat\2018-arm-elf\arm-eabi\lib\gnat\ravenscar-sfp-microbit\adalib\libgnat.a(s-secsta.o)
 .ARM.attributes
                0x00000000000007b6       0x2f D:\gnat\2018-arm-elf\arm-eabi\lib\gnat\ravenscar-sfp-microbit\adalib\libgnat.a(s-textio.o)
 .ARM.attributes
                0x00000000000007e5       0x21 D:\gnat\2018-arm-elf\arm-eabi\lib\gnat\ravenscar-sfp-microbit\adalib\libgnat.a(start-rom.o)
 .ARM.attributes
                0x0000000000000806       0x21 D:\gnat\2018-arm-elf\arm-eabi\lib\gnat\ravenscar-sfp-microbit\adalib\libgnat.a(handler.o)
 .ARM.attributes
                0x0000000000000827       0x21 D:\gnat\2018-arm-elf\arm-eabi\lib\gnat\ravenscar-sfp-microbit\adalib\libgnat.a(breakpoint_handler-cortexm.o)
 .ARM.attributes
                0x0000000000000848       0x1e d:/gnat/2018-arm-elf/bin/../lib/gcc/arm-eabi/7.3.1/thumb/v6-m\libgcc.a(_divsi3.o)
 .ARM.attributes
                0x0000000000000866       0x1e d:/gnat/2018-arm-elf/bin/../lib/gcc/arm-eabi/7.3.1/thumb/v6-m\libgcc.a(_dvmd_tls.o)
 .ARM.attributes
                0x0000000000000884       0x1e d:/gnat/2018-arm-elf/bin/../lib/gcc/arm-eabi/7.3.1/thumb/v6-m\libgcc.a(_arm_cmpsf2.o)
 .ARM.attributes
                0x00000000000008a2       0x1e d:/gnat/2018-arm-elf/bin/../lib/gcc/arm-eabi/7.3.1/thumb/v6-m\libgcc.a(_aeabi_ldivmod.o)
 .ARM.attributes
                0x00000000000008c0       0x1e d:/gnat/2018-arm-elf/bin/../lib/gcc/arm-eabi/7.3.1/thumb/v6-m\libgcc.a(_aeabi_uldivmod.o)
 .ARM.attributes
                0x00000000000008de       0x2c d:/gnat/2018-arm-elf/bin/../lib/gcc/arm-eabi/7.3.1/thumb/v6-m\libgcc.a(_muldi3.o)
 .ARM.attributes
                0x000000000000090a       0x2c d:/gnat/2018-arm-elf/bin/../lib/gcc/arm-eabi/7.3.1/thumb/v6-m\libgcc.a(_fixunssfsi.o)
 .ARM.attributes
                0x0000000000000936       0x2c d:/gnat/2018-arm-elf/bin/../lib/gcc/arm-eabi/7.3.1/thumb/v6-m\libgcc.a(_udivmoddi4.o)
 .ARM.attributes
                0x0000000000000962       0x2c d:/gnat/2018-arm-elf/bin/../lib/gcc/arm-eabi/7.3.1/thumb/v6-m\libgcc.a(bpabi.o)
 .ARM.attributes
                0x000000000000098e       0x2c d:/gnat/2018-arm-elf/bin/../lib/gcc/arm-eabi/7.3.1/thumb/v6-m\libgcc.a(addsf3.o)
 .ARM.attributes
                0x00000000000009ba       0x2c d:/gnat/2018-arm-elf/bin/../lib/gcc/arm-eabi/7.3.1/thumb/v6-m\libgcc.a(divsf3.o)
 .ARM.attributes
                0x00000000000009e6       0x2c d:/gnat/2018-arm-elf/bin/../lib/gcc/arm-eabi/7.3.1/thumb/v6-m\libgcc.a(eqsf2.o)
 .ARM.attributes
                0x0000000000000a12       0x2c d:/gnat/2018-arm-elf/bin/../lib/gcc/arm-eabi/7.3.1/thumb/v6-m\libgcc.a(gesf2.o)
 .ARM.attributes
                0x0000000000000a3e       0x2c d:/gnat/2018-arm-elf/bin/../lib/gcc/arm-eabi/7.3.1/thumb/v6-m\libgcc.a(lesf2.o)
 .ARM.attributes
                0x0000000000000a6a       0x2c d:/gnat/2018-arm-elf/bin/../lib/gcc/arm-eabi/7.3.1/thumb/v6-m\libgcc.a(mulsf3.o)
 .ARM.attributes
                0x0000000000000a96       0x2c d:/gnat/2018-arm-elf/bin/../lib/gcc/arm-eabi/7.3.1/thumb/v6-m\libgcc.a(subsf3.o)
 .ARM.attributes
                0x0000000000000ac2       0x2c d:/gnat/2018-arm-elf/bin/../lib/gcc/arm-eabi/7.3.1/thumb/v6-m\libgcc.a(unordsf2.o)
 .ARM.attributes
                0x0000000000000aee       0x2c d:/gnat/2018-arm-elf/bin/../lib/gcc/arm-eabi/7.3.1/thumb/v6-m\libgcc.a(fixsfsi.o)
 .ARM.attributes
                0x0000000000000b1a       0x2c d:/gnat/2018-arm-elf/bin/../lib/gcc/arm-eabi/7.3.1/thumb/v6-m\libgcc.a(floatsisf.o)
 .ARM.attributes
                0x0000000000000b46       0x2c d:/gnat/2018-arm-elf/bin/../lib/gcc/arm-eabi/7.3.1/thumb/v6-m\libgcc.a(floatunsisf.o)
 .ARM.attributes
                0x0000000000000b72       0x1e d:/gnat/2018-arm-elf/bin/../lib/gcc/arm-eabi/7.3.1/thumb/v6-m\libgcc.a(_clzsi2.o)
 .ARM.attributes
                0x0000000000000b90       0x1e d:/gnat/2018-arm-elf/bin/../lib/gcc/arm-eabi/7.3.1/thumb/v6-m\libgcc.a(_clzdi2.o)
 .ARM.attributes
                0x0000000000000bae       0x2c d:/gnat/2018-arm-elf/bin/../lib/gcc/arm-eabi/7.3.1/thumb/v6-m\libgcc.a(_divdi3.o)

.gnu.attributes
 *(.gnu.attributes)

/DISCARD/
 *(.note.GNU-stack)
 *(.gnu_debuglink)
 *(.gnu.lto_*)
OUTPUT(main elf32-littlearm)
