Archive member included to satisfy reference by file (symbol)

D:\programming\ada_projects\Ada_Drivers_Library\boards\MicroBit\obj\zfp_lib_Debug\libada_drivers_library.a(cortex_m-nvic.o)
                              b__main.o (cortex_m__nvic_E)
D:\programming\ada_projects\Ada_Drivers_Library\boards\MicroBit\obj\zfp_lib_Debug\libada_drivers_library.a(microbit-ios.o)
                              b__main.o (microbit__ios___elabb)
D:\programming\ada_projects\Ada_Drivers_Library\boards\MicroBit\obj\zfp_lib_Debug\libada_drivers_library.a(microbit-servos.o)
                              main.o (microbit__servos__servo_pin_idPredicate)
D:\programming\ada_projects\Ada_Drivers_Library\boards\MicroBit\obj\zfp_lib_Debug\libada_drivers_library.a(microbit-time.o)
                              main.o (microbit__time__delay_ms)
D:\programming\ada_projects\Ada_Drivers_Library\boards\MicroBit\obj\zfp_lib_Debug\libada_drivers_library.a(nrf51-adc.o)
                              D:\programming\ada_projects\Ada_Drivers_Library\boards\MicroBit\obj\zfp_lib_Debug\libada_drivers_library.a(microbit-ios.o) (nrf51__adc__start_pin_conversion)
D:\programming\ada_projects\Ada_Drivers_Library\boards\MicroBit\obj\zfp_lib_Debug\libada_drivers_library.a(nrf51-clock.o)
                              D:\programming\ada_projects\Ada_Drivers_Library\boards\MicroBit\obj\zfp_lib_Debug\libada_drivers_library.a(microbit-time.o) (nrf51__clock__set_low_freq_source)
D:\programming\ada_projects\Ada_Drivers_Library\boards\MicroBit\obj\zfp_lib_Debug\libada_drivers_library.a(nrf51-device.o)
                              b__main.o (nrf51__device___elabs)
D:\programming\ada_projects\Ada_Drivers_Library\boards\MicroBit\obj\zfp_lib_Debug\libada_drivers_library.a(nrf51-events.o)
                              D:\programming\ada_projects\Ada_Drivers_Library\boards\MicroBit\obj\zfp_lib_Debug\libada_drivers_library.a(microbit-ios.o) (nrf51__events__enable_interrupt)
D:\programming\ada_projects\Ada_Drivers_Library\boards\MicroBit\obj\zfp_lib_Debug\libada_drivers_library.a(nrf51-gpio-tasks_and_events.o)
                              D:\programming\ada_projects\Ada_Drivers_Library\boards\MicroBit\obj\zfp_lib_Debug\libada_drivers_library.a(microbit-ios.o) (nrf51__gpio__tasks_and_events__disable)
D:\programming\ada_projects\Ada_Drivers_Library\boards\MicroBit\obj\zfp_lib_Debug\libada_drivers_library.a(nrf51-gpio.o)
                              D:\programming\ada_projects\Ada_Drivers_Library\boards\MicroBit\obj\zfp_lib_Debug\libada_drivers_library.a(microbit-ios.o) (nrf51__gpio__gpio_configurationIP)
D:\programming\ada_projects\Ada_Drivers_Library\boards\MicroBit\obj\zfp_lib_Debug\libada_drivers_library.a(nrf51-interrupts.o)
                              D:\programming\ada_projects\Ada_Drivers_Library\boards\MicroBit\obj\zfp_lib_Debug\libada_drivers_library.a(microbit-ios.o) (nrf51__interrupts__enable)
D:\programming\ada_projects\Ada_Drivers_Library\boards\MicroBit\obj\zfp_lib_Debug\libada_drivers_library.a(nrf51-ppi.o)
                              D:\programming\ada_projects\Ada_Drivers_Library\boards\MicroBit\obj\zfp_lib_Debug\libada_drivers_library.a(microbit-ios.o) (nrf51__ppi__configure)
D:\programming\ada_projects\Ada_Drivers_Library\boards\MicroBit\obj\zfp_lib_Debug\libada_drivers_library.a(nrf51-rtc.o)
                              D:\programming\ada_projects\Ada_Drivers_Library\boards\MicroBit\obj\zfp_lib_Debug\libada_drivers_library.a(nrf51-device.o) (nrf51__rtc__real_time_counterIP)
D:\programming\ada_projects\Ada_Drivers_Library\boards\MicroBit\obj\zfp_lib_Debug\libada_drivers_library.a(nrf51-tasks.o)
                              D:\programming\ada_projects\Ada_Drivers_Library\boards\MicroBit\obj\zfp_lib_Debug\libada_drivers_library.a(nrf51-adc.o) (nrf51__tasks__trigger)
D:\programming\ada_projects\Ada_Drivers_Library\boards\MicroBit\obj\zfp_lib_Debug\libada_drivers_library.a(nrf51-timers.o)
                              D:\programming\ada_projects\Ada_Drivers_Library\boards\MicroBit\obj\zfp_lib_Debug\libada_drivers_library.a(nrf51-device.o) (nrf51__timers__timerIP)
D:\programming\ada_projects\Ada_Drivers_Library\boards\MicroBit\obj\zfp_lib_Debug\libada_drivers_library.a(nrf51-twi.o)
                              D:\programming\ada_projects\Ada_Drivers_Library\boards\MicroBit\obj\zfp_lib_Debug\libada_drivers_library.a(nrf51-device.o) (nrf51__twi__twi_masterIP)
D:\programming\ada_projects\Ada_Drivers_Library\boards\MicroBit\obj\zfp_lib_Debug\libada_drivers_library.a(nrf51_svd-gpio.o)
                              D:\programming\ada_projects\Ada_Drivers_Library\boards\MicroBit\obj\zfp_lib_Debug\libada_drivers_library.a(nrf51-gpio.o) (nrf51_svd__gpio__pin_cnf_pull_fieldRP)
D:\programming\ada_projects\Ada_Drivers_Library\boards\MicroBit\obj\zfp_lib_Debug\libada_drivers_library.a(nrf51_svd-twi.o)
                              D:\programming\ada_projects\Ada_Drivers_Library\boards\MicroBit\obj\zfp_lib_Debug\libada_drivers_library.a(nrf51-twi.o) (nrf51_svd__twi__errorsrc_registerIP)
D:\programming\ada_projects\Ada_Drivers_Library\boards\MicroBit\obj\zfp_lib_Debug\libada_drivers_library.a(hal-gpio.o)
                              D:\programming\ada_projects\Ada_Drivers_Library\boards\MicroBit\obj\zfp_lib_Debug\libada_drivers_library.a(nrf51-gpio.o) (hal__gpio__gpio_pointT)
D:\programming\ada_projects\Ada_Drivers_Library\boards\MicroBit\obj\zfp_lib_Debug\libada_drivers_library.a(hal-i2c.o)
                              D:\programming\ada_projects\Ada_Drivers_Library\boards\MicroBit\obj\zfp_lib_Debug\libada_drivers_library.a(nrf51-twi.o) (hal__i2c__i2c_portT)
D:\programming\ada_projects\Ada_Drivers_Library\boards\MicroBit\obj\zfp_lib_Debug\libada_drivers_library.a(hal-time.o)
                              D:\programming\ada_projects\Ada_Drivers_Library\boards\MicroBit\obj\zfp_lib_Debug\libada_drivers_library.a(microbit-time.o) (hal__time__delaysT)
D:\gnat\2018-arm-elf\arm-eabi\lib\gnat\zfp-microbit\adalib\libgnat.a(a-elchha.o)
                              D:\programming\ada_projects\Ada_Drivers_Library\boards\MicroBit\obj\zfp_lib_Debug\libada_drivers_library.a(cortex_m-nvic.o) (__gnat_last_chance_handler)
D:\gnat\2018-arm-elf\arm-eabi\lib\gnat\zfp-microbit\adalib\libgnat.a(a-except.o)
                              D:\programming\ada_projects\Ada_Drivers_Library\boards\MicroBit\obj\zfp_lib_Debug\libada_drivers_library.a(microbit-ios.o) (ada__exceptions__empty_c_string___UNC)
D:\gnat\2018-arm-elf\arm-eabi\lib\gnat\zfp-microbit\adalib\libgnat.a(g-io.o)
                              D:\gnat\2018-arm-elf\arm-eabi\lib\gnat\zfp-microbit\adalib\libgnat.a(a-elchha.o) (gnat__io__put__2)
D:\gnat\2018-arm-elf\arm-eabi\lib\gnat\zfp-microbit\adalib\libgnat.a(s-assert.o)
                              main.o (system__assertions__raise_assert_failure)
D:\gnat\2018-arm-elf\arm-eabi\lib\gnat\zfp-microbit\adalib\libgnat.a(s-macres.o)
                              D:\gnat\2018-arm-elf\arm-eabi\lib\gnat\zfp-microbit\adalib\libgnat.a(a-elchha.o) (system__machine_reset__stop)
D:\gnat\2018-arm-elf\arm-eabi\lib\gnat\zfp-microbit\adalib\libgnat.a(s-memcop.o)
                              D:\programming\ada_projects\Ada_Drivers_Library\boards\MicroBit\obj\zfp_lib_Debug\libada_drivers_library.a(microbit-ios.o) (memcpy)
D:\gnat\2018-arm-elf\arm-eabi\lib\gnat\zfp-microbit\adalib\libgnat.a(s-secsta.o)
                              b__main.o (system__secondary_stack__ss_stackIP)
D:\gnat\2018-arm-elf\arm-eabi\lib\gnat\zfp-microbit\adalib\libgnat.a(s-sssita.o)
                              D:\gnat\2018-arm-elf\arm-eabi\lib\gnat\zfp-microbit\adalib\libgnat.a(s-secsta.o) (__gnat_get_secondary_stack)
D:\gnat\2018-arm-elf\arm-eabi\lib\gnat\zfp-microbit\adalib\libgnat.a(s-textio.o)
                              D:\gnat\2018-arm-elf\arm-eabi\lib\gnat\zfp-microbit\adalib\libgnat.a(g-io.o) (system__text_io__is_tx_ready)
D:\gnat\2018-arm-elf\arm-eabi\lib\gnat\zfp-microbit\adalib\libgnat.a(start-rom.o)
                              (_start_rom)
D:\gnat\2018-arm-elf\arm-eabi\lib\gnat\zfp-microbit\adalib\libgnat.a(handler.o)
                              D:\gnat\2018-arm-elf\arm-eabi\lib\gnat\zfp-microbit\adalib\libgnat.a(start-rom.o) (__vectors)
D:\gnat\2018-arm-elf\arm-eabi\lib\gnat\zfp-microbit\adalib\libgnat.a(breakpoint_handler-cortexm.o)
                              D:\gnat\2018-arm-elf\arm-eabi\lib\gnat\zfp-microbit\adalib\libgnat.a(handler.o) (__gnat_bkpt_trap)
d:/gnat/2018-arm-elf/bin/../lib/gcc/arm-eabi/7.3.1/thumb/v6-m\libgcc.a(_divsi3.o)
                              D:\programming\ada_projects\Ada_Drivers_Library\boards\MicroBit\obj\zfp_lib_Debug\libada_drivers_library.a(microbit-servos.o) (__aeabi_idiv)
d:/gnat/2018-arm-elf/bin/../lib/gcc/arm-eabi/7.3.1/thumb/v6-m\libgcc.a(_dvmd_tls.o)
                              d:/gnat/2018-arm-elf/bin/../lib/gcc/arm-eabi/7.3.1/thumb/v6-m\libgcc.a(_divsi3.o) (__aeabi_idiv0)
d:/gnat/2018-arm-elf/bin/../lib/gcc/arm-eabi/7.3.1/thumb/v6-m\libgcc.a(_arm_cmpsf2.o)
                              D:\programming\ada_projects\Ada_Drivers_Library\boards\MicroBit\obj\zfp_lib_Debug\libada_drivers_library.a(microbit-ios.o) (__aeabi_fcmple)
d:/gnat/2018-arm-elf/bin/../lib/gcc/arm-eabi/7.3.1/thumb/v6-m\libgcc.a(_fixunssfsi.o)
                              D:\programming\ada_projects\Ada_Drivers_Library\boards\MicroBit\obj\zfp_lib_Debug\libada_drivers_library.a(microbit-ios.o) (__aeabi_f2uiz)
d:/gnat/2018-arm-elf/bin/../lib/gcc/arm-eabi/7.3.1/thumb/v6-m\libgcc.a(addsf3.o)
                              D:\programming\ada_projects\Ada_Drivers_Library\boards\MicroBit\obj\zfp_lib_Debug\libada_drivers_library.a(microbit-ios.o) (__aeabi_fadd)
d:/gnat/2018-arm-elf/bin/../lib/gcc/arm-eabi/7.3.1/thumb/v6-m\libgcc.a(divsf3.o)
                              D:\programming\ada_projects\Ada_Drivers_Library\boards\MicroBit\obj\zfp_lib_Debug\libada_drivers_library.a(microbit-ios.o) (__aeabi_fdiv)
d:/gnat/2018-arm-elf/bin/../lib/gcc/arm-eabi/7.3.1/thumb/v6-m\libgcc.a(eqsf2.o)
                              d:/gnat/2018-arm-elf/bin/../lib/gcc/arm-eabi/7.3.1/thumb/v6-m\libgcc.a(_arm_cmpsf2.o) (__eqsf2)
d:/gnat/2018-arm-elf/bin/../lib/gcc/arm-eabi/7.3.1/thumb/v6-m\libgcc.a(gesf2.o)
                              d:/gnat/2018-arm-elf/bin/../lib/gcc/arm-eabi/7.3.1/thumb/v6-m\libgcc.a(_arm_cmpsf2.o) (__gesf2)
d:/gnat/2018-arm-elf/bin/../lib/gcc/arm-eabi/7.3.1/thumb/v6-m\libgcc.a(lesf2.o)
                              d:/gnat/2018-arm-elf/bin/../lib/gcc/arm-eabi/7.3.1/thumb/v6-m\libgcc.a(_arm_cmpsf2.o) (__lesf2)
d:/gnat/2018-arm-elf/bin/../lib/gcc/arm-eabi/7.3.1/thumb/v6-m\libgcc.a(mulsf3.o)
                              D:\programming\ada_projects\Ada_Drivers_Library\boards\MicroBit\obj\zfp_lib_Debug\libada_drivers_library.a(microbit-ios.o) (__aeabi_fmul)
d:/gnat/2018-arm-elf/bin/../lib/gcc/arm-eabi/7.3.1/thumb/v6-m\libgcc.a(subsf3.o)
                              D:\programming\ada_projects\Ada_Drivers_Library\boards\MicroBit\obj\zfp_lib_Debug\libada_drivers_library.a(microbit-ios.o) (__aeabi_fsub)
d:/gnat/2018-arm-elf/bin/../lib/gcc/arm-eabi/7.3.1/thumb/v6-m\libgcc.a(unordsf2.o)
                              D:\programming\ada_projects\Ada_Drivers_Library\boards\MicroBit\obj\zfp_lib_Debug\libada_drivers_library.a(microbit-ios.o) (__aeabi_fcmpun)
d:/gnat/2018-arm-elf/bin/../lib/gcc/arm-eabi/7.3.1/thumb/v6-m\libgcc.a(fixsfsi.o)
                              d:/gnat/2018-arm-elf/bin/../lib/gcc/arm-eabi/7.3.1/thumb/v6-m\libgcc.a(_fixunssfsi.o) (__aeabi_f2iz)
d:/gnat/2018-arm-elf/bin/../lib/gcc/arm-eabi/7.3.1/thumb/v6-m\libgcc.a(floatsisf.o)
                              D:\programming\ada_projects\Ada_Drivers_Library\boards\MicroBit\obj\zfp_lib_Debug\libada_drivers_library.a(microbit-ios.o) (__aeabi_i2f)
d:/gnat/2018-arm-elf/bin/../lib/gcc/arm-eabi/7.3.1/thumb/v6-m\libgcc.a(floatunsisf.o)
                              D:\programming\ada_projects\Ada_Drivers_Library\boards\MicroBit\obj\zfp_lib_Debug\libada_drivers_library.a(microbit-ios.o) (__aeabi_ui2f)
d:/gnat/2018-arm-elf/bin/../lib/gcc/arm-eabi/7.3.1/thumb/v6-m\libgcc.a(_clzsi2.o)
                              d:/gnat/2018-arm-elf/bin/../lib/gcc/arm-eabi/7.3.1/thumb/v6-m\libgcc.a(addsf3.o) (__clzsi2)

Discarded input sections

 .text          0x0000000000000000        0x0 main.o
 .data          0x0000000000000000        0x0 main.o
 .bss           0x0000000000000000        0x0 main.o
 .text          0x0000000000000000        0x0 b__main.o
 .data          0x0000000000000000        0x0 b__main.o
 .bss           0x0000000000000000        0x0 b__main.o
 .data.ada_main_E
                0x0000000000000000        0x2 b__main.o
 .rodata.__gnat_version
                0x0000000000000000       0x2b b__main.o
 .text          0x0000000000000000        0x0 D:\programming\ada_projects\Ada_Drivers_Library\boards\MicroBit\obj\zfp_lib_Debug\libada_drivers_library.a(cortex_m-nvic.o)
 .data          0x0000000000000000        0x0 D:\programming\ada_projects\Ada_Drivers_Library\boards\MicroBit\obj\zfp_lib_Debug\libada_drivers_library.a(cortex_m-nvic.o)
 .bss           0x0000000000000000        0x0 D:\programming\ada_projects\Ada_Drivers_Library\boards\MicroBit\obj\zfp_lib_Debug\libada_drivers_library.a(cortex_m-nvic.o)
 .rodata        0x0000000000000000       0x12 D:\programming\ada_projects\Ada_Drivers_Library\boards\MicroBit\obj\zfp_lib_Debug\libada_drivers_library.a(cortex_m-nvic.o)
 .text.cortex_m__nvic__set_priority
                0x0000000000000000       0xbc D:\programming\ada_projects\Ada_Drivers_Library\boards\MicroBit\obj\zfp_lib_Debug\libada_drivers_library.a(cortex_m-nvic.o)
 .text.cortex_m__nvic__set_priority__as_arrayIP.4241
                0x0000000000000000       0x68 D:\programming\ada_projects\Ada_Drivers_Library\boards\MicroBit\obj\zfp_lib_Debug\libada_drivers_library.a(cortex_m-nvic.o)
 .text.cortex_m__nvic__disable
                0x0000000000000000       0x20 D:\programming\ada_projects\Ada_Drivers_Library\boards\MicroBit\obj\zfp_lib_Debug\libada_drivers_library.a(cortex_m-nvic.o)
 .text.cortex_m__nvic__enabled
                0x0000000000000000       0x2c D:\programming\ada_projects\Ada_Drivers_Library\boards\MicroBit\obj\zfp_lib_Debug\libada_drivers_library.a(cortex_m-nvic.o)
 .text.cortex_m__nvic__pending
                0x0000000000000000       0x30 D:\programming\ada_projects\Ada_Drivers_Library\boards\MicroBit\obj\zfp_lib_Debug\libada_drivers_library.a(cortex_m-nvic.o)
 .text.cortex_m__nvic__set_pending
                0x0000000000000000       0x20 D:\programming\ada_projects\Ada_Drivers_Library\boards\MicroBit\obj\zfp_lib_Debug\libada_drivers_library.a(cortex_m-nvic.o)
 .text.cortex_m__nvic__clear_pending
                0x0000000000000000       0x20 D:\programming\ada_projects\Ada_Drivers_Library\boards\MicroBit\obj\zfp_lib_Debug\libada_drivers_library.a(cortex_m-nvic.o)
 .text          0x0000000000000000        0x0 D:\programming\ada_projects\Ada_Drivers_Library\boards\MicroBit\obj\zfp_lib_Debug\libada_drivers_library.a(microbit-ios.o)
 .data          0x0000000000000000        0x0 D:\programming\ada_projects\Ada_Drivers_Library\boards\MicroBit\obj\zfp_lib_Debug\libada_drivers_library.a(microbit-ios.o)
 .bss           0x0000000000000000        0x0 D:\programming\ada_projects\Ada_Drivers_Library\boards\MicroBit\obj\zfp_lib_Debug\libada_drivers_library.a(microbit-ios.o)
 .text.microbit__ios__deallocate_pwm___postconditions.4843
                0x0000000000000000       0x38 D:\programming\ada_projects\Ada_Drivers_Library\boards\MicroBit\obj\zfp_lib_Debug\libada_drivers_library.a(microbit-ios.o)
 .text.microbit__ios__deallocate_pwm
                0x0000000000000000       0xe8 D:\programming\ada_projects\Ada_Drivers_Library\boards\MicroBit\obj\zfp_lib_Debug\libada_drivers_library.a(microbit-ios.o)
 .text.microbit__ios__set
                0x0000000000000000      0x120 D:\programming\ada_projects\Ada_Drivers_Library\boards\MicroBit\obj\zfp_lib_Debug\libada_drivers_library.a(microbit-ios.o)
 .text.microbit__ios__set__2
                0x0000000000000000      0x100 D:\programming\ada_projects\Ada_Drivers_Library\boards\MicroBit\obj\zfp_lib_Debug\libada_drivers_library.a(microbit-ios.o)
 .text.microbit__ios__analog__2
                0x0000000000000000      0x100 D:\programming\ada_projects\Ada_Drivers_Library\boards\MicroBit\obj\zfp_lib_Debug\libada_drivers_library.a(microbit-ios.o)
 .rodata.microbit__ios__analog__2
                0x0000000000000000       0x2c D:\programming\ada_projects\Ada_Drivers_Library\boards\MicroBit\obj\zfp_lib_Debug\libada_drivers_library.a(microbit-ios.o)
 .rodata.microbit__ios__no_pwm
                0x0000000000000000        0x1 D:\programming\ada_projects\Ada_Drivers_Library\boards\MicroBit\obj\zfp_lib_Debug\libada_drivers_library.a(microbit-ios.o)
 .rodata.microbit__ios__pwm_timer
                0x0000000000000000        0x4 D:\programming\ada_projects\Ada_Drivers_Library\boards\MicroBit\obj\zfp_lib_Debug\libada_drivers_library.a(microbit-ios.o)
 .rodata.microbit__ios__pwm_interrupt
                0x0000000000000000        0x1 D:\programming\ada_projects\Ada_Drivers_Library\boards\MicroBit\obj\zfp_lib_Debug\libada_drivers_library.a(microbit-ios.o)
 .rodata.microbit__ios__pwm_global_compare
                0x0000000000000000        0x1 D:\programming\ada_projects\Ada_Drivers_Library\boards\MicroBit\obj\zfp_lib_Debug\libada_drivers_library.a(microbit-ios.o)
 .text          0x0000000000000000        0x0 D:\programming\ada_projects\Ada_Drivers_Library\boards\MicroBit\obj\zfp_lib_Debug\libada_drivers_library.a(microbit-servos.o)
 .data          0x0000000000000000        0x0 D:\programming\ada_projects\Ada_Drivers_Library\boards\MicroBit\obj\zfp_lib_Debug\libada_drivers_library.a(microbit-servos.o)
 .bss           0x0000000000000000        0x0 D:\programming\ada_projects\Ada_Drivers_Library\boards\MicroBit\obj\zfp_lib_Debug\libada_drivers_library.a(microbit-servos.o)
 .text.microbit__servos__stop
                0x0000000000000000       0x44 D:\programming\ada_projects\Ada_Drivers_Library\boards\MicroBit\obj\zfp_lib_Debug\libada_drivers_library.a(microbit-servos.o)
 .text          0x0000000000000000        0x0 D:\programming\ada_projects\Ada_Drivers_Library\boards\MicroBit\obj\zfp_lib_Debug\libada_drivers_library.a(microbit-time.o)
 .data          0x0000000000000000        0x0 D:\programming\ada_projects\Ada_Drivers_Library\boards\MicroBit\obj\zfp_lib_Debug\libada_drivers_library.a(microbit-time.o)
 .bss           0x0000000000000000        0x0 D:\programming\ada_projects\Ada_Drivers_Library\boards\MicroBit\obj\zfp_lib_Debug\libada_drivers_library.a(microbit-time.o)
 .text.microbit__time__tick_period
                0x0000000000000000       0x14 D:\programming\ada_projects\Ada_Drivers_Library\boards\MicroBit\obj\zfp_lib_Debug\libada_drivers_library.a(microbit-time.o)
 .text.microbit__time__tick_subscriber
                0x0000000000000000       0x4c D:\programming\ada_projects\Ada_Drivers_Library\boards\MicroBit\obj\zfp_lib_Debug\libada_drivers_library.a(microbit-time.o)
 .text.microbit__time__tick_subscribe___postconditions.5048
                0x0000000000000000       0x54 D:\programming\ada_projects\Ada_Drivers_Library\boards\MicroBit\obj\zfp_lib_Debug\libada_drivers_library.a(microbit-time.o)
 .text.microbit__time__tick_subscribe
                0x0000000000000000       0xa4 D:\programming\ada_projects\Ada_Drivers_Library\boards\MicroBit\obj\zfp_lib_Debug\libada_drivers_library.a(microbit-time.o)
 .text.microbit__time__tick_unsubscribe___postconditions.5060
                0x0000000000000000       0x58 D:\programming\ada_projects\Ada_Drivers_Library\boards\MicroBit\obj\zfp_lib_Debug\libada_drivers_library.a(microbit-time.o)
 .text.microbit__time__tick_unsubscribe
                0x0000000000000000       0xb0 D:\programming\ada_projects\Ada_Drivers_Library\boards\MicroBit\obj\zfp_lib_Debug\libada_drivers_library.a(microbit-time.o)
 .text.microbit__time__hal_delay
                0x0000000000000000       0x14 D:\programming\ada_projects\Ada_Drivers_Library\boards\MicroBit\obj\zfp_lib_Debug\libada_drivers_library.a(microbit-time.o)
 .rodata.microbit__time__mb_delaysP
                0x0000000000000000        0x4 D:\programming\ada_projects\Ada_Drivers_Library\boards\MicroBit\obj\zfp_lib_Debug\libada_drivers_library.a(microbit-time.o)
 .rodata.microbit__time__mb_delaysY
                0x0000000000000000        0x4 D:\programming\ada_projects\Ada_Drivers_Library\boards\MicroBit\obj\zfp_lib_Debug\libada_drivers_library.a(microbit-time.o)
 .rodata.microbit__time__mb_delaysR21s
                0x0000000000000000        0x4 D:\programming\ada_projects\Ada_Drivers_Library\boards\MicroBit\obj\zfp_lib_Debug\libada_drivers_library.a(microbit-time.o)
 .rodata.microbit__time__period_ms
                0x0000000000000000        0x8 D:\programming\ada_projects\Ada_Drivers_Library\boards\MicroBit\obj\zfp_lib_Debug\libada_drivers_library.a(microbit-time.o)
 .text          0x0000000000000000        0x0 D:\programming\ada_projects\Ada_Drivers_Library\boards\MicroBit\obj\zfp_lib_Debug\libada_drivers_library.a(nrf51-adc.o)
 .data          0x0000000000000000        0x0 D:\programming\ada_projects\Ada_Drivers_Library\boards\MicroBit\obj\zfp_lib_Debug\libada_drivers_library.a(nrf51-adc.o)
 .bss           0x0000000000000000        0x0 D:\programming\ada_projects\Ada_Drivers_Library\boards\MicroBit\obj\zfp_lib_Debug\libada_drivers_library.a(nrf51-adc.o)
 .rodata        0x0000000000000000        0xe D:\programming\ada_projects\Ada_Drivers_Library\boards\MicroBit\obj\zfp_lib_Debug\libada_drivers_library.a(nrf51-adc.o)
 .text.nrf51__adc__set_resolution
                0x0000000000000000       0x84 D:\programming\ada_projects\Ada_Drivers_Library\boards\MicroBit\obj\zfp_lib_Debug\libada_drivers_library.a(nrf51-adc.o)
 .text.nrf51__adc__set_reference
                0x0000000000000000      0x15c D:\programming\ada_projects\Ada_Drivers_Library\boards\MicroBit\obj\zfp_lib_Debug\libada_drivers_library.a(nrf51-adc.o)
 .text.nrf51__adc__start_pin_conversion
                0x0000000000000000      0x25c D:\programming\ada_projects\Ada_Drivers_Library\boards\MicroBit\obj\zfp_lib_Debug\libada_drivers_library.a(nrf51-adc.o)
 .rodata.nrf51__adc__start_pin_conversion
                0x0000000000000000       0x1c D:\programming\ada_projects\Ada_Drivers_Library\boards\MicroBit\obj\zfp_lib_Debug\libada_drivers_library.a(nrf51-adc.o)
 .text.nrf51__adc__start_vdd_conversion
                0x0000000000000000       0xf4 D:\programming\ada_projects\Ada_Drivers_Library\boards\MicroBit\obj\zfp_lib_Debug\libada_drivers_library.a(nrf51-adc.o)
 .text.nrf51__adc__busy
                0x0000000000000000       0x2c D:\programming\ada_projects\Ada_Drivers_Library\boards\MicroBit\obj\zfp_lib_Debug\libada_drivers_library.a(nrf51-adc.o)
 .text.nrf51__adc__wait_for_result
                0x0000000000000000       0x64 D:\programming\ada_projects\Ada_Drivers_Library\boards\MicroBit\obj\zfp_lib_Debug\libada_drivers_library.a(nrf51-adc.o)
 .text          0x0000000000000000        0x0 D:\programming\ada_projects\Ada_Drivers_Library\boards\MicroBit\obj\zfp_lib_Debug\libada_drivers_library.a(nrf51-clock.o)
 .data          0x0000000000000000        0x0 D:\programming\ada_projects\Ada_Drivers_Library\boards\MicroBit\obj\zfp_lib_Debug\libada_drivers_library.a(nrf51-clock.o)
 .bss           0x0000000000000000        0x0 D:\programming\ada_projects\Ada_Drivers_Library\boards\MicroBit\obj\zfp_lib_Debug\libada_drivers_library.a(nrf51-clock.o)
 .text.nrf51__clock__set_high_freq_external_frequency
                0x0000000000000000       0x60 D:\programming\ada_projects\Ada_Drivers_Library\boards\MicroBit\obj\zfp_lib_Debug\libada_drivers_library.a(nrf51-clock.o)
 .text.nrf51__clock__set_high_freq_source
                0x0000000000000000       0x68 D:\programming\ada_projects\Ada_Drivers_Library\boards\MicroBit\obj\zfp_lib_Debug\libada_drivers_library.a(nrf51-clock.o)
 .text.nrf51__clock__high_freq_source
                0x0000000000000000       0x40 D:\programming\ada_projects\Ada_Drivers_Library\boards\MicroBit\obj\zfp_lib_Debug\libada_drivers_library.a(nrf51-clock.o)
 .text.nrf51__clock__high_freq_running
                0x0000000000000000       0x30 D:\programming\ada_projects\Ada_Drivers_Library\boards\MicroBit\obj\zfp_lib_Debug\libada_drivers_library.a(nrf51-clock.o)
 .text.nrf51__clock__start_high_freq
                0x0000000000000000       0x14 D:\programming\ada_projects\Ada_Drivers_Library\boards\MicroBit\obj\zfp_lib_Debug\libada_drivers_library.a(nrf51-clock.o)
 .text.nrf51__clock__stop_high_freq
                0x0000000000000000       0x14 D:\programming\ada_projects\Ada_Drivers_Library\boards\MicroBit\obj\zfp_lib_Debug\libada_drivers_library.a(nrf51-clock.o)
 .text.nrf51__clock__low_freq_source
                0x0000000000000000       0x48 D:\programming\ada_projects\Ada_Drivers_Library\boards\MicroBit\obj\zfp_lib_Debug\libada_drivers_library.a(nrf51-clock.o)
 .text.nrf51__clock__stop_low_freq
                0x0000000000000000       0x14 D:\programming\ada_projects\Ada_Drivers_Library\boards\MicroBit\obj\zfp_lib_Debug\libada_drivers_library.a(nrf51-clock.o)
 .text          0x0000000000000000        0x0 D:\programming\ada_projects\Ada_Drivers_Library\boards\MicroBit\obj\zfp_lib_Debug\libada_drivers_library.a(nrf51-device.o)
 .data          0x0000000000000000        0x0 D:\programming\ada_projects\Ada_Drivers_Library\boards\MicroBit\obj\zfp_lib_Debug\libada_drivers_library.a(nrf51-device.o)
 .bss           0x0000000000000000        0x0 D:\programming\ada_projects\Ada_Drivers_Library\boards\MicroBit\obj\zfp_lib_Debug\libada_drivers_library.a(nrf51-device.o)
 .text          0x0000000000000000        0x0 D:\programming\ada_projects\Ada_Drivers_Library\boards\MicroBit\obj\zfp_lib_Debug\libada_drivers_library.a(nrf51-events.o)
 .data          0x0000000000000000        0x0 D:\programming\ada_projects\Ada_Drivers_Library\boards\MicroBit\obj\zfp_lib_Debug\libada_drivers_library.a(nrf51-events.o)
 .bss           0x0000000000000000        0x0 D:\programming\ada_projects\Ada_Drivers_Library\boards\MicroBit\obj\zfp_lib_Debug\libada_drivers_library.a(nrf51-events.o)
 .text.nrf51__events__triggered
                0x0000000000000000       0x38 D:\programming\ada_projects\Ada_Drivers_Library\boards\MicroBit\obj\zfp_lib_Debug\libada_drivers_library.a(nrf51-events.o)
 .text.nrf51__events__disable_interrupt
                0x0000000000000000       0x7c D:\programming\ada_projects\Ada_Drivers_Library\boards\MicroBit\obj\zfp_lib_Debug\libada_drivers_library.a(nrf51-events.o)
 .text.nrf51__events__get_address
                0x0000000000000000       0x14 D:\programming\ada_projects\Ada_Drivers_Library\boards\MicroBit\obj\zfp_lib_Debug\libada_drivers_library.a(nrf51-events.o)
 .rodata.nrf51__events__power_pofwarn
                0x0000000000000000        0x4 D:\programming\ada_projects\Ada_Drivers_Library\boards\MicroBit\obj\zfp_lib_Debug\libada_drivers_library.a(nrf51-events.o)
 .rodata.nrf51__events__clock_hfclkstarted
                0x0000000000000000        0x4 D:\programming\ada_projects\Ada_Drivers_Library\boards\MicroBit\obj\zfp_lib_Debug\libada_drivers_library.a(nrf51-events.o)
 .rodata.nrf51__events__clock_lfclkstarted
                0x0000000000000000        0x4 D:\programming\ada_projects\Ada_Drivers_Library\boards\MicroBit\obj\zfp_lib_Debug\libada_drivers_library.a(nrf51-events.o)
 .rodata.nrf51__events__clock_done
                0x0000000000000000        0x4 D:\programming\ada_projects\Ada_Drivers_Library\boards\MicroBit\obj\zfp_lib_Debug\libada_drivers_library.a(nrf51-events.o)
 .rodata.nrf51__events__clock_ctto
                0x0000000000000000        0x4 D:\programming\ada_projects\Ada_Drivers_Library\boards\MicroBit\obj\zfp_lib_Debug\libada_drivers_library.a(nrf51-events.o)
 .rodata.nrf51__events__gpiote_in_0
                0x0000000000000000        0x4 D:\programming\ada_projects\Ada_Drivers_Library\boards\MicroBit\obj\zfp_lib_Debug\libada_drivers_library.a(nrf51-events.o)
 .rodata.nrf51__events__gpiote_in_1
                0x0000000000000000        0x4 D:\programming\ada_projects\Ada_Drivers_Library\boards\MicroBit\obj\zfp_lib_Debug\libada_drivers_library.a(nrf51-events.o)
 .rodata.nrf51__events__gpiote_in_2
                0x0000000000000000        0x4 D:\programming\ada_projects\Ada_Drivers_Library\boards\MicroBit\obj\zfp_lib_Debug\libada_drivers_library.a(nrf51-events.o)
 .rodata.nrf51__events__gpiote_in_3
                0x0000000000000000        0x4 D:\programming\ada_projects\Ada_Drivers_Library\boards\MicroBit\obj\zfp_lib_Debug\libada_drivers_library.a(nrf51-events.o)
 .rodata.nrf51__events__gpiote_port
                0x0000000000000000        0x4 D:\programming\ada_projects\Ada_Drivers_Library\boards\MicroBit\obj\zfp_lib_Debug\libada_drivers_library.a(nrf51-events.o)
 .rodata.nrf51__events__radio_ready
                0x0000000000000000        0x4 D:\programming\ada_projects\Ada_Drivers_Library\boards\MicroBit\obj\zfp_lib_Debug\libada_drivers_library.a(nrf51-events.o)
 .rodata.nrf51__events__radio_address
                0x0000000000000000        0x4 D:\programming\ada_projects\Ada_Drivers_Library\boards\MicroBit\obj\zfp_lib_Debug\libada_drivers_library.a(nrf51-events.o)
 .rodata.nrf51__events__radio_payload
                0x0000000000000000        0x4 D:\programming\ada_projects\Ada_Drivers_Library\boards\MicroBit\obj\zfp_lib_Debug\libada_drivers_library.a(nrf51-events.o)
 .rodata.nrf51__events__radio_end
                0x0000000000000000        0x4 D:\programming\ada_projects\Ada_Drivers_Library\boards\MicroBit\obj\zfp_lib_Debug\libada_drivers_library.a(nrf51-events.o)
 .rodata.nrf51__events__radio_disabled
                0x0000000000000000        0x4 D:\programming\ada_projects\Ada_Drivers_Library\boards\MicroBit\obj\zfp_lib_Debug\libada_drivers_library.a(nrf51-events.o)
 .rodata.nrf51__events__radio_devmatch
                0x0000000000000000        0x4 D:\programming\ada_projects\Ada_Drivers_Library\boards\MicroBit\obj\zfp_lib_Debug\libada_drivers_library.a(nrf51-events.o)
 .rodata.nrf51__events__radio_devmiss
                0x0000000000000000        0x4 D:\programming\ada_projects\Ada_Drivers_Library\boards\MicroBit\obj\zfp_lib_Debug\libada_drivers_library.a(nrf51-events.o)
 .rodata.nrf51__events__radio_rssiend
                0x0000000000000000        0x4 D:\programming\ada_projects\Ada_Drivers_Library\boards\MicroBit\obj\zfp_lib_Debug\libada_drivers_library.a(nrf51-events.o)
 .rodata.nrf51__events__radio_bcmatch
                0x0000000000000000        0x4 D:\programming\ada_projects\Ada_Drivers_Library\boards\MicroBit\obj\zfp_lib_Debug\libada_drivers_library.a(nrf51-events.o)
 .rodata.nrf51__events__timer_0_compare_0
                0x0000000000000000        0x4 D:\programming\ada_projects\Ada_Drivers_Library\boards\MicroBit\obj\zfp_lib_Debug\libada_drivers_library.a(nrf51-events.o)
 .rodata.nrf51__events__timer_0_compare_1
                0x0000000000000000        0x4 D:\programming\ada_projects\Ada_Drivers_Library\boards\MicroBit\obj\zfp_lib_Debug\libada_drivers_library.a(nrf51-events.o)
 .rodata.nrf51__events__timer_0_compare_2
                0x0000000000000000        0x4 D:\programming\ada_projects\Ada_Drivers_Library\boards\MicroBit\obj\zfp_lib_Debug\libada_drivers_library.a(nrf51-events.o)
 .rodata.nrf51__events__timer_0_compare_3
                0x0000000000000000        0x4 D:\programming\ada_projects\Ada_Drivers_Library\boards\MicroBit\obj\zfp_lib_Debug\libada_drivers_library.a(nrf51-events.o)
 .rodata.nrf51__events__timer_1_compare_0
                0x0000000000000000        0x4 D:\programming\ada_projects\Ada_Drivers_Library\boards\MicroBit\obj\zfp_lib_Debug\libada_drivers_library.a(nrf51-events.o)
 .rodata.nrf51__events__timer_1_compare_1
                0x0000000000000000        0x4 D:\programming\ada_projects\Ada_Drivers_Library\boards\MicroBit\obj\zfp_lib_Debug\libada_drivers_library.a(nrf51-events.o)
 .rodata.nrf51__events__timer_1_compare_2
                0x0000000000000000        0x4 D:\programming\ada_projects\Ada_Drivers_Library\boards\MicroBit\obj\zfp_lib_Debug\libada_drivers_library.a(nrf51-events.o)
 .rodata.nrf51__events__timer_1_compare_3
                0x0000000000000000        0x4 D:\programming\ada_projects\Ada_Drivers_Library\boards\MicroBit\obj\zfp_lib_Debug\libada_drivers_library.a(nrf51-events.o)
 .rodata.nrf51__events__timer_2_compare_0
                0x0000000000000000        0x4 D:\programming\ada_projects\Ada_Drivers_Library\boards\MicroBit\obj\zfp_lib_Debug\libada_drivers_library.a(nrf51-events.o)
 .rodata.nrf51__events__timer_2_compare_1
                0x0000000000000000        0x4 D:\programming\ada_projects\Ada_Drivers_Library\boards\MicroBit\obj\zfp_lib_Debug\libada_drivers_library.a(nrf51-events.o)
 .rodata.nrf51__events__timer_2_compare_2
                0x0000000000000000        0x4 D:\programming\ada_projects\Ada_Drivers_Library\boards\MicroBit\obj\zfp_lib_Debug\libada_drivers_library.a(nrf51-events.o)
 .rodata.nrf51__events__timer_2_compare_3
                0x0000000000000000        0x4 D:\programming\ada_projects\Ada_Drivers_Library\boards\MicroBit\obj\zfp_lib_Debug\libada_drivers_library.a(nrf51-events.o)
 .rodata.nrf51__events__rtc_0_tick
                0x0000000000000000        0x4 D:\programming\ada_projects\Ada_Drivers_Library\boards\MicroBit\obj\zfp_lib_Debug\libada_drivers_library.a(nrf51-events.o)
 .rodata.nrf51__events__rtc_0_overflw
                0x0000000000000000        0x4 D:\programming\ada_projects\Ada_Drivers_Library\boards\MicroBit\obj\zfp_lib_Debug\libada_drivers_library.a(nrf51-events.o)
 .rodata.nrf51__events__rtc_0_compare_0
                0x0000000000000000        0x4 D:\programming\ada_projects\Ada_Drivers_Library\boards\MicroBit\obj\zfp_lib_Debug\libada_drivers_library.a(nrf51-events.o)
 .rodata.nrf51__events__rtc_0_compare_1
                0x0000000000000000        0x4 D:\programming\ada_projects\Ada_Drivers_Library\boards\MicroBit\obj\zfp_lib_Debug\libada_drivers_library.a(nrf51-events.o)
 .rodata.nrf51__events__rtc_0_compare_2
                0x0000000000000000        0x4 D:\programming\ada_projects\Ada_Drivers_Library\boards\MicroBit\obj\zfp_lib_Debug\libada_drivers_library.a(nrf51-events.o)
 .rodata.nrf51__events__rtc_0_compare_3
                0x0000000000000000        0x4 D:\programming\ada_projects\Ada_Drivers_Library\boards\MicroBit\obj\zfp_lib_Debug\libada_drivers_library.a(nrf51-events.o)
 .rodata.nrf51__events__rtc_1_tick
                0x0000000000000000        0x4 D:\programming\ada_projects\Ada_Drivers_Library\boards\MicroBit\obj\zfp_lib_Debug\libada_drivers_library.a(nrf51-events.o)
 .rodata.nrf51__events__rtc_1_overflw
                0x0000000000000000        0x4 D:\programming\ada_projects\Ada_Drivers_Library\boards\MicroBit\obj\zfp_lib_Debug\libada_drivers_library.a(nrf51-events.o)
 .rodata.nrf51__events__rtc_1_compare_0
                0x0000000000000000        0x4 D:\programming\ada_projects\Ada_Drivers_Library\boards\MicroBit\obj\zfp_lib_Debug\libada_drivers_library.a(nrf51-events.o)
 .rodata.nrf51__events__rtc_1_compare_1
                0x0000000000000000        0x4 D:\programming\ada_projects\Ada_Drivers_Library\boards\MicroBit\obj\zfp_lib_Debug\libada_drivers_library.a(nrf51-events.o)
 .rodata.nrf51__events__rtc_1_compare_2
                0x0000000000000000        0x4 D:\programming\ada_projects\Ada_Drivers_Library\boards\MicroBit\obj\zfp_lib_Debug\libada_drivers_library.a(nrf51-events.o)
 .rodata.nrf51__events__rtc_1_compare_3
                0x0000000000000000        0x4 D:\programming\ada_projects\Ada_Drivers_Library\boards\MicroBit\obj\zfp_lib_Debug\libada_drivers_library.a(nrf51-events.o)
 .rodata.nrf51__events__watchdog_timeout
                0x0000000000000000        0x4 D:\programming\ada_projects\Ada_Drivers_Library\boards\MicroBit\obj\zfp_lib_Debug\libada_drivers_library.a(nrf51-events.o)
 .rodata.nrf51__events__rng_valrdy
                0x0000000000000000        0x4 D:\programming\ada_projects\Ada_Drivers_Library\boards\MicroBit\obj\zfp_lib_Debug\libada_drivers_library.a(nrf51-events.o)
 .rodata.nrf51__events__temperature_datardy
                0x0000000000000000        0x4 D:\programming\ada_projects\Ada_Drivers_Library\boards\MicroBit\obj\zfp_lib_Debug\libada_drivers_library.a(nrf51-events.o)
 .rodata.nrf51__events__ecb_end
                0x0000000000000000        0x4 D:\programming\ada_projects\Ada_Drivers_Library\boards\MicroBit\obj\zfp_lib_Debug\libada_drivers_library.a(nrf51-events.o)
 .rodata.nrf51__events__ecb_error
                0x0000000000000000        0x4 D:\programming\ada_projects\Ada_Drivers_Library\boards\MicroBit\obj\zfp_lib_Debug\libada_drivers_library.a(nrf51-events.o)
 .rodata.nrf51__events__ccm_ksgen_end
                0x0000000000000000        0x4 D:\programming\ada_projects\Ada_Drivers_Library\boards\MicroBit\obj\zfp_lib_Debug\libada_drivers_library.a(nrf51-events.o)
 .rodata.nrf51__events__ccm_crypt_end
                0x0000000000000000        0x4 D:\programming\ada_projects\Ada_Drivers_Library\boards\MicroBit\obj\zfp_lib_Debug\libada_drivers_library.a(nrf51-events.o)
 .rodata.nrf51__events__ccm_error
                0x0000000000000000        0x4 D:\programming\ada_projects\Ada_Drivers_Library\boards\MicroBit\obj\zfp_lib_Debug\libada_drivers_library.a(nrf51-events.o)
 .rodata.nrf51__events__aar_end
                0x0000000000000000        0x4 D:\programming\ada_projects\Ada_Drivers_Library\boards\MicroBit\obj\zfp_lib_Debug\libada_drivers_library.a(nrf51-events.o)
 .rodata.nrf51__events__aar_resolved
                0x0000000000000000        0x4 D:\programming\ada_projects\Ada_Drivers_Library\boards\MicroBit\obj\zfp_lib_Debug\libada_drivers_library.a(nrf51-events.o)
 .rodata.nrf51__events__aar_notresolved
                0x0000000000000000        0x4 D:\programming\ada_projects\Ada_Drivers_Library\boards\MicroBit\obj\zfp_lib_Debug\libada_drivers_library.a(nrf51-events.o)
 .rodata.nrf51__events__spi_0_ready
                0x0000000000000000        0x4 D:\programming\ada_projects\Ada_Drivers_Library\boards\MicroBit\obj\zfp_lib_Debug\libada_drivers_library.a(nrf51-events.o)
 .rodata.nrf51__events__spi_1_ready
                0x0000000000000000        0x4 D:\programming\ada_projects\Ada_Drivers_Library\boards\MicroBit\obj\zfp_lib_Debug\libada_drivers_library.a(nrf51-events.o)
 .rodata.nrf51__events__twi_0_stopped
                0x0000000000000000        0x4 D:\programming\ada_projects\Ada_Drivers_Library\boards\MicroBit\obj\zfp_lib_Debug\libada_drivers_library.a(nrf51-events.o)
 .rodata.nrf51__events__twi_0_rxdrdy
                0x0000000000000000        0x4 D:\programming\ada_projects\Ada_Drivers_Library\boards\MicroBit\obj\zfp_lib_Debug\libada_drivers_library.a(nrf51-events.o)
 .rodata.nrf51__events__twi_0_txdent
                0x0000000000000000        0x4 D:\programming\ada_projects\Ada_Drivers_Library\boards\MicroBit\obj\zfp_lib_Debug\libada_drivers_library.a(nrf51-events.o)
 .rodata.nrf51__events__twi_0_erro
                0x0000000000000000        0x4 D:\programming\ada_projects\Ada_Drivers_Library\boards\MicroBit\obj\zfp_lib_Debug\libada_drivers_library.a(nrf51-events.o)
 .rodata.nrf51__events__twi_0_bb
                0x0000000000000000        0x4 D:\programming\ada_projects\Ada_Drivers_Library\boards\MicroBit\obj\zfp_lib_Debug\libada_drivers_library.a(nrf51-events.o)
 .rodata.nrf51__events__twi_0_suspended
                0x0000000000000000        0x4 D:\programming\ada_projects\Ada_Drivers_Library\boards\MicroBit\obj\zfp_lib_Debug\libada_drivers_library.a(nrf51-events.o)
 .rodata.nrf51__events__twi_1_stopped
                0x0000000000000000        0x4 D:\programming\ada_projects\Ada_Drivers_Library\boards\MicroBit\obj\zfp_lib_Debug\libada_drivers_library.a(nrf51-events.o)
 .rodata.nrf51__events__twi_1_rxdrdy
                0x0000000000000000        0x4 D:\programming\ada_projects\Ada_Drivers_Library\boards\MicroBit\obj\zfp_lib_Debug\libada_drivers_library.a(nrf51-events.o)
 .rodata.nrf51__events__twi_1_txdent
                0x0000000000000000        0x4 D:\programming\ada_projects\Ada_Drivers_Library\boards\MicroBit\obj\zfp_lib_Debug\libada_drivers_library.a(nrf51-events.o)
 .rodata.nrf51__events__twi_1_erro
                0x0000000000000000        0x4 D:\programming\ada_projects\Ada_Drivers_Library\boards\MicroBit\obj\zfp_lib_Debug\libada_drivers_library.a(nrf51-events.o)
 .rodata.nrf51__events__twi_1_bb
                0x0000000000000000        0x4 D:\programming\ada_projects\Ada_Drivers_Library\boards\MicroBit\obj\zfp_lib_Debug\libada_drivers_library.a(nrf51-events.o)
 .rodata.nrf51__events__twi_1_suspended
                0x0000000000000000        0x4 D:\programming\ada_projects\Ada_Drivers_Library\boards\MicroBit\obj\zfp_lib_Debug\libada_drivers_library.a(nrf51-events.o)
 .rodata.nrf51__events__uart_rxdrdy
                0x0000000000000000        0x4 D:\programming\ada_projects\Ada_Drivers_Library\boards\MicroBit\obj\zfp_lib_Debug\libada_drivers_library.a(nrf51-events.o)
 .rodata.nrf51__events__uart_txdrdy
                0x0000000000000000        0x4 D:\programming\ada_projects\Ada_Drivers_Library\boards\MicroBit\obj\zfp_lib_Debug\libada_drivers_library.a(nrf51-events.o)
 .rodata.nrf51__events__uart_error
                0x0000000000000000        0x4 D:\programming\ada_projects\Ada_Drivers_Library\boards\MicroBit\obj\zfp_lib_Debug\libada_drivers_library.a(nrf51-events.o)
 .rodata.nrf51__events__qdec_samplerdy
                0x0000000000000000        0x4 D:\programming\ada_projects\Ada_Drivers_Library\boards\MicroBit\obj\zfp_lib_Debug\libada_drivers_library.a(nrf51-events.o)
 .rodata.nrf51__events__qdec_reportrdy
                0x0000000000000000        0x4 D:\programming\ada_projects\Ada_Drivers_Library\boards\MicroBit\obj\zfp_lib_Debug\libada_drivers_library.a(nrf51-events.o)
 .rodata.nrf51__events__qdec_accof
                0x0000000000000000        0x4 D:\programming\ada_projects\Ada_Drivers_Library\boards\MicroBit\obj\zfp_lib_Debug\libada_drivers_library.a(nrf51-events.o)
 .rodata.nrf51__events__adc_end
                0x0000000000000000        0x4 D:\programming\ada_projects\Ada_Drivers_Library\boards\MicroBit\obj\zfp_lib_Debug\libada_drivers_library.a(nrf51-events.o)
 .text          0x0000000000000000        0x0 D:\programming\ada_projects\Ada_Drivers_Library\boards\MicroBit\obj\zfp_lib_Debug\libada_drivers_library.a(nrf51-gpio-tasks_and_events.o)
 .data          0x0000000000000000        0x0 D:\programming\ada_projects\Ada_Drivers_Library\boards\MicroBit\obj\zfp_lib_Debug\libada_drivers_library.a(nrf51-gpio-tasks_and_events.o)
 .bss           0x0000000000000000        0x0 D:\programming\ada_projects\Ada_Drivers_Library\boards\MicroBit\obj\zfp_lib_Debug\libada_drivers_library.a(nrf51-gpio-tasks_and_events.o)
 .text.nrf51__gpio__tasks_and_events__disable
                0x0000000000000000       0x44 D:\programming\ada_projects\Ada_Drivers_Library\boards\MicroBit\obj\zfp_lib_Debug\libada_drivers_library.a(nrf51-gpio-tasks_and_events.o)
 .text.nrf51__gpio__tasks_and_events__enable_event
                0x0000000000000000      0x118 D:\programming\ada_projects\Ada_Drivers_Library\boards\MicroBit\obj\zfp_lib_Debug\libada_drivers_library.a(nrf51-gpio-tasks_and_events.o)
 .text.nrf51__gpio__tasks_and_events__in_event
                0x0000000000000000       0x2c D:\programming\ada_projects\Ada_Drivers_Library\boards\MicroBit\obj\zfp_lib_Debug\libada_drivers_library.a(nrf51-gpio-tasks_and_events.o)
 .text          0x0000000000000000        0x0 D:\programming\ada_projects\Ada_Drivers_Library\boards\MicroBit\obj\zfp_lib_Debug\libada_drivers_library.a(nrf51-gpio.o)
 .data          0x0000000000000000        0x0 D:\programming\ada_projects\Ada_Drivers_Library\boards\MicroBit\obj\zfp_lib_Debug\libada_drivers_library.a(nrf51-gpio.o)
 .bss           0x0000000000000000        0x0 D:\programming\ada_projects\Ada_Drivers_Library\boards\MicroBit\obj\zfp_lib_Debug\libada_drivers_library.a(nrf51-gpio.o)
 .text.nrf51__gpio__gpio_pointIP
                0x0000000000000000       0x28 D:\programming\ada_projects\Ada_Drivers_Library\boards\MicroBit\obj\zfp_lib_Debug\libada_drivers_library.a(nrf51-gpio.o)
 .rodata.nrf51__gpio__gpio_pointP
                0x0000000000000000        0x4 D:\programming\ada_projects\Ada_Drivers_Library\boards\MicroBit\obj\zfp_lib_Debug\libada_drivers_library.a(nrf51-gpio.o)
 .rodata.nrf51__gpio__gpio_pointY
                0x0000000000000000        0x4 D:\programming\ada_projects\Ada_Drivers_Library\boards\MicroBit\obj\zfp_lib_Debug\libada_drivers_library.a(nrf51-gpio.o)
 .rodata.nrf51__gpio__gpio_pointR17s
                0x0000000000000000        0x4 D:\programming\ada_projects\Ada_Drivers_Library\boards\MicroBit\obj\zfp_lib_Debug\libada_drivers_library.a(nrf51-gpio.o)
 .text          0x0000000000000000        0x0 D:\programming\ada_projects\Ada_Drivers_Library\boards\MicroBit\obj\zfp_lib_Debug\libada_drivers_library.a(nrf51-interrupts.o)
 .data          0x0000000000000000        0x0 D:\programming\ada_projects\Ada_Drivers_Library\boards\MicroBit\obj\zfp_lib_Debug\libada_drivers_library.a(nrf51-interrupts.o)
 .bss           0x0000000000000000        0x0 D:\programming\ada_projects\Ada_Drivers_Library\boards\MicroBit\obj\zfp_lib_Debug\libada_drivers_library.a(nrf51-interrupts.o)
 .text.nrf51__interrupts__set_priority
                0x0000000000000000       0x28 D:\programming\ada_projects\Ada_Drivers_Library\boards\MicroBit\obj\zfp_lib_Debug\libada_drivers_library.a(nrf51-interrupts.o)
 .text.nrf51__interrupts__disable
                0x0000000000000000       0x1c D:\programming\ada_projects\Ada_Drivers_Library\boards\MicroBit\obj\zfp_lib_Debug\libada_drivers_library.a(nrf51-interrupts.o)
 .text.nrf51__interrupts__pending
                0x0000000000000000       0x24 D:\programming\ada_projects\Ada_Drivers_Library\boards\MicroBit\obj\zfp_lib_Debug\libada_drivers_library.a(nrf51-interrupts.o)
 .text          0x0000000000000000        0x0 D:\programming\ada_projects\Ada_Drivers_Library\boards\MicroBit\obj\zfp_lib_Debug\libada_drivers_library.a(nrf51-ppi.o)
 .data          0x0000000000000000        0x0 D:\programming\ada_projects\Ada_Drivers_Library\boards\MicroBit\obj\zfp_lib_Debug\libada_drivers_library.a(nrf51-ppi.o)
 .bss           0x0000000000000000        0x0 D:\programming\ada_projects\Ada_Drivers_Library\boards\MicroBit\obj\zfp_lib_Debug\libada_drivers_library.a(nrf51-ppi.o)
 .text.nrf51__ppi__disable_channel
                0x0000000000000000       0x70 D:\programming\ada_projects\Ada_Drivers_Library\boards\MicroBit\obj\zfp_lib_Debug\libada_drivers_library.a(nrf51-ppi.o)
 .text.nrf51__ppi__add_to_group
                0x0000000000000000       0x94 D:\programming\ada_projects\Ada_Drivers_Library\boards\MicroBit\obj\zfp_lib_Debug\libada_drivers_library.a(nrf51-ppi.o)
 .text.nrf51__ppi__remove_from_group
                0x0000000000000000       0x98 D:\programming\ada_projects\Ada_Drivers_Library\boards\MicroBit\obj\zfp_lib_Debug\libada_drivers_library.a(nrf51-ppi.o)
 .text.nrf51__ppi__enable_group
                0x0000000000000000       0x30 D:\programming\ada_projects\Ada_Drivers_Library\boards\MicroBit\obj\zfp_lib_Debug\libada_drivers_library.a(nrf51-ppi.o)
 .text.nrf51__ppi__disable_group
                0x0000000000000000       0x34 D:\programming\ada_projects\Ada_Drivers_Library\boards\MicroBit\obj\zfp_lib_Debug\libada_drivers_library.a(nrf51-ppi.o)
 .text          0x0000000000000000        0x0 D:\programming\ada_projects\Ada_Drivers_Library\boards\MicroBit\obj\zfp_lib_Debug\libada_drivers_library.a(nrf51-rtc.o)
 .data          0x0000000000000000        0x0 D:\programming\ada_projects\Ada_Drivers_Library\boards\MicroBit\obj\zfp_lib_Debug\libada_drivers_library.a(nrf51-rtc.o)
 .bss           0x0000000000000000        0x0 D:\programming\ada_projects\Ada_Drivers_Library\boards\MicroBit\obj\zfp_lib_Debug\libada_drivers_library.a(nrf51-rtc.o)
 .text.nrf51__rtc__counter
                0x0000000000000000       0x24 D:\programming\ada_projects\Ada_Drivers_Library\boards\MicroBit\obj\zfp_lib_Debug\libada_drivers_library.a(nrf51-rtc.o)
 .text.nrf51__rtc__event
                0x0000000000000000       0x78 D:\programming\ada_projects\Ada_Drivers_Library\boards\MicroBit\obj\zfp_lib_Debug\libada_drivers_library.a(nrf51-rtc.o)
 .rodata.nrf51__rtc__event
                0x0000000000000000       0x14 D:\programming\ada_projects\Ada_Drivers_Library\boards\MicroBit\obj\zfp_lib_Debug\libada_drivers_library.a(nrf51-rtc.o)
 .text.nrf51__rtc__disable_event
                0x0000000000000000      0x220 D:\programming\ada_projects\Ada_Drivers_Library\boards\MicroBit\obj\zfp_lib_Debug\libada_drivers_library.a(nrf51-rtc.o)
 .rodata.nrf51__rtc__disable_event
                0x0000000000000000       0x14 D:\programming\ada_projects\Ada_Drivers_Library\boards\MicroBit\obj\zfp_lib_Debug\libada_drivers_library.a(nrf51-rtc.o)
 .text          0x0000000000000000        0x0 D:\programming\ada_projects\Ada_Drivers_Library\boards\MicroBit\obj\zfp_lib_Debug\libada_drivers_library.a(nrf51-tasks.o)
 .data          0x0000000000000000        0x0 D:\programming\ada_projects\Ada_Drivers_Library\boards\MicroBit\obj\zfp_lib_Debug\libada_drivers_library.a(nrf51-tasks.o)
 .bss           0x0000000000000000        0x0 D:\programming\ada_projects\Ada_Drivers_Library\boards\MicroBit\obj\zfp_lib_Debug\libada_drivers_library.a(nrf51-tasks.o)
 .text.nrf51__tasks__get_address
                0x0000000000000000       0x14 D:\programming\ada_projects\Ada_Drivers_Library\boards\MicroBit\obj\zfp_lib_Debug\libada_drivers_library.a(nrf51-tasks.o)
 .rodata.nrf51__tasks__power_constlat
                0x0000000000000000        0x4 D:\programming\ada_projects\Ada_Drivers_Library\boards\MicroBit\obj\zfp_lib_Debug\libada_drivers_library.a(nrf51-tasks.o)
 .rodata.nrf51__tasks__power_lowpwr
                0x0000000000000000        0x4 D:\programming\ada_projects\Ada_Drivers_Library\boards\MicroBit\obj\zfp_lib_Debug\libada_drivers_library.a(nrf51-tasks.o)
 .rodata.nrf51__tasks__clock_hfclkstart
                0x0000000000000000        0x4 D:\programming\ada_projects\Ada_Drivers_Library\boards\MicroBit\obj\zfp_lib_Debug\libada_drivers_library.a(nrf51-tasks.o)
 .rodata.nrf51__tasks__clock_hfclkstop
                0x0000000000000000        0x4 D:\programming\ada_projects\Ada_Drivers_Library\boards\MicroBit\obj\zfp_lib_Debug\libada_drivers_library.a(nrf51-tasks.o)
 .rodata.nrf51__tasks__clock_lfclkstart
                0x0000000000000000        0x4 D:\programming\ada_projects\Ada_Drivers_Library\boards\MicroBit\obj\zfp_lib_Debug\libada_drivers_library.a(nrf51-tasks.o)
 .rodata.nrf51__tasks__clock_lfclkstop
                0x0000000000000000        0x4 D:\programming\ada_projects\Ada_Drivers_Library\boards\MicroBit\obj\zfp_lib_Debug\libada_drivers_library.a(nrf51-tasks.o)
 .rodata.nrf51__tasks__clock_cal
                0x0000000000000000        0x4 D:\programming\ada_projects\Ada_Drivers_Library\boards\MicroBit\obj\zfp_lib_Debug\libada_drivers_library.a(nrf51-tasks.o)
 .rodata.nrf51__tasks__clock_ctstart
                0x0000000000000000        0x4 D:\programming\ada_projects\Ada_Drivers_Library\boards\MicroBit\obj\zfp_lib_Debug\libada_drivers_library.a(nrf51-tasks.o)
 .rodata.nrf51__tasks__clock_ctstop
                0x0000000000000000        0x4 D:\programming\ada_projects\Ada_Drivers_Library\boards\MicroBit\obj\zfp_lib_Debug\libada_drivers_library.a(nrf51-tasks.o)
 .rodata.nrf51__tasks__gpiote_out_0
                0x0000000000000000        0x4 D:\programming\ada_projects\Ada_Drivers_Library\boards\MicroBit\obj\zfp_lib_Debug\libada_drivers_library.a(nrf51-tasks.o)
 .rodata.nrf51__tasks__gpiote_out_1
                0x0000000000000000        0x4 D:\programming\ada_projects\Ada_Drivers_Library\boards\MicroBit\obj\zfp_lib_Debug\libada_drivers_library.a(nrf51-tasks.o)
 .rodata.nrf51__tasks__gpiote_out_2
                0x0000000000000000        0x4 D:\programming\ada_projects\Ada_Drivers_Library\boards\MicroBit\obj\zfp_lib_Debug\libada_drivers_library.a(nrf51-tasks.o)
 .rodata.nrf51__tasks__gpiote_out_3
                0x0000000000000000        0x4 D:\programming\ada_projects\Ada_Drivers_Library\boards\MicroBit\obj\zfp_lib_Debug\libada_drivers_library.a(nrf51-tasks.o)
 .rodata.nrf51__tasks__ppi_chg_0_en
                0x0000000000000000        0x4 D:\programming\ada_projects\Ada_Drivers_Library\boards\MicroBit\obj\zfp_lib_Debug\libada_drivers_library.a(nrf51-tasks.o)
 .rodata.nrf51__tasks__ppi_chg_0_dis
                0x0000000000000000        0x4 D:\programming\ada_projects\Ada_Drivers_Library\boards\MicroBit\obj\zfp_lib_Debug\libada_drivers_library.a(nrf51-tasks.o)
 .rodata.nrf51__tasks__ppi_chg_1_en
                0x0000000000000000        0x4 D:\programming\ada_projects\Ada_Drivers_Library\boards\MicroBit\obj\zfp_lib_Debug\libada_drivers_library.a(nrf51-tasks.o)
 .rodata.nrf51__tasks__ppi_chg_1_dis
                0x0000000000000000        0x4 D:\programming\ada_projects\Ada_Drivers_Library\boards\MicroBit\obj\zfp_lib_Debug\libada_drivers_library.a(nrf51-tasks.o)
 .rodata.nrf51__tasks__ppi_chg_2_en
                0x0000000000000000        0x4 D:\programming\ada_projects\Ada_Drivers_Library\boards\MicroBit\obj\zfp_lib_Debug\libada_drivers_library.a(nrf51-tasks.o)
 .rodata.nrf51__tasks__ppi_chg_2_dis
                0x0000000000000000        0x4 D:\programming\ada_projects\Ada_Drivers_Library\boards\MicroBit\obj\zfp_lib_Debug\libada_drivers_library.a(nrf51-tasks.o)
 .rodata.nrf51__tasks__ppi_chg_3_en
                0x0000000000000000        0x4 D:\programming\ada_projects\Ada_Drivers_Library\boards\MicroBit\obj\zfp_lib_Debug\libada_drivers_library.a(nrf51-tasks.o)
 .rodata.nrf51__tasks__ppi_chg_3_dis
                0x0000000000000000        0x4 D:\programming\ada_projects\Ada_Drivers_Library\boards\MicroBit\obj\zfp_lib_Debug\libada_drivers_library.a(nrf51-tasks.o)
 .rodata.nrf51__tasks__radio_txen
                0x0000000000000000        0x4 D:\programming\ada_projects\Ada_Drivers_Library\boards\MicroBit\obj\zfp_lib_Debug\libada_drivers_library.a(nrf51-tasks.o)
 .rodata.nrf51__tasks__radio_rxen
                0x0000000000000000        0x4 D:\programming\ada_projects\Ada_Drivers_Library\boards\MicroBit\obj\zfp_lib_Debug\libada_drivers_library.a(nrf51-tasks.o)
 .rodata.nrf51__tasks__radio_start
                0x0000000000000000        0x4 D:\programming\ada_projects\Ada_Drivers_Library\boards\MicroBit\obj\zfp_lib_Debug\libada_drivers_library.a(nrf51-tasks.o)
 .rodata.nrf51__tasks__radio_stop
                0x0000000000000000        0x4 D:\programming\ada_projects\Ada_Drivers_Library\boards\MicroBit\obj\zfp_lib_Debug\libada_drivers_library.a(nrf51-tasks.o)
 .rodata.nrf51__tasks__radio_disable
                0x0000000000000000        0x4 D:\programming\ada_projects\Ada_Drivers_Library\boards\MicroBit\obj\zfp_lib_Debug\libada_drivers_library.a(nrf51-tasks.o)
 .rodata.nrf51__tasks__radio_rssistart
                0x0000000000000000        0x4 D:\programming\ada_projects\Ada_Drivers_Library\boards\MicroBit\obj\zfp_lib_Debug\libada_drivers_library.a(nrf51-tasks.o)
 .rodata.nrf51__tasks__radio_rssistop
                0x0000000000000000        0x4 D:\programming\ada_projects\Ada_Drivers_Library\boards\MicroBit\obj\zfp_lib_Debug\libada_drivers_library.a(nrf51-tasks.o)
 .rodata.nrf51__tasks__radio_bcstart
                0x0000000000000000        0x4 D:\programming\ada_projects\Ada_Drivers_Library\boards\MicroBit\obj\zfp_lib_Debug\libada_drivers_library.a(nrf51-tasks.o)
 .rodata.nrf51__tasks__radio_bcstop
                0x0000000000000000        0x4 D:\programming\ada_projects\Ada_Drivers_Library\boards\MicroBit\obj\zfp_lib_Debug\libada_drivers_library.a(nrf51-tasks.o)
 .rodata.nrf51__tasks__timer_0_start
                0x0000000000000000        0x4 D:\programming\ada_projects\Ada_Drivers_Library\boards\MicroBit\obj\zfp_lib_Debug\libada_drivers_library.a(nrf51-tasks.o)
 .rodata.nrf51__tasks__timer_0_stop
                0x0000000000000000        0x4 D:\programming\ada_projects\Ada_Drivers_Library\boards\MicroBit\obj\zfp_lib_Debug\libada_drivers_library.a(nrf51-tasks.o)
 .rodata.nrf51__tasks__timer_0_count
                0x0000000000000000        0x4 D:\programming\ada_projects\Ada_Drivers_Library\boards\MicroBit\obj\zfp_lib_Debug\libada_drivers_library.a(nrf51-tasks.o)
 .rodata.nrf51__tasks__timer_0_clear
                0x0000000000000000        0x4 D:\programming\ada_projects\Ada_Drivers_Library\boards\MicroBit\obj\zfp_lib_Debug\libada_drivers_library.a(nrf51-tasks.o)
 .rodata.nrf51__tasks__timer_0_capture_0
                0x0000000000000000        0x4 D:\programming\ada_projects\Ada_Drivers_Library\boards\MicroBit\obj\zfp_lib_Debug\libada_drivers_library.a(nrf51-tasks.o)
 .rodata.nrf51__tasks__timer_0_capture_1
                0x0000000000000000        0x4 D:\programming\ada_projects\Ada_Drivers_Library\boards\MicroBit\obj\zfp_lib_Debug\libada_drivers_library.a(nrf51-tasks.o)
 .rodata.nrf51__tasks__timer_0_capture_2
                0x0000000000000000        0x4 D:\programming\ada_projects\Ada_Drivers_Library\boards\MicroBit\obj\zfp_lib_Debug\libada_drivers_library.a(nrf51-tasks.o)
 .rodata.nrf51__tasks__timer_0_capture_3
                0x0000000000000000        0x4 D:\programming\ada_projects\Ada_Drivers_Library\boards\MicroBit\obj\zfp_lib_Debug\libada_drivers_library.a(nrf51-tasks.o)
 .rodata.nrf51__tasks__timer_1_start
                0x0000000000000000        0x4 D:\programming\ada_projects\Ada_Drivers_Library\boards\MicroBit\obj\zfp_lib_Debug\libada_drivers_library.a(nrf51-tasks.o)
 .rodata.nrf51__tasks__timer_1_stop
                0x0000000000000000        0x4 D:\programming\ada_projects\Ada_Drivers_Library\boards\MicroBit\obj\zfp_lib_Debug\libada_drivers_library.a(nrf51-tasks.o)
 .rodata.nrf51__tasks__timer_1_count
                0x0000000000000000        0x4 D:\programming\ada_projects\Ada_Drivers_Library\boards\MicroBit\obj\zfp_lib_Debug\libada_drivers_library.a(nrf51-tasks.o)
 .rodata.nrf51__tasks__timer_1_clear
                0x0000000000000000        0x4 D:\programming\ada_projects\Ada_Drivers_Library\boards\MicroBit\obj\zfp_lib_Debug\libada_drivers_library.a(nrf51-tasks.o)
 .rodata.nrf51__tasks__timer_1_capture_0
                0x0000000000000000        0x4 D:\programming\ada_projects\Ada_Drivers_Library\boards\MicroBit\obj\zfp_lib_Debug\libada_drivers_library.a(nrf51-tasks.o)
 .rodata.nrf51__tasks__timer_1_capture_1
                0x0000000000000000        0x4 D:\programming\ada_projects\Ada_Drivers_Library\boards\MicroBit\obj\zfp_lib_Debug\libada_drivers_library.a(nrf51-tasks.o)
 .rodata.nrf51__tasks__timer_1_capture_2
                0x0000000000000000        0x4 D:\programming\ada_projects\Ada_Drivers_Library\boards\MicroBit\obj\zfp_lib_Debug\libada_drivers_library.a(nrf51-tasks.o)
 .rodata.nrf51__tasks__timer_1_capture_3
                0x0000000000000000        0x4 D:\programming\ada_projects\Ada_Drivers_Library\boards\MicroBit\obj\zfp_lib_Debug\libada_drivers_library.a(nrf51-tasks.o)
 .rodata.nrf51__tasks__timer_2_start
                0x0000000000000000        0x4 D:\programming\ada_projects\Ada_Drivers_Library\boards\MicroBit\obj\zfp_lib_Debug\libada_drivers_library.a(nrf51-tasks.o)
 .rodata.nrf51__tasks__timer_2_stop
                0x0000000000000000        0x4 D:\programming\ada_projects\Ada_Drivers_Library\boards\MicroBit\obj\zfp_lib_Debug\libada_drivers_library.a(nrf51-tasks.o)
 .rodata.nrf51__tasks__timer_2_count
                0x0000000000000000        0x4 D:\programming\ada_projects\Ada_Drivers_Library\boards\MicroBit\obj\zfp_lib_Debug\libada_drivers_library.a(nrf51-tasks.o)
 .rodata.nrf51__tasks__timer_2_clear
                0x0000000000000000        0x4 D:\programming\ada_projects\Ada_Drivers_Library\boards\MicroBit\obj\zfp_lib_Debug\libada_drivers_library.a(nrf51-tasks.o)
 .rodata.nrf51__tasks__timer_2_capture_0
                0x0000000000000000        0x4 D:\programming\ada_projects\Ada_Drivers_Library\boards\MicroBit\obj\zfp_lib_Debug\libada_drivers_library.a(nrf51-tasks.o)
 .rodata.nrf51__tasks__timer_2_capture_1
                0x0000000000000000        0x4 D:\programming\ada_projects\Ada_Drivers_Library\boards\MicroBit\obj\zfp_lib_Debug\libada_drivers_library.a(nrf51-tasks.o)
 .rodata.nrf51__tasks__timer_2_capture_2
                0x0000000000000000        0x4 D:\programming\ada_projects\Ada_Drivers_Library\boards\MicroBit\obj\zfp_lib_Debug\libada_drivers_library.a(nrf51-tasks.o)
 .rodata.nrf51__tasks__timer_2_capture_3
                0x0000000000000000        0x4 D:\programming\ada_projects\Ada_Drivers_Library\boards\MicroBit\obj\zfp_lib_Debug\libada_drivers_library.a(nrf51-tasks.o)
 .rodata.nrf51__tasks__rtc_0_start
                0x0000000000000000        0x4 D:\programming\ada_projects\Ada_Drivers_Library\boards\MicroBit\obj\zfp_lib_Debug\libada_drivers_library.a(nrf51-tasks.o)
 .rodata.nrf51__tasks__rtc_0_stop
                0x0000000000000000        0x4 D:\programming\ada_projects\Ada_Drivers_Library\boards\MicroBit\obj\zfp_lib_Debug\libada_drivers_library.a(nrf51-tasks.o)
 .rodata.nrf51__tasks__rtc_0_clear
                0x0000000000000000        0x4 D:\programming\ada_projects\Ada_Drivers_Library\boards\MicroBit\obj\zfp_lib_Debug\libada_drivers_library.a(nrf51-tasks.o)
 .rodata.nrf51__tasks__rtc_0_trigovrflw
                0x0000000000000000        0x4 D:\programming\ada_projects\Ada_Drivers_Library\boards\MicroBit\obj\zfp_lib_Debug\libada_drivers_library.a(nrf51-tasks.o)
 .rodata.nrf51__tasks__rtc_1_start
                0x0000000000000000        0x4 D:\programming\ada_projects\Ada_Drivers_Library\boards\MicroBit\obj\zfp_lib_Debug\libada_drivers_library.a(nrf51-tasks.o)
 .rodata.nrf51__tasks__rtc_1_stop
                0x0000000000000000        0x4 D:\programming\ada_projects\Ada_Drivers_Library\boards\MicroBit\obj\zfp_lib_Debug\libada_drivers_library.a(nrf51-tasks.o)
 .rodata.nrf51__tasks__rtc_1_clear
                0x0000000000000000        0x4 D:\programming\ada_projects\Ada_Drivers_Library\boards\MicroBit\obj\zfp_lib_Debug\libada_drivers_library.a(nrf51-tasks.o)
 .rodata.nrf51__tasks__rtc_1_trigovrflw
                0x0000000000000000        0x4 D:\programming\ada_projects\Ada_Drivers_Library\boards\MicroBit\obj\zfp_lib_Debug\libada_drivers_library.a(nrf51-tasks.o)
 .rodata.nrf51__tasks__watchdog_start
                0x0000000000000000        0x4 D:\programming\ada_projects\Ada_Drivers_Library\boards\MicroBit\obj\zfp_lib_Debug\libada_drivers_library.a(nrf51-tasks.o)
 .rodata.nrf51__tasks__rng_start
                0x0000000000000000        0x4 D:\programming\ada_projects\Ada_Drivers_Library\boards\MicroBit\obj\zfp_lib_Debug\libada_drivers_library.a(nrf51-tasks.o)
 .rodata.nrf51__tasks__rng_stop
                0x0000000000000000        0x4 D:\programming\ada_projects\Ada_Drivers_Library\boards\MicroBit\obj\zfp_lib_Debug\libada_drivers_library.a(nrf51-tasks.o)
 .rodata.nrf51__tasks__temperature_start
                0x0000000000000000        0x4 D:\programming\ada_projects\Ada_Drivers_Library\boards\MicroBit\obj\zfp_lib_Debug\libada_drivers_library.a(nrf51-tasks.o)
 .rodata.nrf51__tasks__temperature_stop
                0x0000000000000000        0x4 D:\programming\ada_projects\Ada_Drivers_Library\boards\MicroBit\obj\zfp_lib_Debug\libada_drivers_library.a(nrf51-tasks.o)
 .rodata.nrf51__tasks__ecb_start
                0x0000000000000000        0x4 D:\programming\ada_projects\Ada_Drivers_Library\boards\MicroBit\obj\zfp_lib_Debug\libada_drivers_library.a(nrf51-tasks.o)
 .rodata.nrf51__tasks__ecb_stop
                0x0000000000000000        0x4 D:\programming\ada_projects\Ada_Drivers_Library\boards\MicroBit\obj\zfp_lib_Debug\libada_drivers_library.a(nrf51-tasks.o)
 .rodata.nrf51__tasks__ccm_ksgen
                0x0000000000000000        0x4 D:\programming\ada_projects\Ada_Drivers_Library\boards\MicroBit\obj\zfp_lib_Debug\libada_drivers_library.a(nrf51-tasks.o)
 .rodata.nrf51__tasks__ccm_crypt
                0x0000000000000000        0x4 D:\programming\ada_projects\Ada_Drivers_Library\boards\MicroBit\obj\zfp_lib_Debug\libada_drivers_library.a(nrf51-tasks.o)
 .rodata.nrf51__tasks__ccm_stop
                0x0000000000000000        0x4 D:\programming\ada_projects\Ada_Drivers_Library\boards\MicroBit\obj\zfp_lib_Debug\libada_drivers_library.a(nrf51-tasks.o)
 .rodata.nrf51__tasks__aar_start
                0x0000000000000000        0x4 D:\programming\ada_projects\Ada_Drivers_Library\boards\MicroBit\obj\zfp_lib_Debug\libada_drivers_library.a(nrf51-tasks.o)
 .rodata.nrf51__tasks__aar_stop
                0x0000000000000000        0x4 D:\programming\ada_projects\Ada_Drivers_Library\boards\MicroBit\obj\zfp_lib_Debug\libada_drivers_library.a(nrf51-tasks.o)
 .rodata.nrf51__tasks__twi_0_startrx
                0x0000000000000000        0x4 D:\programming\ada_projects\Ada_Drivers_Library\boards\MicroBit\obj\zfp_lib_Debug\libada_drivers_library.a(nrf51-tasks.o)
 .rodata.nrf51__tasks__twi_0_starttx
                0x0000000000000000        0x4 D:\programming\ada_projects\Ada_Drivers_Library\boards\MicroBit\obj\zfp_lib_Debug\libada_drivers_library.a(nrf51-tasks.o)
 .rodata.nrf51__tasks__twi_0_stop
                0x0000000000000000        0x4 D:\programming\ada_projects\Ada_Drivers_Library\boards\MicroBit\obj\zfp_lib_Debug\libada_drivers_library.a(nrf51-tasks.o)
 .rodata.nrf51__tasks__twi_0_suspend
                0x0000000000000000        0x4 D:\programming\ada_projects\Ada_Drivers_Library\boards\MicroBit\obj\zfp_lib_Debug\libada_drivers_library.a(nrf51-tasks.o)
 .rodata.nrf51__tasks__twi_0_resume
                0x0000000000000000        0x4 D:\programming\ada_projects\Ada_Drivers_Library\boards\MicroBit\obj\zfp_lib_Debug\libada_drivers_library.a(nrf51-tasks.o)
 .rodata.nrf51__tasks__twi_1_startrx
                0x0000000000000000        0x4 D:\programming\ada_projects\Ada_Drivers_Library\boards\MicroBit\obj\zfp_lib_Debug\libada_drivers_library.a(nrf51-tasks.o)
 .rodata.nrf51__tasks__twi_1_starttx
                0x0000000000000000        0x4 D:\programming\ada_projects\Ada_Drivers_Library\boards\MicroBit\obj\zfp_lib_Debug\libada_drivers_library.a(nrf51-tasks.o)
 .rodata.nrf51__tasks__twi_1_stop
                0x0000000000000000        0x4 D:\programming\ada_projects\Ada_Drivers_Library\boards\MicroBit\obj\zfp_lib_Debug\libada_drivers_library.a(nrf51-tasks.o)
 .rodata.nrf51__tasks__twi_1_suspend
                0x0000000000000000        0x4 D:\programming\ada_projects\Ada_Drivers_Library\boards\MicroBit\obj\zfp_lib_Debug\libada_drivers_library.a(nrf51-tasks.o)
 .rodata.nrf51__tasks__twi_1_resume
                0x0000000000000000        0x4 D:\programming\ada_projects\Ada_Drivers_Library\boards\MicroBit\obj\zfp_lib_Debug\libada_drivers_library.a(nrf51-tasks.o)
 .rodata.nrf51__tasks__uart_startrx
                0x0000000000000000        0x4 D:\programming\ada_projects\Ada_Drivers_Library\boards\MicroBit\obj\zfp_lib_Debug\libada_drivers_library.a(nrf51-tasks.o)
 .rodata.nrf51__tasks__uart_stoprx
                0x0000000000000000        0x4 D:\programming\ada_projects\Ada_Drivers_Library\boards\MicroBit\obj\zfp_lib_Debug\libada_drivers_library.a(nrf51-tasks.o)
 .rodata.nrf51__tasks__uart_starttx
                0x0000000000000000        0x4 D:\programming\ada_projects\Ada_Drivers_Library\boards\MicroBit\obj\zfp_lib_Debug\libada_drivers_library.a(nrf51-tasks.o)
 .rodata.nrf51__tasks__uart_stoptx
                0x0000000000000000        0x4 D:\programming\ada_projects\Ada_Drivers_Library\boards\MicroBit\obj\zfp_lib_Debug\libada_drivers_library.a(nrf51-tasks.o)
 .rodata.nrf51__tasks__qdec_start
                0x0000000000000000        0x4 D:\programming\ada_projects\Ada_Drivers_Library\boards\MicroBit\obj\zfp_lib_Debug\libada_drivers_library.a(nrf51-tasks.o)
 .rodata.nrf51__tasks__qdec_stop
                0x0000000000000000        0x4 D:\programming\ada_projects\Ada_Drivers_Library\boards\MicroBit\obj\zfp_lib_Debug\libada_drivers_library.a(nrf51-tasks.o)
 .rodata.nrf51__tasks__qdec_readclracc
                0x0000000000000000        0x4 D:\programming\ada_projects\Ada_Drivers_Library\boards\MicroBit\obj\zfp_lib_Debug\libada_drivers_library.a(nrf51-tasks.o)
 .rodata.nrf51__tasks__adc_start
                0x0000000000000000        0x4 D:\programming\ada_projects\Ada_Drivers_Library\boards\MicroBit\obj\zfp_lib_Debug\libada_drivers_library.a(nrf51-tasks.o)
 .rodata.nrf51__tasks__adc_stop
                0x0000000000000000        0x4 D:\programming\ada_projects\Ada_Drivers_Library\boards\MicroBit\obj\zfp_lib_Debug\libada_drivers_library.a(nrf51-tasks.o)
 .text          0x0000000000000000        0x0 D:\programming\ada_projects\Ada_Drivers_Library\boards\MicroBit\obj\zfp_lib_Debug\libada_drivers_library.a(nrf51-timers.o)
 .data          0x0000000000000000        0x0 D:\programming\ada_projects\Ada_Drivers_Library\boards\MicroBit\obj\zfp_lib_Debug\libada_drivers_library.a(nrf51-timers.o)
 .bss           0x0000000000000000        0x0 D:\programming\ada_projects\Ada_Drivers_Library\boards\MicroBit\obj\zfp_lib_Debug\libada_drivers_library.a(nrf51-timers.o)
 .rodata.nrf51__timers__timerP
                0x0000000000000000        0x4 D:\programming\ada_projects\Ada_Drivers_Library\boards\MicroBit\obj\zfp_lib_Debug\libada_drivers_library.a(nrf51-timers.o)
 .rodata.nrf51__timers__timerY
                0x0000000000000000        0x4 D:\programming\ada_projects\Ada_Drivers_Library\boards\MicroBit\obj\zfp_lib_Debug\libada_drivers_library.a(nrf51-timers.o)
 .rodata.nrf51__timers__timerR23s
                0x0000000000000000        0x4 D:\programming\ada_projects\Ada_Drivers_Library\boards\MicroBit\obj\zfp_lib_Debug\libada_drivers_library.a(nrf51-timers.o)
 .text          0x0000000000000000        0x0 D:\programming\ada_projects\Ada_Drivers_Library\boards\MicroBit\obj\zfp_lib_Debug\libada_drivers_library.a(nrf51-twi.o)
 .data          0x0000000000000000        0x0 D:\programming\ada_projects\Ada_Drivers_Library\boards\MicroBit\obj\zfp_lib_Debug\libada_drivers_library.a(nrf51-twi.o)
 .bss           0x0000000000000000        0x0 D:\programming\ada_projects\Ada_Drivers_Library\boards\MicroBit\obj\zfp_lib_Debug\libada_drivers_library.a(nrf51-twi.o)
 .rodata.nrf51__twi__twi_masterP
                0x0000000000000000        0x4 D:\programming\ada_projects\Ada_Drivers_Library\boards\MicroBit\obj\zfp_lib_Debug\libada_drivers_library.a(nrf51-twi.o)
 .rodata.nrf51__twi__twi_masterY
                0x0000000000000000        0x4 D:\programming\ada_projects\Ada_Drivers_Library\boards\MicroBit\obj\zfp_lib_Debug\libada_drivers_library.a(nrf51-twi.o)
 .rodata.nrf51__twi__twi_masterR26s
                0x0000000000000000        0x4 D:\programming\ada_projects\Ada_Drivers_Library\boards\MicroBit\obj\zfp_lib_Debug\libada_drivers_library.a(nrf51-twi.o)
 .text          0x0000000000000000        0x0 D:\programming\ada_projects\Ada_Drivers_Library\boards\MicroBit\obj\zfp_lib_Debug\libada_drivers_library.a(nrf51_svd-gpio.o)
 .data          0x0000000000000000        0x0 D:\programming\ada_projects\Ada_Drivers_Library\boards\MicroBit\obj\zfp_lib_Debug\libada_drivers_library.a(nrf51_svd-gpio.o)
 .bss           0x0000000000000000        0x0 D:\programming\ada_projects\Ada_Drivers_Library\boards\MicroBit\obj\zfp_lib_Debug\libada_drivers_library.a(nrf51_svd-gpio.o)
 .text.nrf51_svd__gpio__pin_cnf_sense_fieldRP
                0x0000000000000000       0x3c D:\programming\ada_projects\Ada_Drivers_Library\boards\MicroBit\obj\zfp_lib_Debug\libada_drivers_library.a(nrf51_svd-gpio.o)
 .text.nrf51_svd__gpio__Tout_pin_field_arrayBIP
                0x0000000000000000       0x10 D:\programming\ada_projects\Ada_Drivers_Library\boards\MicroBit\obj\zfp_lib_Debug\libada_drivers_library.a(nrf51_svd-gpio.o)
 .text.nrf51_svd__gpio__out_registerEQ__E35s.4755
                0x0000000000000000       0x40 D:\programming\ada_projects\Ada_Drivers_Library\boards\MicroBit\obj\zfp_lib_Debug\libada_drivers_library.a(nrf51_svd-gpio.o)
 .text.nrf51_svd__gpio__out_registerEQ
                0x0000000000000000       0x80 D:\programming\ada_projects\Ada_Drivers_Library\boards\MicroBit\obj\zfp_lib_Debug\libada_drivers_library.a(nrf51_svd-gpio.o)
 .text.nrf51_svd__gpio__out_registerIP
                0x0000000000000000       0x14 D:\programming\ada_projects\Ada_Drivers_Library\boards\MicroBit\obj\zfp_lib_Debug\libada_drivers_library.a(nrf51_svd-gpio.o)
 .text.nrf51_svd__gpio__Toutset_pin_field_arrayBIP
                0x0000000000000000       0x10 D:\programming\ada_projects\Ada_Drivers_Library\boards\MicroBit\obj\zfp_lib_Debug\libada_drivers_library.a(nrf51_svd-gpio.o)
 .text.nrf51_svd__gpio__outset_registerEQ__E48s.4762
                0x0000000000000000       0x40 D:\programming\ada_projects\Ada_Drivers_Library\boards\MicroBit\obj\zfp_lib_Debug\libada_drivers_library.a(nrf51_svd-gpio.o)
 .text.nrf51_svd__gpio__outset_registerEQ
                0x0000000000000000       0x80 D:\programming\ada_projects\Ada_Drivers_Library\boards\MicroBit\obj\zfp_lib_Debug\libada_drivers_library.a(nrf51_svd-gpio.o)
 .text.nrf51_svd__gpio__outset_registerIP
                0x0000000000000000       0x14 D:\programming\ada_projects\Ada_Drivers_Library\boards\MicroBit\obj\zfp_lib_Debug\libada_drivers_library.a(nrf51_svd-gpio.o)
 .text.nrf51_svd__gpio__Toutclr_pin_field_arrayBIP
                0x0000000000000000       0x10 D:\programming\ada_projects\Ada_Drivers_Library\boards\MicroBit\obj\zfp_lib_Debug\libada_drivers_library.a(nrf51_svd-gpio.o)
 .text.nrf51_svd__gpio__outclr_registerEQ__E61s.4769
                0x0000000000000000       0x40 D:\programming\ada_projects\Ada_Drivers_Library\boards\MicroBit\obj\zfp_lib_Debug\libada_drivers_library.a(nrf51_svd-gpio.o)
 .text.nrf51_svd__gpio__outclr_registerEQ
                0x0000000000000000       0x80 D:\programming\ada_projects\Ada_Drivers_Library\boards\MicroBit\obj\zfp_lib_Debug\libada_drivers_library.a(nrf51_svd-gpio.o)
 .text.nrf51_svd__gpio__outclr_registerIP
                0x0000000000000000       0x14 D:\programming\ada_projects\Ada_Drivers_Library\boards\MicroBit\obj\zfp_lib_Debug\libada_drivers_library.a(nrf51_svd-gpio.o)
 .text.nrf51_svd__gpio__Tin_pin_field_arrayBIP
                0x0000000000000000       0x10 D:\programming\ada_projects\Ada_Drivers_Library\boards\MicroBit\obj\zfp_lib_Debug\libada_drivers_library.a(nrf51_svd-gpio.o)
 .text.nrf51_svd__gpio__in_registerEQ__E74s.4776
                0x0000000000000000       0x40 D:\programming\ada_projects\Ada_Drivers_Library\boards\MicroBit\obj\zfp_lib_Debug\libada_drivers_library.a(nrf51_svd-gpio.o)
 .text.nrf51_svd__gpio__in_registerEQ
                0x0000000000000000       0x80 D:\programming\ada_projects\Ada_Drivers_Library\boards\MicroBit\obj\zfp_lib_Debug\libada_drivers_library.a(nrf51_svd-gpio.o)
 .text.nrf51_svd__gpio__in_registerIP
                0x0000000000000000       0x14 D:\programming\ada_projects\Ada_Drivers_Library\boards\MicroBit\obj\zfp_lib_Debug\libada_drivers_library.a(nrf51_svd-gpio.o)
 .text.nrf51_svd__gpio__Tdir_pin_field_arrayBIP
                0x0000000000000000       0x10 D:\programming\ada_projects\Ada_Drivers_Library\boards\MicroBit\obj\zfp_lib_Debug\libada_drivers_library.a(nrf51_svd-gpio.o)
 .text.nrf51_svd__gpio__dir_registerEQ__E87s.4783
                0x0000000000000000       0x40 D:\programming\ada_projects\Ada_Drivers_Library\boards\MicroBit\obj\zfp_lib_Debug\libada_drivers_library.a(nrf51_svd-gpio.o)
 .text.nrf51_svd__gpio__dir_registerEQ
                0x0000000000000000       0x80 D:\programming\ada_projects\Ada_Drivers_Library\boards\MicroBit\obj\zfp_lib_Debug\libada_drivers_library.a(nrf51_svd-gpio.o)
 .text.nrf51_svd__gpio__dir_registerIP
                0x0000000000000000       0x14 D:\programming\ada_projects\Ada_Drivers_Library\boards\MicroBit\obj\zfp_lib_Debug\libada_drivers_library.a(nrf51_svd-gpio.o)
 .text.nrf51_svd__gpio__Tdirset_pin_field_arrayBIP
                0x0000000000000000       0x10 D:\programming\ada_projects\Ada_Drivers_Library\boards\MicroBit\obj\zfp_lib_Debug\libada_drivers_library.a(nrf51_svd-gpio.o)
 .text.nrf51_svd__gpio__dirset_registerEQ__E100s.4790
                0x0000000000000000       0x40 D:\programming\ada_projects\Ada_Drivers_Library\boards\MicroBit\obj\zfp_lib_Debug\libada_drivers_library.a(nrf51_svd-gpio.o)
 .text.nrf51_svd__gpio__dirset_registerEQ
                0x0000000000000000       0x80 D:\programming\ada_projects\Ada_Drivers_Library\boards\MicroBit\obj\zfp_lib_Debug\libada_drivers_library.a(nrf51_svd-gpio.o)
 .text.nrf51_svd__gpio__dirset_registerIP
                0x0000000000000000       0x14 D:\programming\ada_projects\Ada_Drivers_Library\boards\MicroBit\obj\zfp_lib_Debug\libada_drivers_library.a(nrf51_svd-gpio.o)
 .text.nrf51_svd__gpio__Tdirclr_pin_field_arrayBIP
                0x0000000000000000       0x10 D:\programming\ada_projects\Ada_Drivers_Library\boards\MicroBit\obj\zfp_lib_Debug\libada_drivers_library.a(nrf51_svd-gpio.o)
 .text.nrf51_svd__gpio__dirclr_registerEQ__E113s.4797
                0x0000000000000000       0x40 D:\programming\ada_projects\Ada_Drivers_Library\boards\MicroBit\obj\zfp_lib_Debug\libada_drivers_library.a(nrf51_svd-gpio.o)
 .text.nrf51_svd__gpio__dirclr_registerEQ
                0x0000000000000000       0x80 D:\programming\ada_projects\Ada_Drivers_Library\boards\MicroBit\obj\zfp_lib_Debug\libada_drivers_library.a(nrf51_svd-gpio.o)
 .text.nrf51_svd__gpio__dirclr_registerIP
                0x0000000000000000       0x14 D:\programming\ada_projects\Ada_Drivers_Library\boards\MicroBit\obj\zfp_lib_Debug\libada_drivers_library.a(nrf51_svd-gpio.o)
 .text.nrf51_svd__gpio__pin_cnf_registerIP
                0x0000000000000000       0x8c D:\programming\ada_projects\Ada_Drivers_Library\boards\MicroBit\obj\zfp_lib_Debug\libada_drivers_library.a(nrf51_svd-gpio.o)
 .text.nrf51_svd__gpio__Tpin_cnf_registersBIP
                0x0000000000000000       0x3c D:\programming\ada_projects\Ada_Drivers_Library\boards\MicroBit\obj\zfp_lib_Debug\libada_drivers_library.a(nrf51_svd-gpio.o)
 .rodata        0x0000000000000000       0x1c D:\programming\ada_projects\Ada_Drivers_Library\boards\MicroBit\obj\zfp_lib_Debug\libada_drivers_library.a(nrf51_svd-gpio.o)
 .text.nrf51_svd__gpio__gpio_peripheralEQ
                0x0000000000000000       0x20 D:\programming\ada_projects\Ada_Drivers_Library\boards\MicroBit\obj\zfp_lib_Debug\libada_drivers_library.a(nrf51_svd-gpio.o)
 .text.nrf51_svd__gpio__gpio_peripheralIP
                0x0000000000000000       0xb0 D:\programming\ada_projects\Ada_Drivers_Library\boards\MicroBit\obj\zfp_lib_Debug\libada_drivers_library.a(nrf51_svd-gpio.o)
 .rodata.nrf51_svd__gpio__pin_cnf_pull_fieldA
                0x0000000000000000        0x4 D:\programming\ada_projects\Ada_Drivers_Library\boards\MicroBit\obj\zfp_lib_Debug\libada_drivers_library.a(nrf51_svd-gpio.o)
 .rodata.nrf51_svd__gpio__pin_cnf_sense_fieldA
                0x0000000000000000        0x4 D:\programming\ada_projects\Ada_Drivers_Library\boards\MicroBit\obj\zfp_lib_Debug\libada_drivers_library.a(nrf51_svd-gpio.o)
 .rodata.nrf51_svd__gpio__gpio_periph
                0x0000000000000000        0x4 D:\programming\ada_projects\Ada_Drivers_Library\boards\MicroBit\obj\zfp_lib_Debug\libada_drivers_library.a(nrf51_svd-gpio.o)
 .text          0x0000000000000000        0x0 D:\programming\ada_projects\Ada_Drivers_Library\boards\MicroBit\obj\zfp_lib_Debug\libada_drivers_library.a(nrf51_svd-twi.o)
 .data          0x0000000000000000        0x0 D:\programming\ada_projects\Ada_Drivers_Library\boards\MicroBit\obj\zfp_lib_Debug\libada_drivers_library.a(nrf51_svd-twi.o)
 .bss           0x0000000000000000        0x0 D:\programming\ada_projects\Ada_Drivers_Library\boards\MicroBit\obj\zfp_lib_Debug\libada_drivers_library.a(nrf51_svd-twi.o)
 .text.nrf51_svd__twi__enable_enable_fieldRP
                0x0000000000000000       0x34 D:\programming\ada_projects\Ada_Drivers_Library\boards\MicroBit\obj\zfp_lib_Debug\libada_drivers_library.a(nrf51_svd-twi.o)
 .text.nrf51_svd__twi__shorts_registerIP
                0x0000000000000000       0x38 D:\programming\ada_projects\Ada_Drivers_Library\boards\MicroBit\obj\zfp_lib_Debug\libada_drivers_library.a(nrf51_svd-twi.o)
 .text.nrf51_svd__twi__intenset_registerIP
                0x0000000000000000       0xd0 D:\programming\ada_projects\Ada_Drivers_Library\boards\MicroBit\obj\zfp_lib_Debug\libada_drivers_library.a(nrf51_svd-twi.o)
 .text.nrf51_svd__twi__intenclr_registerIP
                0x0000000000000000       0xd0 D:\programming\ada_projects\Ada_Drivers_Library\boards\MicroBit\obj\zfp_lib_Debug\libada_drivers_library.a(nrf51_svd-twi.o)
 .text.nrf51_svd__twi__enable_registerIP
                0x0000000000000000       0x2c D:\programming\ada_projects\Ada_Drivers_Library\boards\MicroBit\obj\zfp_lib_Debug\libada_drivers_library.a(nrf51_svd-twi.o)
 .text.nrf51_svd__twi__rxd_registerIP
                0x0000000000000000       0x10 D:\programming\ada_projects\Ada_Drivers_Library\boards\MicroBit\obj\zfp_lib_Debug\libada_drivers_library.a(nrf51_svd-twi.o)
 .text.nrf51_svd__twi__txd_registerIP
                0x0000000000000000       0x2c D:\programming\ada_projects\Ada_Drivers_Library\boards\MicroBit\obj\zfp_lib_Debug\libada_drivers_library.a(nrf51_svd-twi.o)
 .text.nrf51_svd__twi__address_registerIP
                0x0000000000000000       0x2c D:\programming\ada_projects\Ada_Drivers_Library\boards\MicroBit\obj\zfp_lib_Debug\libada_drivers_library.a(nrf51_svd-twi.o)
 .text.nrf51_svd__twi__power_registerIP
                0x0000000000000000       0x2c D:\programming\ada_projects\Ada_Drivers_Library\boards\MicroBit\obj\zfp_lib_Debug\libada_drivers_library.a(nrf51_svd-twi.o)
 .text.nrf51_svd__twi__twi_peripheralIP
                0x0000000000000000       0x94 D:\programming\ada_projects\Ada_Drivers_Library\boards\MicroBit\obj\zfp_lib_Debug\libada_drivers_library.a(nrf51_svd-twi.o)
 .rodata.nrf51_svd__twi__enable_enable_fieldA
                0x0000000000000000        0x2 D:\programming\ada_projects\Ada_Drivers_Library\boards\MicroBit\obj\zfp_lib_Debug\libada_drivers_library.a(nrf51_svd-twi.o)
 .rodata.nrf51_svd__twi__twi0_periph
                0x0000000000000000        0x4 D:\programming\ada_projects\Ada_Drivers_Library\boards\MicroBit\obj\zfp_lib_Debug\libada_drivers_library.a(nrf51_svd-twi.o)
 .rodata.nrf51_svd__twi__twi1_periph
                0x0000000000000000        0x4 D:\programming\ada_projects\Ada_Drivers_Library\boards\MicroBit\obj\zfp_lib_Debug\libada_drivers_library.a(nrf51_svd-twi.o)
 .text          0x0000000000000000        0x0 D:\programming\ada_projects\Ada_Drivers_Library\boards\MicroBit\obj\zfp_lib_Debug\libada_drivers_library.a(hal-gpio.o)
 .data          0x0000000000000000        0x0 D:\programming\ada_projects\Ada_Drivers_Library\boards\MicroBit\obj\zfp_lib_Debug\libada_drivers_library.a(hal-gpio.o)
 .bss           0x0000000000000000        0x0 D:\programming\ada_projects\Ada_Drivers_Library\boards\MicroBit\obj\zfp_lib_Debug\libada_drivers_library.a(hal-gpio.o)
 .data.hal__gpio_E
                0x0000000000000000        0x2 D:\programming\ada_projects\Ada_Drivers_Library\boards\MicroBit\obj\zfp_lib_Debug\libada_drivers_library.a(hal-gpio.o)
 .rodata.hal__gpio__gpio_pointP
                0x0000000000000000        0x4 D:\programming\ada_projects\Ada_Drivers_Library\boards\MicroBit\obj\zfp_lib_Debug\libada_drivers_library.a(hal-gpio.o)
 .text          0x0000000000000000        0x0 D:\programming\ada_projects\Ada_Drivers_Library\boards\MicroBit\obj\zfp_lib_Debug\libada_drivers_library.a(hal-i2c.o)
 .data          0x0000000000000000        0x0 D:\programming\ada_projects\Ada_Drivers_Library\boards\MicroBit\obj\zfp_lib_Debug\libada_drivers_library.a(hal-i2c.o)
 .bss           0x0000000000000000        0x0 D:\programming\ada_projects\Ada_Drivers_Library\boards\MicroBit\obj\zfp_lib_Debug\libada_drivers_library.a(hal-i2c.o)
 .data.hal__i2c_E
                0x0000000000000000        0x2 D:\programming\ada_projects\Ada_Drivers_Library\boards\MicroBit\obj\zfp_lib_Debug\libada_drivers_library.a(hal-i2c.o)
 .rodata.hal__i2c__i2c_portP
                0x0000000000000000        0x4 D:\programming\ada_projects\Ada_Drivers_Library\boards\MicroBit\obj\zfp_lib_Debug\libada_drivers_library.a(hal-i2c.o)
 .text          0x0000000000000000        0x0 D:\programming\ada_projects\Ada_Drivers_Library\boards\MicroBit\obj\zfp_lib_Debug\libada_drivers_library.a(hal-time.o)
 .data          0x0000000000000000        0x0 D:\programming\ada_projects\Ada_Drivers_Library\boards\MicroBit\obj\zfp_lib_Debug\libada_drivers_library.a(hal-time.o)
 .bss           0x0000000000000000        0x0 D:\programming\ada_projects\Ada_Drivers_Library\boards\MicroBit\obj\zfp_lib_Debug\libada_drivers_library.a(hal-time.o)
 .data.hal__time_E
                0x0000000000000000        0x2 D:\programming\ada_projects\Ada_Drivers_Library\boards\MicroBit\obj\zfp_lib_Debug\libada_drivers_library.a(hal-time.o)
 .rodata.hal__time__delaysP
                0x0000000000000000        0x4 D:\programming\ada_projects\Ada_Drivers_Library\boards\MicroBit\obj\zfp_lib_Debug\libada_drivers_library.a(hal-time.o)
 .text          0x0000000000000000        0x0 D:\gnat\2018-arm-elf\arm-eabi\lib\gnat\zfp-microbit\adalib\libgnat.a(a-elchha.o)
 .data          0x0000000000000000        0x0 D:\gnat\2018-arm-elf\arm-eabi\lib\gnat\zfp-microbit\adalib\libgnat.a(a-elchha.o)
 .bss           0x0000000000000000        0x0 D:\gnat\2018-arm-elf\arm-eabi\lib\gnat\zfp-microbit\adalib\libgnat.a(a-elchha.o)
 .data.ada__exceptions__last_chance_handler_E
                0x0000000000000000        0x2 D:\gnat\2018-arm-elf\arm-eabi\lib\gnat\zfp-microbit\adalib\libgnat.a(a-elchha.o)
 .text          0x0000000000000000        0x0 D:\gnat\2018-arm-elf\arm-eabi\lib\gnat\zfp-microbit\adalib\libgnat.a(a-except.o)
 .data          0x0000000000000000        0x0 D:\gnat\2018-arm-elf\arm-eabi\lib\gnat\zfp-microbit\adalib\libgnat.a(a-except.o)
 .bss           0x0000000000000000        0x0 D:\gnat\2018-arm-elf\arm-eabi\lib\gnat\zfp-microbit\adalib\libgnat.a(a-except.o)
 .data.ada__exceptions_E
                0x0000000000000000        0x2 D:\gnat\2018-arm-elf\arm-eabi\lib\gnat\zfp-microbit\adalib\libgnat.a(a-except.o)
 .rodata.ada__exceptions__null_id
                0x0000000000000000        0x4 D:\gnat\2018-arm-elf\arm-eabi\lib\gnat\zfp-microbit\adalib\libgnat.a(a-except.o)
 .rodata.ada__exceptions__empty_c_string
                0x0000000000000000        0x4 D:\gnat\2018-arm-elf\arm-eabi\lib\gnat\zfp-microbit\adalib\libgnat.a(a-except.o)
 .text          0x0000000000000000        0x0 D:\gnat\2018-arm-elf\arm-eabi\lib\gnat\zfp-microbit\adalib\libgnat.a(g-io.o)
 .data          0x0000000000000000        0x0 D:\gnat\2018-arm-elf\arm-eabi\lib\gnat\zfp-microbit\adalib\libgnat.a(g-io.o)
 .bss           0x0000000000000000        0x0 D:\gnat\2018-arm-elf\arm-eabi\lib\gnat\zfp-microbit\adalib\libgnat.a(g-io.o)
 .data.gnat__io_E
                0x0000000000000000        0x2 D:\gnat\2018-arm-elf\arm-eabi\lib\gnat\zfp-microbit\adalib\libgnat.a(g-io.o)
 .text          0x0000000000000000        0x0 D:\gnat\2018-arm-elf\arm-eabi\lib\gnat\zfp-microbit\adalib\libgnat.a(s-assert.o)
 .data          0x0000000000000000        0x0 D:\gnat\2018-arm-elf\arm-eabi\lib\gnat\zfp-microbit\adalib\libgnat.a(s-assert.o)
 .bss           0x0000000000000000        0x0 D:\gnat\2018-arm-elf\arm-eabi\lib\gnat\zfp-microbit\adalib\libgnat.a(s-assert.o)
 .data.system__assertions_E
                0x0000000000000000        0x2 D:\gnat\2018-arm-elf\arm-eabi\lib\gnat\zfp-microbit\adalib\libgnat.a(s-assert.o)
 .data.system__assertions__assert_failure
                0x0000000000000000       0x18 D:\gnat\2018-arm-elf\arm-eabi\lib\gnat\zfp-microbit\adalib\libgnat.a(s-assert.o)
 .rodata.system__assertions__R2s
                0x0000000000000000        0x4 D:\gnat\2018-arm-elf\arm-eabi\lib\gnat\zfp-microbit\adalib\libgnat.a(s-assert.o)
 .rodata.system__assertions__assert_failureE
                0x0000000000000000        0x1 D:\gnat\2018-arm-elf\arm-eabi\lib\gnat\zfp-microbit\adalib\libgnat.a(s-assert.o)
 .text          0x0000000000000000        0x0 D:\gnat\2018-arm-elf\arm-eabi\lib\gnat\zfp-microbit\adalib\libgnat.a(s-macres.o)
 .data          0x0000000000000000        0x0 D:\gnat\2018-arm-elf\arm-eabi\lib\gnat\zfp-microbit\adalib\libgnat.a(s-macres.o)
 .bss           0x0000000000000000        0x0 D:\gnat\2018-arm-elf\arm-eabi\lib\gnat\zfp-microbit\adalib\libgnat.a(s-macres.o)
 .text.abort    0x0000000000000000       0x10 D:\gnat\2018-arm-elf\arm-eabi\lib\gnat\zfp-microbit\adalib\libgnat.a(s-macres.o)
 .data.system__machine_reset_E
                0x0000000000000000        0x2 D:\gnat\2018-arm-elf\arm-eabi\lib\gnat\zfp-microbit\adalib\libgnat.a(s-macres.o)
 .text          0x0000000000000000        0x0 D:\gnat\2018-arm-elf\arm-eabi\lib\gnat\zfp-microbit\adalib\libgnat.a(s-memcop.o)
 .data          0x0000000000000000        0x0 D:\gnat\2018-arm-elf\arm-eabi\lib\gnat\zfp-microbit\adalib\libgnat.a(s-memcop.o)
 .bss           0x0000000000000000        0x0 D:\gnat\2018-arm-elf\arm-eabi\lib\gnat\zfp-microbit\adalib\libgnat.a(s-memcop.o)
 .data.system__memory_copy_E
                0x0000000000000000        0x2 D:\gnat\2018-arm-elf\arm-eabi\lib\gnat\zfp-microbit\adalib\libgnat.a(s-memcop.o)
 .text          0x0000000000000000        0x0 D:\gnat\2018-arm-elf\arm-eabi\lib\gnat\zfp-microbit\adalib\libgnat.a(s-secsta.o)
 .data          0x0000000000000000        0x0 D:\gnat\2018-arm-elf\arm-eabi\lib\gnat\zfp-microbit\adalib\libgnat.a(s-secsta.o)
 .bss           0x0000000000000000        0x0 D:\gnat\2018-arm-elf\arm-eabi\lib\gnat\zfp-microbit\adalib\libgnat.a(s-secsta.o)
 .text.system__secondary_stack__memoryIP
                0x0000000000000000        0x4 D:\gnat\2018-arm-elf\arm-eabi\lib\gnat\zfp-microbit\adalib\libgnat.a(s-secsta.o)
 .text.system__secondary_stack__ss_allocate
                0x0000000000000000       0x58 D:\gnat\2018-arm-elf\arm-eabi\lib\gnat\zfp-microbit\adalib\libgnat.a(s-secsta.o)
 .text.system__secondary_stack__ss_get_max
                0x0000000000000000       0x10 D:\gnat\2018-arm-elf\arm-eabi\lib\gnat\zfp-microbit\adalib\libgnat.a(s-secsta.o)
 .text.system__secondary_stack__ss_init
                0x0000000000000000       0x78 D:\gnat\2018-arm-elf\arm-eabi\lib\gnat\zfp-microbit\adalib\libgnat.a(s-secsta.o)
 .text.system__secondary_stack__ss_mark
                0x0000000000000000        0xc D:\gnat\2018-arm-elf\arm-eabi\lib\gnat\zfp-microbit\adalib\libgnat.a(s-secsta.o)
 .text.system__secondary_stack__ss_release
                0x0000000000000000        0xc D:\gnat\2018-arm-elf\arm-eabi\lib\gnat\zfp-microbit\adalib\libgnat.a(s-secsta.o)
 .rodata        0x0000000000000000        0xd D:\gnat\2018-arm-elf\arm-eabi\lib\gnat\zfp-microbit\adalib\libgnat.a(s-secsta.o)
 .bss.system__secondary_stack__ss_pool
                0x0000000000000000        0x4 D:\gnat\2018-arm-elf\arm-eabi\lib\gnat\zfp-microbit\adalib\libgnat.a(s-secsta.o)
 .data.system__secondary_stack_E
                0x0000000000000000        0x2 D:\gnat\2018-arm-elf\arm-eabi\lib\gnat\zfp-microbit\adalib\libgnat.a(s-secsta.o)
 .data.system__secondary_stack__num_of_assigned_stacks
                0x0000000000000000        0x4 D:\gnat\2018-arm-elf\arm-eabi\lib\gnat\zfp-microbit\adalib\libgnat.a(s-secsta.o)
 .text          0x0000000000000000        0x0 D:\gnat\2018-arm-elf\arm-eabi\lib\gnat\zfp-microbit\adalib\libgnat.a(s-sssita.o)
 .data          0x0000000000000000        0x0 D:\gnat\2018-arm-elf\arm-eabi\lib\gnat\zfp-microbit\adalib\libgnat.a(s-sssita.o)
 .bss           0x0000000000000000        0x0 D:\gnat\2018-arm-elf\arm-eabi\lib\gnat\zfp-microbit\adalib\libgnat.a(s-sssita.o)
 .text.__gnat_get_secondary_stack
                0x0000000000000000       0x1c D:\gnat\2018-arm-elf\arm-eabi\lib\gnat\zfp-microbit\adalib\libgnat.a(s-sssita.o)
 .data.system__secondary_stack__single_task__secondary_stack
                0x0000000000000000        0x4 D:\gnat\2018-arm-elf\arm-eabi\lib\gnat\zfp-microbit\adalib\libgnat.a(s-sssita.o)
 .comment       0x0000000000000000       0x3e D:\gnat\2018-arm-elf\arm-eabi\lib\gnat\zfp-microbit\adalib\libgnat.a(s-sssita.o)
 .ARM.attributes
                0x0000000000000000       0x2f D:\gnat\2018-arm-elf\arm-eabi\lib\gnat\zfp-microbit\adalib\libgnat.a(s-sssita.o)
 .text          0x0000000000000000        0x0 D:\gnat\2018-arm-elf\arm-eabi\lib\gnat\zfp-microbit\adalib\libgnat.a(s-textio.o)
 .data          0x0000000000000000        0x0 D:\gnat\2018-arm-elf\arm-eabi\lib\gnat\zfp-microbit\adalib\libgnat.a(s-textio.o)
 .bss           0x0000000000000000        0x0 D:\gnat\2018-arm-elf\arm-eabi\lib\gnat\zfp-microbit\adalib\libgnat.a(s-textio.o)
 .text.system__text_io__get
                0x0000000000000000       0x1c D:\gnat\2018-arm-elf\arm-eabi\lib\gnat\zfp-microbit\adalib\libgnat.a(s-textio.o)
 .text.system__text_io__is_rx_ready
                0x0000000000000000       0x14 D:\gnat\2018-arm-elf\arm-eabi\lib\gnat\zfp-microbit\adalib\libgnat.a(s-textio.o)
 .data.system__text_io_E
                0x0000000000000000        0x2 D:\gnat\2018-arm-elf\arm-eabi\lib\gnat\zfp-microbit\adalib\libgnat.a(s-textio.o)
 .data          0x0000000000000000        0x0 D:\gnat\2018-arm-elf\arm-eabi\lib\gnat\zfp-microbit\adalib\libgnat.a(start-rom.o)
 .bss           0x0000000000000000        0x0 D:\gnat\2018-arm-elf\arm-eabi\lib\gnat\zfp-microbit\adalib\libgnat.a(start-rom.o)
 .data          0x0000000000000000        0x0 D:\gnat\2018-arm-elf\arm-eabi\lib\gnat\zfp-microbit\adalib\libgnat.a(handler.o)
 .bss           0x0000000000000000        0x0 D:\gnat\2018-arm-elf\arm-eabi\lib\gnat\zfp-microbit\adalib\libgnat.a(handler.o)
 .data          0x0000000000000000        0x0 D:\gnat\2018-arm-elf\arm-eabi\lib\gnat\zfp-microbit\adalib\libgnat.a(breakpoint_handler-cortexm.o)
 .bss           0x0000000000000000        0x0 D:\gnat\2018-arm-elf\arm-eabi\lib\gnat\zfp-microbit\adalib\libgnat.a(breakpoint_handler-cortexm.o)
 .data          0x0000000000000000        0x0 d:/gnat/2018-arm-elf/bin/../lib/gcc/arm-eabi/7.3.1/thumb/v6-m\libgcc.a(_divsi3.o)
 .bss           0x0000000000000000        0x0 d:/gnat/2018-arm-elf/bin/../lib/gcc/arm-eabi/7.3.1/thumb/v6-m\libgcc.a(_divsi3.o)
 .data          0x0000000000000000        0x0 d:/gnat/2018-arm-elf/bin/../lib/gcc/arm-eabi/7.3.1/thumb/v6-m\libgcc.a(_dvmd_tls.o)
 .bss           0x0000000000000000        0x0 d:/gnat/2018-arm-elf/bin/../lib/gcc/arm-eabi/7.3.1/thumb/v6-m\libgcc.a(_dvmd_tls.o)
 .data          0x0000000000000000        0x0 d:/gnat/2018-arm-elf/bin/../lib/gcc/arm-eabi/7.3.1/thumb/v6-m\libgcc.a(_arm_cmpsf2.o)
 .bss           0x0000000000000000        0x0 d:/gnat/2018-arm-elf/bin/../lib/gcc/arm-eabi/7.3.1/thumb/v6-m\libgcc.a(_arm_cmpsf2.o)
 .data          0x0000000000000000        0x0 d:/gnat/2018-arm-elf/bin/../lib/gcc/arm-eabi/7.3.1/thumb/v6-m\libgcc.a(_fixunssfsi.o)
 .bss           0x0000000000000000        0x0 d:/gnat/2018-arm-elf/bin/../lib/gcc/arm-eabi/7.3.1/thumb/v6-m\libgcc.a(_fixunssfsi.o)
 .data          0x0000000000000000        0x0 d:/gnat/2018-arm-elf/bin/../lib/gcc/arm-eabi/7.3.1/thumb/v6-m\libgcc.a(addsf3.o)
 .bss           0x0000000000000000        0x0 d:/gnat/2018-arm-elf/bin/../lib/gcc/arm-eabi/7.3.1/thumb/v6-m\libgcc.a(addsf3.o)
 .data          0x0000000000000000        0x0 d:/gnat/2018-arm-elf/bin/../lib/gcc/arm-eabi/7.3.1/thumb/v6-m\libgcc.a(divsf3.o)
 .bss           0x0000000000000000        0x0 d:/gnat/2018-arm-elf/bin/../lib/gcc/arm-eabi/7.3.1/thumb/v6-m\libgcc.a(divsf3.o)
 .data          0x0000000000000000        0x0 d:/gnat/2018-arm-elf/bin/../lib/gcc/arm-eabi/7.3.1/thumb/v6-m\libgcc.a(eqsf2.o)
 .bss           0x0000000000000000        0x0 d:/gnat/2018-arm-elf/bin/../lib/gcc/arm-eabi/7.3.1/thumb/v6-m\libgcc.a(eqsf2.o)
 .data          0x0000000000000000        0x0 d:/gnat/2018-arm-elf/bin/../lib/gcc/arm-eabi/7.3.1/thumb/v6-m\libgcc.a(gesf2.o)
 .bss           0x0000000000000000        0x0 d:/gnat/2018-arm-elf/bin/../lib/gcc/arm-eabi/7.3.1/thumb/v6-m\libgcc.a(gesf2.o)
 .data          0x0000000000000000        0x0 d:/gnat/2018-arm-elf/bin/../lib/gcc/arm-eabi/7.3.1/thumb/v6-m\libgcc.a(lesf2.o)
 .bss           0x0000000000000000        0x0 d:/gnat/2018-arm-elf/bin/../lib/gcc/arm-eabi/7.3.1/thumb/v6-m\libgcc.a(lesf2.o)
 .data          0x0000000000000000        0x0 d:/gnat/2018-arm-elf/bin/../lib/gcc/arm-eabi/7.3.1/thumb/v6-m\libgcc.a(mulsf3.o)
 .bss           0x0000000000000000        0x0 d:/gnat/2018-arm-elf/bin/../lib/gcc/arm-eabi/7.3.1/thumb/v6-m\libgcc.a(mulsf3.o)
 .data          0x0000000000000000        0x0 d:/gnat/2018-arm-elf/bin/../lib/gcc/arm-eabi/7.3.1/thumb/v6-m\libgcc.a(subsf3.o)
 .bss           0x0000000000000000        0x0 d:/gnat/2018-arm-elf/bin/../lib/gcc/arm-eabi/7.3.1/thumb/v6-m\libgcc.a(subsf3.o)
 .data          0x0000000000000000        0x0 d:/gnat/2018-arm-elf/bin/../lib/gcc/arm-eabi/7.3.1/thumb/v6-m\libgcc.a(unordsf2.o)
 .bss           0x0000000000000000        0x0 d:/gnat/2018-arm-elf/bin/../lib/gcc/arm-eabi/7.3.1/thumb/v6-m\libgcc.a(unordsf2.o)
 .data          0x0000000000000000        0x0 d:/gnat/2018-arm-elf/bin/../lib/gcc/arm-eabi/7.3.1/thumb/v6-m\libgcc.a(fixsfsi.o)
 .bss           0x0000000000000000        0x0 d:/gnat/2018-arm-elf/bin/../lib/gcc/arm-eabi/7.3.1/thumb/v6-m\libgcc.a(fixsfsi.o)
 .data          0x0000000000000000        0x0 d:/gnat/2018-arm-elf/bin/../lib/gcc/arm-eabi/7.3.1/thumb/v6-m\libgcc.a(floatsisf.o)
 .bss           0x0000000000000000        0x0 d:/gnat/2018-arm-elf/bin/../lib/gcc/arm-eabi/7.3.1/thumb/v6-m\libgcc.a(floatsisf.o)
 .data          0x0000000000000000        0x0 d:/gnat/2018-arm-elf/bin/../lib/gcc/arm-eabi/7.3.1/thumb/v6-m\libgcc.a(floatunsisf.o)
 .bss           0x0000000000000000        0x0 d:/gnat/2018-arm-elf/bin/../lib/gcc/arm-eabi/7.3.1/thumb/v6-m\libgcc.a(floatunsisf.o)
 .data          0x0000000000000000        0x0 d:/gnat/2018-arm-elf/bin/../lib/gcc/arm-eabi/7.3.1/thumb/v6-m\libgcc.a(_clzsi2.o)
 .bss           0x0000000000000000        0x0 d:/gnat/2018-arm-elf/bin/../lib/gcc/arm-eabi/7.3.1/thumb/v6-m\libgcc.a(_clzsi2.o)

Memory Configuration

Name             Origin             Length             Attributes
flash            0x0000000000000000 0x0000000000040000 xr
ram              0x0000000020000000 0x0000000000004000 xrw
*default*        0x0000000000000000 0xffffffffffffffff

Linker script and memory map

LOAD main.o
LOAD b__main.o
LOAD D:\programming\ada_projects\Ada_Drivers_Library\boards\MicroBit\obj\zfp_lib_Debug\libada_drivers_library.a
LOAD D:\gnat\2018-arm-elf\arm-eabi\lib\gnat\zfp-microbit\adalib\libgnat.a
START GROUP
LOAD d:/gnat/2018-arm-elf/bin/../lib/gcc/arm-eabi/7.3.1/thumb/v6-m\libgcc.a
END GROUP
                0x0000000000000000                __DYNAMIC = 0x0
                0x0000000000000400                _DEFAULT_STACK_SIZE = 0x400

.text           0x0000000000000000     0x51ac
 *(.vectors)
 .vectors       0x0000000000000000       0xa8 D:\gnat\2018-arm-elf\arm-eabi\lib\gnat\zfp-microbit\adalib\libgnat.a(handler.o)
                0x0000000000000000                __vectors
 *(.text .text.* .gnu.linkonce.t*)
 .text._ada_main
                0x00000000000000a8       0x48 main.o
                0x00000000000000a8                _ada_main
 .text.ada_main__Tsec_default_sized_stacksBIP
                0x00000000000000f0       0x48 b__main.o
                0x00000000000000f0                ada_main__Tsec_default_sized_stacksBIP
 .text.adainit  0x0000000000000138      0x16c b__main.o
                0x0000000000000138                adainit
 .text.main     0x00000000000002a4       0x1c b__main.o
                0x00000000000002a4                main
 .text.ada_main___elabb
                0x00000000000002c0       0x20 b__main.o
                0x00000000000002c0                ada_main___elabb
 .text.cortex_m__nvic__enable
                0x00000000000002e0       0x20 D:\programming\ada_projects\Ada_Drivers_Library\boards\MicroBit\obj\zfp_lib_Debug\libada_drivers_library.a(cortex_m-nvic.o)
                0x00000000000002e0                cortex_m__nvic__enable
 .text.microbit__ios__supports
                0x0000000000000300       0xe8 D:\programming\ada_projects\Ada_Drivers_Library\boards\MicroBit\obj\zfp_lib_Debug\libada_drivers_library.a(microbit-ios.o)
                0x0000000000000300                microbit__ios__supports
 .text.microbit__ios__pwm_statusIP
                0x00000000000003e8       0x1c D:\programming\ada_projects\Ada_Drivers_Library\boards\MicroBit\obj\zfp_lib_Debug\libada_drivers_library.a(microbit-ios.o)
                0x00000000000003e8                microbit__ios__pwm_statusIP
 .text.microbit__ios__TpwmsBIP
                0x0000000000000404       0x48 D:\programming\ada_projects\Ada_Drivers_Library\boards\MicroBit\obj\zfp_lib_Debug\libada_drivers_library.a(microbit-ios.o)
                0x0000000000000404                microbit__ios__TpwmsBIP
 .text.microbit__ios__to_compare_value
                0x000000000000044c      0x1a4 D:\programming\ada_projects\Ada_Drivers_Library\boards\MicroBit\obj\zfp_lib_Debug\libada_drivers_library.a(microbit-ios.o)
 .text.microbit__ios__allocate_pwm
                0x00000000000005f0      0x104 D:\programming\ada_projects\Ada_Drivers_Library\boards\MicroBit\obj\zfp_lib_Debug\libada_drivers_library.a(microbit-ios.o)
 .text.microbit__ios__configure_ppi
                0x00000000000006f4       0xa8 D:\programming\ada_projects\Ada_Drivers_Library\boards\MicroBit\obj\zfp_lib_Debug\libada_drivers_library.a(microbit-ios.o)
 .text.microbit__ios__configure_gpiote
                0x000000000000079c       0x4c D:\programming\ada_projects\Ada_Drivers_Library\boards\MicroBit\obj\zfp_lib_Debug\libada_drivers_library.a(microbit-ios.o)
 .text.microbit__ios__pwm_timer_handler
                0x00000000000007e8       0x68 D:\programming\ada_projects\Ada_Drivers_Library\boards\MicroBit\obj\zfp_lib_Debug\libada_drivers_library.a(microbit-ios.o)
 .text.microbit__ios__init_pwm_timer
                0x0000000000000850       0xe4 D:\programming\ada_projects\Ada_Drivers_Library\boards\MicroBit\obj\zfp_lib_Debug\libada_drivers_library.a(microbit-ios.o)
 .text.microbit__ios__set_analog_period_us
                0x0000000000000934       0x64 D:\programming\ada_projects\Ada_Drivers_Library\boards\MicroBit\obj\zfp_lib_Debug\libada_drivers_library.a(microbit-ios.o)
                0x0000000000000934                microbit__ios__set_analog_period_us
 .text.microbit__ios__write
                0x0000000000000998      0x364 D:\programming\ada_projects\Ada_Drivers_Library\boards\MicroBit\obj\zfp_lib_Debug\libada_drivers_library.a(microbit-ios.o)
                0x0000000000000998                microbit__ios__write
 .text.microbit__ios__has_pwm
                0x0000000000000cfc       0x2c D:\programming\ada_projects\Ada_Drivers_Library\boards\MicroBit\obj\zfp_lib_Debug\libada_drivers_library.a(microbit-ios.o)
 .text.microbit__ios___elabb
                0x0000000000000d28      0x1dc D:\programming\ada_projects\Ada_Drivers_Library\boards\MicroBit\obj\zfp_lib_Debug\libada_drivers_library.a(microbit-ios.o)
                0x0000000000000d28                microbit__ios___elabb
 .text.microbit__servos__servo_pin_idPredicate
                0x0000000000000f04       0x24 D:\programming\ada_projects\Ada_Drivers_Library\boards\MicroBit\obj\zfp_lib_Debug\libada_drivers_library.a(microbit-servos.o)
                0x0000000000000f04                microbit__servos__servo_pin_idPredicate
 .text.microbit__servos__go
                0x0000000000000f28       0x5c D:\programming\ada_projects\Ada_Drivers_Library\boards\MicroBit\obj\zfp_lib_Debug\libada_drivers_library.a(microbit-servos.o)
                0x0000000000000f28                microbit__servos__go
 .text.microbit__servos__to_pwm
                0x0000000000000f84       0x64 D:\programming\ada_projects\Ada_Drivers_Library\boards\MicroBit\obj\zfp_lib_Debug\libada_drivers_library.a(microbit-servos.o)
 .text.microbit__time__mb_delaysIP
                0x0000000000000fe8       0x28 D:\programming\ada_projects\Ada_Drivers_Library\boards\MicroBit\obj\zfp_lib_Debug\libada_drivers_library.a(microbit-time.o)
                0x0000000000000fe8                microbit__time__mb_delaysIP
 .text.microbit__time___size__2
                0x0000000000001010       0x18 D:\programming\ada_projects\Ada_Drivers_Library\boards\MicroBit\obj\zfp_lib_Debug\libada_drivers_library.a(microbit-time.o)
                0x0000000000001010                microbit__time___size__2
 .text.microbit__time__Oeq
                0x0000000000001028       0x14 D:\programming\ada_projects\Ada_Drivers_Library\boards\MicroBit\obj\zfp_lib_Debug\libada_drivers_library.a(microbit-time.o)
                0x0000000000001028                microbit__time__Oeq
 .text.microbit__time___assign
                0x000000000000103c       0x20 D:\programming\ada_projects\Ada_Drivers_Library\boards\MicroBit\obj\zfp_lib_Debug\libada_drivers_library.a(microbit-time.o)
                0x000000000000103c                microbit__time___assign
 .text.microbit__time__initialize
                0x000000000000105c       0x8c D:\programming\ada_projects\Ada_Drivers_Library\boards\MicroBit\obj\zfp_lib_Debug\libada_drivers_library.a(microbit-time.o)
 .text.microbit__time__update_clock
                0x00000000000010e8       0x20 D:\programming\ada_projects\Ada_Drivers_Library\boards\MicroBit\obj\zfp_lib_Debug\libada_drivers_library.a(microbit-time.o)
 .text.microbit__time__rtc1_irqhandler
                0x0000000000001108       0x94 D:\programming\ada_projects\Ada_Drivers_Library\boards\MicroBit\obj\zfp_lib_Debug\libada_drivers_library.a(microbit-time.o)
 .text.microbit__time__clock
                0x000000000000119c       0x18 D:\programming\ada_projects\Ada_Drivers_Library\boards\MicroBit\obj\zfp_lib_Debug\libada_drivers_library.a(microbit-time.o)
                0x000000000000119c                microbit__time__clock
 .text.microbit__time__delay_ms
                0x00000000000011b4       0x44 D:\programming\ada_projects\Ada_Drivers_Library\boards\MicroBit\obj\zfp_lib_Debug\libada_drivers_library.a(microbit-time.o)
                0x00000000000011b4                microbit__time__delay_ms
 .text.microbit__time__delay_microseconds__2
                0x00000000000011f8       0x64 D:\programming\ada_projects\Ada_Drivers_Library\boards\MicroBit\obj\zfp_lib_Debug\libada_drivers_library.a(microbit-time.o)
                0x00000000000011f8                microbit__time__delay_microseconds__2
 .text.microbit__time__delay_milliseconds__2
                0x000000000000125c       0x50 D:\programming\ada_projects\Ada_Drivers_Library\boards\MicroBit\obj\zfp_lib_Debug\libada_drivers_library.a(microbit-time.o)
                0x000000000000125c                microbit__time__delay_milliseconds__2
 .text.microbit__time__delay_seconds__2
                0x00000000000012ac       0x7c D:\programming\ada_projects\Ada_Drivers_Library\boards\MicroBit\obj\zfp_lib_Debug\libada_drivers_library.a(microbit-time.o)
                0x00000000000012ac                microbit__time__delay_seconds__2
 .text.microbit__time___elabb
                0x0000000000001328       0x38 D:\programming\ada_projects\Ada_Drivers_Library\boards\MicroBit\obj\zfp_lib_Debug\libada_drivers_library.a(microbit-time.o)
                0x0000000000001328                microbit__time___elabb
 .text.nrf51__clock__set_low_freq_source
                0x0000000000001360       0x78 D:\programming\ada_projects\Ada_Drivers_Library\boards\MicroBit\obj\zfp_lib_Debug\libada_drivers_library.a(nrf51-clock.o)
                0x0000000000001360                nrf51__clock__set_low_freq_source
 .text.nrf51__clock__low_freq_running
                0x00000000000013d8       0x2c D:\programming\ada_projects\Ada_Drivers_Library\boards\MicroBit\obj\zfp_lib_Debug\libada_drivers_library.a(nrf51-clock.o)
                0x00000000000013d8                nrf51__clock__low_freq_running
 .text.nrf51__clock__start_low_freq
                0x0000000000001404       0x14 D:\programming\ada_projects\Ada_Drivers_Library\boards\MicroBit\obj\zfp_lib_Debug\libada_drivers_library.a(nrf51-clock.o)
                0x0000000000001404                nrf51__clock__start_low_freq
 .text.nrf51__device___elabs
                0x0000000000001418      0x2a8 D:\programming\ada_projects\Ada_Drivers_Library\boards\MicroBit\obj\zfp_lib_Debug\libada_drivers_library.a(nrf51-device.o)
                0x0000000000001418                nrf51__device___elabs
 .text.nrf51__events__enable_interrupt
                0x00000000000016c0       0x7c D:\programming\ada_projects\Ada_Drivers_Library\boards\MicroBit\obj\zfp_lib_Debug\libada_drivers_library.a(nrf51-events.o)
                0x00000000000016c0                nrf51__events__enable_interrupt
 .text.nrf51__events__clear
                0x000000000000173c       0x30 D:\programming\ada_projects\Ada_Drivers_Library\boards\MicroBit\obj\zfp_lib_Debug\libada_drivers_library.a(nrf51-events.o)
                0x000000000000173c                nrf51__events__clear
 .text.nrf51__events__get_address__2
                0x000000000000176c       0x14 D:\programming\ada_projects\Ada_Drivers_Library\boards\MicroBit\obj\zfp_lib_Debug\libada_drivers_library.a(nrf51-events.o)
                0x000000000000176c                nrf51__events__get_address__2
 .text.nrf51__gpio__tasks_and_events__enable_task
                0x0000000000001780      0x17c D:\programming\ada_projects\Ada_Drivers_Library\boards\MicroBit\obj\zfp_lib_Debug\libada_drivers_library.a(nrf51-gpio-tasks_and_events.o)
                0x0000000000001780                nrf51__gpio__tasks_and_events__enable_task
 .text.nrf51__gpio__tasks_and_events__out_task
                0x00000000000018fc       0x28 D:\programming\ada_projects\Ada_Drivers_Library\boards\MicroBit\obj\zfp_lib_Debug\libada_drivers_library.a(nrf51-gpio-tasks_and_events.o)
                0x00000000000018fc                nrf51__gpio__tasks_and_events__out_task
 .text.nrf51__gpio__gpio_configurationIP
                0x0000000000001924       0x20 D:\programming\ada_projects\Ada_Drivers_Library\boards\MicroBit\obj\zfp_lib_Debug\libada_drivers_library.a(nrf51-gpio.o)
                0x0000000000001924                nrf51__gpio__gpio_configurationIP
 .text.nrf51__gpio___size
                0x0000000000001944       0x18 D:\programming\ada_projects\Ada_Drivers_Library\boards\MicroBit\obj\zfp_lib_Debug\libada_drivers_library.a(nrf51-gpio.o)
                0x0000000000001944                nrf51__gpio___size
 .text.nrf51__gpio__Oeq
                0x000000000000195c       0x24 D:\programming\ada_projects\Ada_Drivers_Library\boards\MicroBit\obj\zfp_lib_Debug\libada_drivers_library.a(nrf51-gpio.o)
                0x000000000000195c                nrf51__gpio__Oeq
 .text.nrf51__gpio___assign
                0x0000000000001980       0x20 D:\programming\ada_projects\Ada_Drivers_Library\boards\MicroBit\obj\zfp_lib_Debug\libada_drivers_library.a(nrf51-gpio.o)
                0x0000000000001980                nrf51__gpio___assign
 .text.nrf51__gpio__support
                0x00000000000019a0       0x30 D:\programming\ada_projects\Ada_Drivers_Library\boards\MicroBit\obj\zfp_lib_Debug\libada_drivers_library.a(nrf51-gpio.o)
                0x00000000000019a0                nrf51__gpio__support
 .text.nrf51__gpio__mode
                0x00000000000019d0       0x74 D:\programming\ada_projects\Ada_Drivers_Library\boards\MicroBit\obj\zfp_lib_Debug\libada_drivers_library.a(nrf51-gpio.o)
                0x00000000000019d0                nrf51__gpio__mode
 .text.nrf51__gpio__set_mode
                0x0000000000001a44      0x138 D:\programming\ada_projects\Ada_Drivers_Library\boards\MicroBit\obj\zfp_lib_Debug\libada_drivers_library.a(nrf51-gpio.o)
                0x0000000000001a44                nrf51__gpio__set_mode
 .text.nrf51__gpio__set
                0x0000000000001b7c       0x3c D:\programming\ada_projects\Ada_Drivers_Library\boards\MicroBit\obj\zfp_lib_Debug\libada_drivers_library.a(nrf51-gpio.o)
                0x0000000000001b7c                nrf51__gpio__set
 .text.nrf51__gpio__pull_resistor
                0x0000000000001bb8       0x78 D:\programming\ada_projects\Ada_Drivers_Library\boards\MicroBit\obj\zfp_lib_Debug\libada_drivers_library.a(nrf51-gpio.o)
                0x0000000000001bb8                nrf51__gpio__pull_resistor
 .text.nrf51__gpio__set_pull_resistor
                0x0000000000001c30       0xec D:\programming\ada_projects\Ada_Drivers_Library\boards\MicroBit\obj\zfp_lib_Debug\libada_drivers_library.a(nrf51-gpio.o)
                0x0000000000001c30                nrf51__gpio__set_pull_resistor
 .text.nrf51__gpio__set__2
                0x0000000000001d1c       0x64 D:\programming\ada_projects\Ada_Drivers_Library\boards\MicroBit\obj\zfp_lib_Debug\libada_drivers_library.a(nrf51-gpio.o)
                0x0000000000001d1c                nrf51__gpio__set__2
 .text.nrf51__gpio__clear
                0x0000000000001d80       0x64 D:\programming\ada_projects\Ada_Drivers_Library\boards\MicroBit\obj\zfp_lib_Debug\libada_drivers_library.a(nrf51-gpio.o)
                0x0000000000001d80                nrf51__gpio__clear
 .text.nrf51__gpio__toggle
                0x0000000000001de4       0x54 D:\programming\ada_projects\Ada_Drivers_Library\boards\MicroBit\obj\zfp_lib_Debug\libada_drivers_library.a(nrf51-gpio.o)
                0x0000000000001de4                nrf51__gpio__toggle
 .text.nrf51__gpio__configure_io
                0x0000000000001e38      0x2a4 D:\programming\ada_projects\Ada_Drivers_Library\boards\MicroBit\obj\zfp_lib_Debug\libada_drivers_library.a(nrf51-gpio.o)
                0x0000000000001e38                nrf51__gpio__configure_io
 .text.nrf51__gpio___elabb
                0x00000000000020dc       0x3c D:\programming\ada_projects\Ada_Drivers_Library\boards\MicroBit\obj\zfp_lib_Debug\libada_drivers_library.a(nrf51-gpio.o)
                0x00000000000020dc                nrf51__gpio___elabb
 .text.nrf51__interrupts__enable
                0x0000000000002118       0x1c D:\programming\ada_projects\Ada_Drivers_Library\boards\MicroBit\obj\zfp_lib_Debug\libada_drivers_library.a(nrf51-interrupts.o)
                0x0000000000002118                nrf51__interrupts__enable
 .text.nrf51__interrupts__register
                0x0000000000002134       0x3c D:\programming\ada_projects\Ada_Drivers_Library\boards\MicroBit\obj\zfp_lib_Debug\libada_drivers_library.a(nrf51-interrupts.o)
                0x0000000000002134                nrf51__interrupts__register
 .text.__gnat_irq_trap
                0x0000000000002170       0x6c D:\programming\ada_projects\Ada_Drivers_Library\boards\MicroBit\obj\zfp_lib_Debug\libada_drivers_library.a(nrf51-interrupts.o)
                0x0000000000002170                __gnat_irq_trap
 .text.nrf51__ppi__configure
                0x00000000000021dc       0x6c D:\programming\ada_projects\Ada_Drivers_Library\boards\MicroBit\obj\zfp_lib_Debug\libada_drivers_library.a(nrf51-ppi.o)
                0x00000000000021dc                nrf51__ppi__configure
 .text.nrf51__ppi__enable_channel
                0x0000000000002248       0x70 D:\programming\ada_projects\Ada_Drivers_Library\boards\MicroBit\obj\zfp_lib_Debug\libada_drivers_library.a(nrf51-ppi.o)
                0x0000000000002248                nrf51__ppi__enable_channel
 .text.nrf51__rtc__real_time_counterIP
                0x00000000000022b8       0x18 D:\programming\ada_projects\Ada_Drivers_Library\boards\MicroBit\obj\zfp_lib_Debug\libada_drivers_library.a(nrf51-rtc.o)
                0x00000000000022b8                nrf51__rtc__real_time_counterIP
 .text.nrf51__rtc__start
                0x00000000000022d0       0x14 D:\programming\ada_projects\Ada_Drivers_Library\boards\MicroBit\obj\zfp_lib_Debug\libada_drivers_library.a(nrf51-rtc.o)
                0x00000000000022d0                nrf51__rtc__start
 .text.nrf51__rtc__stop
                0x00000000000022e4       0x14 D:\programming\ada_projects\Ada_Drivers_Library\boards\MicroBit\obj\zfp_lib_Debug\libada_drivers_library.a(nrf51-rtc.o)
                0x00000000000022e4                nrf51__rtc__stop
 .text.nrf51__rtc__clear
                0x00000000000022f8       0x14 D:\programming\ada_projects\Ada_Drivers_Library\boards\MicroBit\obj\zfp_lib_Debug\libada_drivers_library.a(nrf51-rtc.o)
                0x00000000000022f8                nrf51__rtc__clear
 .text.nrf51__rtc__set_prescaler
                0x000000000000230c       0x44 D:\programming\ada_projects\Ada_Drivers_Library\boards\MicroBit\obj\zfp_lib_Debug\libada_drivers_library.a(nrf51-rtc.o)
                0x000000000000230c                nrf51__rtc__set_prescaler
 .text.nrf51__rtc__set_compare
                0x0000000000002350       0x50 D:\programming\ada_projects\Ada_Drivers_Library\boards\MicroBit\obj\zfp_lib_Debug\libada_drivers_library.a(nrf51-rtc.o)
                0x0000000000002350                nrf51__rtc__set_compare
 .text.nrf51__rtc__enable_event
                0x00000000000023a0      0x21c D:\programming\ada_projects\Ada_Drivers_Library\boards\MicroBit\obj\zfp_lib_Debug\libada_drivers_library.a(nrf51-rtc.o)
                0x00000000000023a0                nrf51__rtc__enable_event
 .text.nrf51__tasks__trigger
                0x00000000000025bc       0x30 D:\programming\ada_projects\Ada_Drivers_Library\boards\MicroBit\obj\zfp_lib_Debug\libada_drivers_library.a(nrf51-tasks.o)
                0x00000000000025bc                nrf51__tasks__trigger
 .text.nrf51__tasks__get_address__2
                0x00000000000025ec       0x14 D:\programming\ada_projects\Ada_Drivers_Library\boards\MicroBit\obj\zfp_lib_Debug\libada_drivers_library.a(nrf51-tasks.o)
                0x00000000000025ec                nrf51__tasks__get_address__2
 .text.nrf51__timers__timerIP
                0x0000000000002600       0x2c D:\programming\ada_projects\Ada_Drivers_Library\boards\MicroBit\obj\zfp_lib_Debug\libada_drivers_library.a(nrf51-timers.o)
                0x0000000000002600                nrf51__timers__timerIP
 .text.nrf51__timers___size
                0x000000000000262c       0x18 D:\programming\ada_projects\Ada_Drivers_Library\boards\MicroBit\obj\zfp_lib_Debug\libada_drivers_library.a(nrf51-timers.o)
                0x000000000000262c                nrf51__timers___size
 .text.nrf51__timers__Oeq
                0x0000000000002644       0x24 D:\programming\ada_projects\Ada_Drivers_Library\boards\MicroBit\obj\zfp_lib_Debug\libada_drivers_library.a(nrf51-timers.o)
                0x0000000000002644                nrf51__timers__Oeq
 .text.nrf51__timers___assign
                0x0000000000002668       0x3c D:\programming\ada_projects\Ada_Drivers_Library\boards\MicroBit\obj\zfp_lib_Debug\libada_drivers_library.a(nrf51-timers.o)
                0x0000000000002668                nrf51__timers___assign
 .text.nrf51__timers__start
                0x00000000000026a4       0x38 D:\programming\ada_projects\Ada_Drivers_Library\boards\MicroBit\obj\zfp_lib_Debug\libada_drivers_library.a(nrf51-timers.o)
                0x00000000000026a4                nrf51__timers__start
 .text.nrf51__timers__stop
                0x00000000000026dc       0x38 D:\programming\ada_projects\Ada_Drivers_Library\boards\MicroBit\obj\zfp_lib_Debug\libada_drivers_library.a(nrf51-timers.o)
                0x00000000000026dc                nrf51__timers__stop
 .text.nrf51__timers__clear
                0x0000000000002714       0x38 D:\programming\ada_projects\Ada_Drivers_Library\boards\MicroBit\obj\zfp_lib_Debug\libada_drivers_library.a(nrf51-timers.o)
                0x0000000000002714                nrf51__timers__clear
 .text.nrf51__timers__set_prescaler
                0x000000000000274c       0x68 D:\programming\ada_projects\Ada_Drivers_Library\boards\MicroBit\obj\zfp_lib_Debug\libada_drivers_library.a(nrf51-timers.o)
                0x000000000000274c                nrf51__timers__set_prescaler
 .text.nrf51__timers__set_mode
                0x00000000000027b4       0x84 D:\programming\ada_projects\Ada_Drivers_Library\boards\MicroBit\obj\zfp_lib_Debug\libada_drivers_library.a(nrf51-timers.o)
                0x00000000000027b4                nrf51__timers__set_mode
 .text.nrf51__timers__set_bitmode___postconditions.4836
                0x0000000000002838       0x3c D:\programming\ada_projects\Ada_Drivers_Library\boards\MicroBit\obj\zfp_lib_Debug\libada_drivers_library.a(nrf51-timers.o)
 .text.nrf51__timers__set_bitmode
                0x0000000000002874       0xc0 D:\programming\ada_projects\Ada_Drivers_Library\boards\MicroBit\obj\zfp_lib_Debug\libada_drivers_library.a(nrf51-timers.o)
                0x0000000000002874                nrf51__timers__set_bitmode
 .text.nrf51__timers__bitmode
                0x0000000000002934       0x70 D:\programming\ada_projects\Ada_Drivers_Library\boards\MicroBit\obj\zfp_lib_Debug\libada_drivers_library.a(nrf51-timers.o)
                0x0000000000002934                nrf51__timers__bitmode
 .text.nrf51__timers__compare_interrupt
                0x00000000000029a4      0x124 D:\programming\ada_projects\Ada_Drivers_Library\boards\MicroBit\obj\zfp_lib_Debug\libada_drivers_library.a(nrf51-timers.o)
                0x00000000000029a4                nrf51__timers__compare_interrupt
 .text.nrf51__timers__compare_shortcut
                0x0000000000002ac8      0x274 D:\programming\ada_projects\Ada_Drivers_Library\boards\MicroBit\obj\zfp_lib_Debug\libada_drivers_library.a(nrf51-timers.o)
                0x0000000000002ac8                nrf51__timers__compare_shortcut
 .text.nrf51__timers__set_compare
                0x0000000000002d3c       0x50 D:\programming\ada_projects\Ada_Drivers_Library\boards\MicroBit\obj\zfp_lib_Debug\libada_drivers_library.a(nrf51-timers.o)
                0x0000000000002d3c                nrf51__timers__set_compare
 .text.nrf51__timers__capture
                0x0000000000002d8c       0x48 D:\programming\ada_projects\Ada_Drivers_Library\boards\MicroBit\obj\zfp_lib_Debug\libada_drivers_library.a(nrf51-timers.o)
                0x0000000000002d8c                nrf51__timers__capture
 .text.nrf51__timers__capture__2
                0x0000000000002dd4       0x5c D:\programming\ada_projects\Ada_Drivers_Library\boards\MicroBit\obj\zfp_lib_Debug\libada_drivers_library.a(nrf51-timers.o)
                0x0000000000002dd4                nrf51__timers__capture__2
 .text.nrf51__timers__cc_register
                0x0000000000002e30       0x4c D:\programming\ada_projects\Ada_Drivers_Library\boards\MicroBit\obj\zfp_lib_Debug\libada_drivers_library.a(nrf51-timers.o)
                0x0000000000002e30                nrf51__timers__cc_register
 .text.nrf51__timers__start_task
                0x0000000000002e7c       0x18 D:\programming\ada_projects\Ada_Drivers_Library\boards\MicroBit\obj\zfp_lib_Debug\libada_drivers_library.a(nrf51-timers.o)
                0x0000000000002e7c                nrf51__timers__start_task
 .text.nrf51__timers__stop_task
                0x0000000000002e94       0x18 D:\programming\ada_projects\Ada_Drivers_Library\boards\MicroBit\obj\zfp_lib_Debug\libada_drivers_library.a(nrf51-timers.o)
                0x0000000000002e94                nrf51__timers__stop_task
 .text.nrf51__timers__count_task
                0x0000000000002eac       0x18 D:\programming\ada_projects\Ada_Drivers_Library\boards\MicroBit\obj\zfp_lib_Debug\libada_drivers_library.a(nrf51-timers.o)
                0x0000000000002eac                nrf51__timers__count_task
 .text.nrf51__timers__clear_task
                0x0000000000002ec4       0x18 D:\programming\ada_projects\Ada_Drivers_Library\boards\MicroBit\obj\zfp_lib_Debug\libada_drivers_library.a(nrf51-timers.o)
                0x0000000000002ec4                nrf51__timers__clear_task
 .text.nrf51__timers__capture_task
                0x0000000000002edc       0x28 D:\programming\ada_projects\Ada_Drivers_Library\boards\MicroBit\obj\zfp_lib_Debug\libada_drivers_library.a(nrf51-timers.o)
                0x0000000000002edc                nrf51__timers__capture_task
 .text.nrf51__timers__compare_event
                0x0000000000002f04       0x28 D:\programming\ada_projects\Ada_Drivers_Library\boards\MicroBit\obj\zfp_lib_Debug\libada_drivers_library.a(nrf51-timers.o)
                0x0000000000002f04                nrf51__timers__compare_event
 .text.nrf51__timers___elabb
                0x0000000000002f2c       0x8c D:\programming\ada_projects\Ada_Drivers_Library\boards\MicroBit\obj\zfp_lib_Debug\libada_drivers_library.a(nrf51-timers.o)
                0x0000000000002f2c                nrf51__timers___elabb
 .text.nrf51__twi__twi_masterIP
                0x0000000000002fb8       0x34 D:\programming\ada_projects\Ada_Drivers_Library\boards\MicroBit\obj\zfp_lib_Debug\libada_drivers_library.a(nrf51-twi.o)
                0x0000000000002fb8                nrf51__twi__twi_masterIP
 .text.nrf51__twi___size__2
                0x0000000000002fec       0x18 D:\programming\ada_projects\Ada_Drivers_Library\boards\MicroBit\obj\zfp_lib_Debug\libada_drivers_library.a(nrf51-twi.o)
                0x0000000000002fec                nrf51__twi___size__2
 .text.nrf51__twi__Oeq
                0x0000000000003004       0x3c D:\programming\ada_projects\Ada_Drivers_Library\boards\MicroBit\obj\zfp_lib_Debug\libada_drivers_library.a(nrf51-twi.o)
                0x0000000000003004                nrf51__twi__Oeq
 .text.nrf51__twi___assign
                0x0000000000003040       0x3c D:\programming\ada_projects\Ada_Drivers_Library\boards\MicroBit\obj\zfp_lib_Debug\libada_drivers_library.a(nrf51-twi.o)
                0x0000000000003040                nrf51__twi___assign
 .text.nrf51__twi__stop_sequence
                0x000000000000307c       0x34 D:\programming\ada_projects\Ada_Drivers_Library\boards\MicroBit\obj\zfp_lib_Debug\libada_drivers_library.a(nrf51-twi.o)
 .text.nrf51__twi__enable
                0x00000000000030b0       0x58 D:\programming\ada_projects\Ada_Drivers_Library\boards\MicroBit\obj\zfp_lib_Debug\libada_drivers_library.a(nrf51-twi.o)
                0x00000000000030b0                nrf51__twi__enable
 .text.nrf51__twi__disable
                0x0000000000003108       0x54 D:\programming\ada_projects\Ada_Drivers_Library\boards\MicroBit\obj\zfp_lib_Debug\libada_drivers_library.a(nrf51-twi.o)
                0x0000000000003108                nrf51__twi__disable
 .text.nrf51__twi__enabled
                0x000000000000315c       0x50 D:\programming\ada_projects\Ada_Drivers_Library\boards\MicroBit\obj\zfp_lib_Debug\libada_drivers_library.a(nrf51-twi.o)
                0x000000000000315c                nrf51__twi__enabled
 .text.nrf51__twi__configure
                0x00000000000031ac       0x94 D:\programming\ada_projects\Ada_Drivers_Library\boards\MicroBit\obj\zfp_lib_Debug\libada_drivers_library.a(nrf51-twi.o)
                0x00000000000031ac                nrf51__twi__configure
 .text.nrf51__twi__disconnect
                0x0000000000003240       0x4c D:\programming\ada_projects\Ada_Drivers_Library\boards\MicroBit\obj\zfp_lib_Debug\libada_drivers_library.a(nrf51-twi.o)
                0x0000000000003240                nrf51__twi__disconnect
 .text.nrf51__twi__master_transmit
                0x000000000000328c      0x298 D:\programming\ada_projects\Ada_Drivers_Library\boards\MicroBit\obj\zfp_lib_Debug\libada_drivers_library.a(nrf51-twi.o)
                0x000000000000328c                nrf51__twi__master_transmit
 .text.nrf51__twi__master_receive
                0x0000000000003524      0x2d8 D:\programming\ada_projects\Ada_Drivers_Library\boards\MicroBit\obj\zfp_lib_Debug\libada_drivers_library.a(nrf51-twi.o)
                0x0000000000003524                nrf51__twi__master_receive
 .text.nrf51__twi__mem_write
                0x00000000000037fc      0x23c D:\programming\ada_projects\Ada_Drivers_Library\boards\MicroBit\obj\zfp_lib_Debug\libada_drivers_library.a(nrf51-twi.o)
                0x00000000000037fc                nrf51__twi__mem_write
 .text.nrf51__twi__mem_read
                0x0000000000003a38      0x23c D:\programming\ada_projects\Ada_Drivers_Library\boards\MicroBit\obj\zfp_lib_Debug\libada_drivers_library.a(nrf51-twi.o)
                0x0000000000003a38                nrf51__twi__mem_read
 .text.nrf51__twi___elabb
                0x0000000000003c74       0x64 D:\programming\ada_projects\Ada_Drivers_Library\boards\MicroBit\obj\zfp_lib_Debug\libada_drivers_library.a(nrf51-twi.o)
                0x0000000000003c74                nrf51__twi___elabb
 .text.nrf51_svd__gpio__pin_cnf_pull_fieldRP
                0x0000000000003cd8       0x3c D:\programming\ada_projects\Ada_Drivers_Library\boards\MicroBit\obj\zfp_lib_Debug\libada_drivers_library.a(nrf51_svd-gpio.o)
                0x0000000000003cd8                nrf51_svd__gpio__pin_cnf_pull_fieldRP
 .text.nrf51_svd__twi__errorsrc_registerIP
                0x0000000000003d14       0x48 D:\programming\ada_projects\Ada_Drivers_Library\boards\MicroBit\obj\zfp_lib_Debug\libada_drivers_library.a(nrf51_svd-twi.o)
                0x0000000000003d14                nrf51_svd__twi__errorsrc_registerIP
 .text.__gnat_last_chance_handler
                0x0000000000003d5c       0x80 D:\gnat\2018-arm-elf\arm-eabi\lib\gnat\zfp-microbit\adalib\libgnat.a(a-elchha.o)
                0x0000000000003d5c                __gnat_last_chance_handler
 .text.gnat__io__put__2
                0x0000000000003ddc       0x44 D:\gnat\2018-arm-elf\arm-eabi\lib\gnat\zfp-microbit\adalib\libgnat.a(g-io.o)
                0x0000000000003ddc                gnat__io__put__2
 .text.gnat__io__new_line
                0x0000000000003e20       0x14 D:\gnat\2018-arm-elf\arm-eabi\lib\gnat\zfp-microbit\adalib\libgnat.a(g-io.o)
                0x0000000000003e20                gnat__io__new_line
 .text.gnat__io__put__3
                0x0000000000003e34       0x20 D:\gnat\2018-arm-elf\arm-eabi\lib\gnat\zfp-microbit\adalib\libgnat.a(g-io.o)
                0x0000000000003e34                gnat__io__put__3
 .text.gnat__io__put
                0x0000000000003e54       0x6c D:\gnat\2018-arm-elf\arm-eabi\lib\gnat\zfp-microbit\adalib\libgnat.a(g-io.o)
                0x0000000000003e54                gnat__io__put
 .text.gnat__io__put_line
                0x0000000000003ec0       0x10 D:\gnat\2018-arm-elf\arm-eabi\lib\gnat\zfp-microbit\adalib\libgnat.a(g-io.o)
                0x0000000000003ec0                gnat__io__put_line
 .text.system__assertions__raise_assert_failure
                0x0000000000003ed0       0x68 D:\gnat\2018-arm-elf\arm-eabi\lib\gnat\zfp-microbit\adalib\libgnat.a(s-assert.o)
                0x0000000000003ed0                system__assertions__raise_assert_failure
 .text._exit    0x0000000000003f38       0x10 D:\gnat\2018-arm-elf\arm-eabi\lib\gnat\zfp-microbit\adalib\libgnat.a(s-macres.o)
                0x0000000000003f38                _exit
 .text.system__machine_reset__stop
                0x0000000000003f48       0x10 D:\gnat\2018-arm-elf\arm-eabi\lib\gnat\zfp-microbit\adalib\libgnat.a(s-macres.o)
                0x0000000000003f48                system__machine_reset__stop
 .text.memcpy   0x0000000000003f58       0x4c D:\gnat\2018-arm-elf\arm-eabi\lib\gnat\zfp-microbit\adalib\libgnat.a(s-memcop.o)
                0x0000000000003f58                memcpy
 .text.system__secondary_stack__ss_stackIP
                0x0000000000003fa4        0x4 D:\gnat\2018-arm-elf\arm-eabi\lib\gnat\zfp-microbit\adalib\libgnat.a(s-secsta.o)
                0x0000000000003fa4                system__secondary_stack__ss_stackIP
 .text.system__text_io__is_tx_ready
                0x0000000000003fa8       0x14 D:\gnat\2018-arm-elf\arm-eabi\lib\gnat\zfp-microbit\adalib\libgnat.a(s-textio.o)
                0x0000000000003fa8                system__text_io__is_tx_ready
 .text.system__text_io__put
                0x0000000000003fbc       0x20 D:\gnat\2018-arm-elf\arm-eabi\lib\gnat\zfp-microbit\adalib\libgnat.a(s-textio.o)
                0x0000000000003fbc                system__text_io__put
 .text.system__text_io__initialize
                0x0000000000003fdc       0x74 D:\gnat\2018-arm-elf\arm-eabi\lib\gnat\zfp-microbit\adalib\libgnat.a(s-textio.o)
                0x0000000000003fdc                system__text_io__initialize
 .text.system__text_io__use_cr_lf_for_new_line
                0x0000000000004050        0x4 D:\gnat\2018-arm-elf\arm-eabi\lib\gnat\zfp-microbit\adalib\libgnat.a(s-textio.o)
                0x0000000000004050                system__text_io__use_cr_lf_for_new_line
 .text          0x0000000000004054       0x50 D:\gnat\2018-arm-elf\arm-eabi\lib\gnat\zfp-microbit\adalib\libgnat.a(start-rom.o)
                0x0000000000004054                _start_rom
 .text          0x00000000000040a4        0xa D:\gnat\2018-arm-elf\arm-eabi\lib\gnat\zfp-microbit\adalib\libgnat.a(handler.o)
                0x00000000000040a6                __gnat_sv_call_trap
                0x00000000000040a8                __gnat_pend_sv_trap
                0x00000000000040aa                __gnat_sys_tick_trap
 .text          0x00000000000040ae       0x20 D:\gnat\2018-arm-elf\arm-eabi\lib\gnat\zfp-microbit\adalib\libgnat.a(breakpoint_handler-cortexm.o)
                0x00000000000040ae                __gnat_bkpt_trap
 *fill*         0x00000000000040ce        0x2 
 .text          0x00000000000040d0      0x1d4 d:/gnat/2018-arm-elf/bin/../lib/gcc/arm-eabi/7.3.1/thumb/v6-m\libgcc.a(_divsi3.o)
                0x00000000000040d0                __divsi3
                0x00000000000040d0                __aeabi_idiv
                0x000000000000429c                __aeabi_idivmod
 .text          0x00000000000042a4        0x4 d:/gnat/2018-arm-elf/bin/../lib/gcc/arm-eabi/7.3.1/thumb/v6-m\libgcc.a(_dvmd_tls.o)
                0x00000000000042a4                __aeabi_idiv0
                0x00000000000042a4                __aeabi_ldiv0
 .text          0x00000000000042a8       0x74 d:/gnat/2018-arm-elf/bin/../lib/gcc/arm-eabi/7.3.1/thumb/v6-m\libgcc.a(_arm_cmpsf2.o)
                0x00000000000042a8                __aeabi_cfrcmple
                0x00000000000042b0                __aeabi_cfcmpeq
                0x00000000000042b0                __aeabi_cfcmple
                0x00000000000042c0                __aeabi_fcmpeq
                0x00000000000042cc                __aeabi_fcmplt
                0x00000000000042e0                __aeabi_fcmple
                0x00000000000042f4                __aeabi_fcmpgt
                0x0000000000004308                __aeabi_fcmpge
 .text          0x000000000000431c       0x30 d:/gnat/2018-arm-elf/bin/../lib/gcc/arm-eabi/7.3.1/thumb/v6-m\libgcc.a(_fixunssfsi.o)
                0x000000000000431c                __fixunssfsi
                0x000000000000431c                __aeabi_f2uiz
 .text          0x000000000000434c      0x33c d:/gnat/2018-arm-elf/bin/../lib/gcc/arm-eabi/7.3.1/thumb/v6-m\libgcc.a(addsf3.o)
                0x000000000000434c                __aeabi_fadd
 .text          0x0000000000004688      0x21c d:/gnat/2018-arm-elf/bin/../lib/gcc/arm-eabi/7.3.1/thumb/v6-m\libgcc.a(divsf3.o)
                0x0000000000004688                __aeabi_fdiv
 .text          0x00000000000048a4       0x4c d:/gnat/2018-arm-elf/bin/../lib/gcc/arm-eabi/7.3.1/thumb/v6-m\libgcc.a(eqsf2.o)
                0x00000000000048a4                __eqsf2
                0x00000000000048a4                __nesf2
 .text          0x00000000000048f0       0x8c d:/gnat/2018-arm-elf/bin/../lib/gcc/arm-eabi/7.3.1/thumb/v6-m\libgcc.a(gesf2.o)
                0x00000000000048f0                __gesf2
                0x00000000000048f0                __gtsf2
 .text          0x000000000000497c       0x84 d:/gnat/2018-arm-elf/bin/../lib/gcc/arm-eabi/7.3.1/thumb/v6-m\libgcc.a(lesf2.o)
                0x000000000000497c                __ltsf2
                0x000000000000497c                __lesf2
 .text          0x0000000000004a00      0x264 d:/gnat/2018-arm-elf/bin/../lib/gcc/arm-eabi/7.3.1/thumb/v6-m\libgcc.a(mulsf3.o)
                0x0000000000004a00                __aeabi_fmul
 .text          0x0000000000004c64      0x38c d:/gnat/2018-arm-elf/bin/../lib/gcc/arm-eabi/7.3.1/thumb/v6-m\libgcc.a(subsf3.o)
                0x0000000000004c64                __aeabi_fsub
 .text          0x0000000000004ff0       0x2c d:/gnat/2018-arm-elf/bin/../lib/gcc/arm-eabi/7.3.1/thumb/v6-m\libgcc.a(unordsf2.o)
                0x0000000000004ff0                __aeabi_fcmpun
 .text          0x000000000000501c       0x40 d:/gnat/2018-arm-elf/bin/../lib/gcc/arm-eabi/7.3.1/thumb/v6-m\libgcc.a(fixsfsi.o)
                0x000000000000501c                __aeabi_f2iz
 .text          0x000000000000505c       0x94 d:/gnat/2018-arm-elf/bin/../lib/gcc/arm-eabi/7.3.1/thumb/v6-m\libgcc.a(floatsisf.o)
                0x000000000000505c                __aeabi_i2f
 .text          0x00000000000050f0       0x80 d:/gnat/2018-arm-elf/bin/../lib/gcc/arm-eabi/7.3.1/thumb/v6-m\libgcc.a(floatunsisf.o)
                0x00000000000050f0                __aeabi_ui2f
 .text          0x0000000000005170       0x3c d:/gnat/2018-arm-elf/bin/../lib/gcc/arm-eabi/7.3.1/thumb/v6-m\libgcc.a(_clzsi2.o)
                0x0000000000005170                __clzsi2
 *(.gnu.warning)

.glue_7         0x00000000000051ac        0x0
 .glue_7        0x00000000000051ac        0x0 linker stubs

.glue_7t        0x00000000000051ac        0x0
 .glue_7t       0x00000000000051ac        0x0 linker stubs

.vfp11_veneer   0x00000000000051ac        0x0
 .vfp11_veneer  0x00000000000051ac        0x0 linker stubs

.v4_bx          0x00000000000051ac        0x0
 .v4_bx         0x00000000000051ac        0x0 linker stubs

.iplt           0x00000000000051ac        0x0
 .iplt          0x00000000000051ac        0x0 main.o

.ARM.extab
 *(.ARM.extab* .gnu.linkonce.armextab.*)
                [!provide]                        PROVIDE (__exidx_start, .)

.ARM.exidx
 *(.ARM.exidx* .gnu.linkonce.armexidx.*)
                [!provide]                        PROVIDE (__exidx_end, .)

.rodata         0x00000000000051ac      0x9ec
 *(.lit)
 *(.rodata .rodata.* .gnu.linkonce.r*)
 .rodata        0x00000000000051ac       0x28 main.o
 .rodata        0x00000000000051d4        0x8 b__main.o
 .rodata.__gnat_ada_main_program_name
                0x00000000000051dc        0xa b__main.o
                0x00000000000051dc                __gnat_ada_main_program_name
 *fill*         0x00000000000051e6        0x2 
 .rodata        0x00000000000051e8      0x1be D:\programming\ada_projects\Ada_Drivers_Library\boards\MicroBit\obj\zfp_lib_Debug\libada_drivers_library.a(microbit-ios.o)
 *fill*         0x00000000000053a6        0x2 
 .rodata        0x00000000000053a8       0x14 D:\programming\ada_projects\Ada_Drivers_Library\boards\MicroBit\obj\zfp_lib_Debug\libada_drivers_library.a(microbit-servos.o)
 .rodata        0x00000000000053bc       0xe2 D:\programming\ada_projects\Ada_Drivers_Library\boards\MicroBit\obj\zfp_lib_Debug\libada_drivers_library.a(microbit-time.o)
 *fill*         0x000000000000549e        0x2 
 .rodata.microbit__time__mb_delaysE19s
                0x00000000000054a0       0x18 D:\programming\ada_projects\Ada_Drivers_Library\boards\MicroBit\obj\zfp_lib_Debug\libada_drivers_library.a(microbit-time.o)
                0x00000000000054a0                microbit__time__mb_delaysE19s
 .rodata.microbit__time__mb_delaysB23s
                0x00000000000054b8       0x20 D:\programming\ada_projects\Ada_Drivers_Library\boards\MicroBit\obj\zfp_lib_Debug\libada_drivers_library.a(microbit-time.o)
                0x00000000000054b8                microbit__time__mb_delaysB23s
 .rodata.microbit__time__mb_delaysR21s___UNC
                0x00000000000054d8       0x24 D:\programming\ada_projects\Ada_Drivers_Library\boards\MicroBit\obj\zfp_lib_Debug\libada_drivers_library.a(microbit-time.o)
                0x00000000000054d8                microbit__time__mb_delaysR21s___UNC
 .rodata.microbit__time__mb_delaysT
                0x00000000000054fc       0x1c D:\programming\ada_projects\Ada_Drivers_Library\boards\MicroBit\obj\zfp_lib_Debug\libada_drivers_library.a(microbit-time.o)
                0x00000000000054fc                microbit__time__mb_delaysT
 .rodata        0x0000000000005518       0x10 D:\programming\ada_projects\Ada_Drivers_Library\boards\MicroBit\obj\zfp_lib_Debug\libada_drivers_library.a(nrf51-clock.o)
 .rodata        0x0000000000005528       0x11 D:\programming\ada_projects\Ada_Drivers_Library\boards\MicroBit\obj\zfp_lib_Debug\libada_drivers_library.a(nrf51-events.o)
 *fill*         0x0000000000005539        0x3 
 .rodata        0x000000000000553c       0x20 D:\programming\ada_projects\Ada_Drivers_Library\boards\MicroBit\obj\zfp_lib_Debug\libada_drivers_library.a(nrf51-gpio-tasks_and_events.o)
 .rodata        0x000000000000555c       0xc3 D:\programming\ada_projects\Ada_Drivers_Library\boards\MicroBit\obj\zfp_lib_Debug\libada_drivers_library.a(nrf51-gpio.o)
 *fill*         0x000000000000561f        0x1 
 .rodata.nrf51__gpio__configure_io
                0x0000000000005620       0x1c D:\programming\ada_projects\Ada_Drivers_Library\boards\MicroBit\obj\zfp_lib_Debug\libada_drivers_library.a(nrf51-gpio.o)
 .rodata.nrf51__gpio__gpio_pointE15s
                0x000000000000563c       0x16 D:\programming\ada_projects\Ada_Drivers_Library\boards\MicroBit\obj\zfp_lib_Debug\libada_drivers_library.a(nrf51-gpio.o)
                0x000000000000563c                nrf51__gpio__gpio_pointE15s
 *fill*         0x0000000000005652        0x2 
 .rodata.nrf51__gpio__gpio_pointB19s
                0x0000000000005654       0x20 D:\programming\ada_projects\Ada_Drivers_Library\boards\MicroBit\obj\zfp_lib_Debug\libada_drivers_library.a(nrf51-gpio.o)
                0x0000000000005654                nrf51__gpio__gpio_pointB19s
 .rodata.nrf51__gpio__gpio_pointR17s___UNC
                0x0000000000005674       0x24 D:\programming\ada_projects\Ada_Drivers_Library\boards\MicroBit\obj\zfp_lib_Debug\libada_drivers_library.a(nrf51-gpio.o)
                0x0000000000005674                nrf51__gpio__gpio_pointR17s___UNC
 .rodata.nrf51__gpio__gpio_pointT
                0x0000000000005698       0x38 D:\programming\ada_projects\Ada_Drivers_Library\boards\MicroBit\obj\zfp_lib_Debug\libada_drivers_library.a(nrf51-gpio.o)
                0x0000000000005698                nrf51__gpio__gpio_pointT
 .rodata        0x00000000000056d0       0x15 D:\programming\ada_projects\Ada_Drivers_Library\boards\MicroBit\obj\zfp_lib_Debug\libada_drivers_library.a(nrf51-interrupts.o)
 *fill*         0x00000000000056e5        0x3 
 .rodata        0x00000000000056e8        0xe D:\programming\ada_projects\Ada_Drivers_Library\boards\MicroBit\obj\zfp_lib_Debug\libada_drivers_library.a(nrf51-ppi.o)
 *fill*         0x00000000000056f6        0x2 
 .rodata        0x00000000000056f8        0xe D:\programming\ada_projects\Ada_Drivers_Library\boards\MicroBit\obj\zfp_lib_Debug\libada_drivers_library.a(nrf51-rtc.o)
 *fill*         0x0000000000005706        0x2 
 .rodata.nrf51__rtc__enable_event
                0x0000000000005708       0x14 D:\programming\ada_projects\Ada_Drivers_Library\boards\MicroBit\obj\zfp_lib_Debug\libada_drivers_library.a(nrf51-rtc.o)
 .rodata        0x000000000000571c       0x10 D:\programming\ada_projects\Ada_Drivers_Library\boards\MicroBit\obj\zfp_lib_Debug\libada_drivers_library.a(nrf51-tasks.o)
 .rodata        0x000000000000572c       0x60 D:\programming\ada_projects\Ada_Drivers_Library\boards\MicroBit\obj\zfp_lib_Debug\libada_drivers_library.a(nrf51-timers.o)
 .rodata.nrf51__timers__timerE21s
                0x000000000000578c       0x13 D:\programming\ada_projects\Ada_Drivers_Library\boards\MicroBit\obj\zfp_lib_Debug\libada_drivers_library.a(nrf51-timers.o)
                0x000000000000578c                nrf51__timers__timerE21s
 *fill*         0x000000000000579f        0x1 
 .rodata.nrf51__timers__timerB25s
                0x00000000000057a0       0x1c D:\programming\ada_projects\Ada_Drivers_Library\boards\MicroBit\obj\zfp_lib_Debug\libada_drivers_library.a(nrf51-timers.o)
                0x00000000000057a0                nrf51__timers__timerB25s
 .rodata.nrf51__timers__timerR23s___UNC
                0x00000000000057bc       0x24 D:\programming\ada_projects\Ada_Drivers_Library\boards\MicroBit\obj\zfp_lib_Debug\libada_drivers_library.a(nrf51-timers.o)
                0x00000000000057bc                nrf51__timers__timerR23s___UNC
 .rodata.nrf51__timers__timerT
                0x00000000000057e0       0x5c D:\programming\ada_projects\Ada_Drivers_Library\boards\MicroBit\obj\zfp_lib_Debug\libada_drivers_library.a(nrf51-timers.o)
                0x00000000000057e0                nrf51__timers__timerT
 .rodata        0x000000000000583c       0xe6 D:\programming\ada_projects\Ada_Drivers_Library\boards\MicroBit\obj\zfp_lib_Debug\libada_drivers_library.a(nrf51-twi.o)
 *fill*         0x0000000000005922        0x2 
 .rodata.nrf51__twi__twi_masterE24s
                0x0000000000005924       0x15 D:\programming\ada_projects\Ada_Drivers_Library\boards\MicroBit\obj\zfp_lib_Debug\libada_drivers_library.a(nrf51-twi.o)
                0x0000000000005924                nrf51__twi__twi_masterE24s
 *fill*         0x0000000000005939        0x3 
 .rodata.nrf51__twi__twi_masterB28s
                0x000000000000593c       0x20 D:\programming\ada_projects\Ada_Drivers_Library\boards\MicroBit\obj\zfp_lib_Debug\libada_drivers_library.a(nrf51-twi.o)
                0x000000000000593c                nrf51__twi__twi_masterB28s
 .rodata.nrf51__twi__twi_masterR26s___UNC
                0x000000000000595c       0x24 D:\programming\ada_projects\Ada_Drivers_Library\boards\MicroBit\obj\zfp_lib_Debug\libada_drivers_library.a(nrf51-twi.o)
                0x000000000000595c                nrf51__twi__twi_masterR26s___UNC
 .rodata.nrf51__twi__twi_masterT
                0x0000000000005980       0x34 D:\programming\ada_projects\Ada_Drivers_Library\boards\MicroBit\obj\zfp_lib_Debug\libada_drivers_library.a(nrf51-twi.o)
                0x0000000000005980                nrf51__twi__twi_masterT
 .rodata.hal__gpio__gpio_pointE7s
                0x00000000000059b4       0x14 D:\programming\ada_projects\Ada_Drivers_Library\boards\MicroBit\obj\zfp_lib_Debug\libada_drivers_library.a(hal-gpio.o)
                0x00000000000059b4                hal__gpio__gpio_pointE7s
 .rodata.hal__gpio__gpio_pointB11s
                0x00000000000059c8       0x1c D:\programming\ada_projects\Ada_Drivers_Library\boards\MicroBit\obj\zfp_lib_Debug\libada_drivers_library.a(hal-gpio.o)
                0x00000000000059c8                hal__gpio__gpio_pointB11s
 .rodata.hal__gpio__gpio_pointT
                0x00000000000059e4        0x8 D:\programming\ada_projects\Ada_Drivers_Library\boards\MicroBit\obj\zfp_lib_Debug\libada_drivers_library.a(hal-gpio.o)
                0x00000000000059e4                hal__gpio__gpio_pointT
 .rodata.hal__i2c__i2c_portE4s
                0x00000000000059ec       0x11 D:\programming\ada_projects\Ada_Drivers_Library\boards\MicroBit\obj\zfp_lib_Debug\libada_drivers_library.a(hal-i2c.o)
                0x00000000000059ec                hal__i2c__i2c_portE4s
 *fill*         0x00000000000059fd        0x3 
 .rodata.hal__i2c__i2c_portB8s
                0x0000000000005a00       0x1c D:\programming\ada_projects\Ada_Drivers_Library\boards\MicroBit\obj\zfp_lib_Debug\libada_drivers_library.a(hal-i2c.o)
                0x0000000000005a00                hal__i2c__i2c_portB8s
 .rodata.hal__i2c__i2c_portT
                0x0000000000005a1c        0x8 D:\programming\ada_projects\Ada_Drivers_Library\boards\MicroBit\obj\zfp_lib_Debug\libada_drivers_library.a(hal-i2c.o)
                0x0000000000005a1c                hal__i2c__i2c_portT
 .rodata.hal__time__delaysE4s
                0x0000000000005a24       0x10 D:\programming\ada_projects\Ada_Drivers_Library\boards\MicroBit\obj\zfp_lib_Debug\libada_drivers_library.a(hal-time.o)
                0x0000000000005a24                hal__time__delaysE4s
 .rodata.hal__time__delaysB8s
                0x0000000000005a34       0x1c D:\programming\ada_projects\Ada_Drivers_Library\boards\MicroBit\obj\zfp_lib_Debug\libada_drivers_library.a(hal-time.o)
                0x0000000000005a34                hal__time__delaysB8s
 .rodata.hal__time__delaysT
                0x0000000000005a50        0x8 D:\programming\ada_projects\Ada_Drivers_Library\boards\MicroBit\obj\zfp_lib_Debug\libada_drivers_library.a(hal-time.o)
                0x0000000000005a50                hal__time__delaysT
 .rodata        0x0000000000005a58       0x18 D:\gnat\2018-arm-elf\arm-eabi\lib\gnat\zfp-microbit\adalib\libgnat.a(a-elchha.o)
 .rodata.__gnat_last_chance_handler.str1.4
                0x0000000000005a70       0x5c D:\gnat\2018-arm-elf\arm-eabi\lib\gnat\zfp-microbit\adalib\libgnat.a(a-elchha.o)
                                         0x5a (size before relaxing)
 .rodata.ada__exceptions__empty_c_string___UNC
                0x0000000000005acc        0xc D:\gnat\2018-arm-elf\arm-eabi\lib\gnat\zfp-microbit\adalib\libgnat.a(a-except.o)
                0x0000000000005acc                ada__exceptions__empty_c_string___UNC
 .rodata        0x0000000000005ad8       0x80 d:/gnat/2018-arm-elf/bin/../lib/gcc/arm-eabi/7.3.1/thumb/v6-m\libgcc.a(divsf3.o)
 .rodata        0x0000000000005b58       0x40 d:/gnat/2018-arm-elf/bin/../lib/gcc/arm-eabi/7.3.1/thumb/v6-m\libgcc.a(mulsf3.o)
                0x0000000000005b98                . = ALIGN (0x4)
                0x0000000000005b98                __rom_end = .
                0x0000000000005b98                __data_load = __rom_end

.rel.dyn        0x0000000000005b98        0x0
 .rel.iplt      0x0000000000005b98        0x0 main.o

.data           0x0000000020000000      0x130 load address 0x0000000000005b98
                0x0000000020000000                __data_start = .
 *(.data .data.* .gnu.linkonce.d*)
 .data.cortex_m__nvic_E
                0x0000000020000000        0x2 D:\programming\ada_projects\Ada_Drivers_Library\boards\MicroBit\obj\zfp_lib_Debug\libada_drivers_library.a(cortex_m-nvic.o)
                0x0000000020000000                cortex_m__nvic_E
 .data.microbit__ios_E
                0x0000000020000002        0x2 D:\programming\ada_projects\Ada_Drivers_Library\boards\MicroBit\obj\zfp_lib_Debug\libada_drivers_library.a(microbit-ios.o)
                0x0000000020000002                microbit__ios_E
 .data.microbit__ios__current_mode
                0x0000000020000004       0x15 D:\programming\ada_projects\Ada_Drivers_Library\boards\MicroBit\obj\zfp_lib_Debug\libada_drivers_library.a(microbit-ios.o)
                0x0000000020000004                microbit__ios__current_mode
 *fill*         0x0000000020000019        0x3 
 .data.microbit__ios__pwm_alloc
                0x000000002000001c       0x15 D:\programming\ada_projects\Ada_Drivers_Library\boards\MicroBit\obj\zfp_lib_Debug\libada_drivers_library.a(microbit-ios.o)
                0x000000002000001c                microbit__ios__pwm_alloc
 *fill*         0x0000000020000031        0x3 
 .data.microbit__ios__pwm_period
                0x0000000020000034        0x4 D:\programming\ada_projects\Ada_Drivers_Library\boards\MicroBit\obj\zfp_lib_Debug\libada_drivers_library.a(microbit-ios.o)
                0x0000000020000034                microbit__ios__pwm_period
 .data.microbit__servos_E
                0x0000000020000038        0x2 D:\programming\ada_projects\Ada_Drivers_Library\boards\MicroBit\obj\zfp_lib_Debug\libada_drivers_library.a(microbit-servos.o)
                0x0000000020000038                microbit__servos_E
 .data.microbit__servos__analog_period_set
                0x000000002000003a        0x1 D:\programming\ada_projects\Ada_Drivers_Library\boards\MicroBit\obj\zfp_lib_Debug\libada_drivers_library.a(microbit-servos.o)
                0x000000002000003a                microbit__servos__analog_period_set
 *fill*         0x000000002000003b        0x1 
 .data.microbit__time_E
                0x000000002000003c        0x2 D:\programming\ada_projects\Ada_Drivers_Library\boards\MicroBit\obj\zfp_lib_Debug\libada_drivers_library.a(microbit-time.o)
                0x000000002000003c                microbit__time_E
 .data.microbit__time__delay_microsecondsE46b
                0x000000002000003e        0x1 D:\programming\ada_projects\Ada_Drivers_Library\boards\MicroBit\obj\zfp_lib_Debug\libada_drivers_library.a(microbit-time.o)
                0x000000002000003e                microbit__time__delay_microsecondsE46b
 .data.microbit__time__delay_millisecondsE47b
                0x000000002000003f        0x1 D:\programming\ada_projects\Ada_Drivers_Library\boards\MicroBit\obj\zfp_lib_Debug\libada_drivers_library.a(microbit-time.o)
                0x000000002000003f                microbit__time__delay_millisecondsE47b
 .data.microbit__time__delay_secondsE48b
                0x0000000020000040        0x1 D:\programming\ada_projects\Ada_Drivers_Library\boards\MicroBit\obj\zfp_lib_Debug\libada_drivers_library.a(microbit-time.o)
                0x0000000020000040                microbit__time__delay_secondsE48b
 *fill*         0x0000000020000041        0x7 
 .data.microbit__time__clock_ms
                0x0000000020000048        0x8 D:\programming\ada_projects\Ada_Drivers_Library\boards\MicroBit\obj\zfp_lib_Debug\libada_drivers_library.a(microbit-time.o)
 .data.microbit__time__subscribers
                0x0000000020000050       0x28 D:\programming\ada_projects\Ada_Drivers_Library\boards\MicroBit\obj\zfp_lib_Debug\libada_drivers_library.a(microbit-time.o)
 .data.nrf51__adc_E
                0x0000000020000078        0x2 D:\programming\ada_projects\Ada_Drivers_Library\boards\MicroBit\obj\zfp_lib_Debug\libada_drivers_library.a(nrf51-adc.o)
                0x0000000020000078                nrf51__adc_E
 .data.nrf51__clock_E
                0x000000002000007a        0x2 D:\programming\ada_projects\Ada_Drivers_Library\boards\MicroBit\obj\zfp_lib_Debug\libada_drivers_library.a(nrf51-clock.o)
                0x000000002000007a                nrf51__clock_E
 .data.nrf51__device_E
                0x000000002000007c        0x2 D:\programming\ada_projects\Ada_Drivers_Library\boards\MicroBit\obj\zfp_lib_Debug\libada_drivers_library.a(nrf51-device.o)
                0x000000002000007c                nrf51__device_E
 .data.nrf51__events_E
                0x000000002000007e        0x2 D:\programming\ada_projects\Ada_Drivers_Library\boards\MicroBit\obj\zfp_lib_Debug\libada_drivers_library.a(nrf51-events.o)
                0x000000002000007e                nrf51__events_E
 .data.nrf51__gpio__tasks_and_events_E
                0x0000000020000080        0x2 D:\programming\ada_projects\Ada_Drivers_Library\boards\MicroBit\obj\zfp_lib_Debug\libada_drivers_library.a(nrf51-gpio-tasks_and_events.o)
                0x0000000020000080                nrf51__gpio__tasks_and_events_E
 .data.nrf51__gpio_E
                0x0000000020000082        0x2 D:\programming\ada_projects\Ada_Drivers_Library\boards\MicroBit\obj\zfp_lib_Debug\libada_drivers_library.a(nrf51-gpio.o)
                0x0000000020000082                nrf51__gpio_E
 .data.nrf51__gpio__modeE4b
                0x0000000020000084        0x1 D:\programming\ada_projects\Ada_Drivers_Library\boards\MicroBit\obj\zfp_lib_Debug\libada_drivers_library.a(nrf51-gpio.o)
                0x0000000020000084                nrf51__gpio__modeE4b
 .data.nrf51__gpio__set_modeE11b
                0x0000000020000085        0x1 D:\programming\ada_projects\Ada_Drivers_Library\boards\MicroBit\obj\zfp_lib_Debug\libada_drivers_library.a(nrf51-gpio.o)
                0x0000000020000085                nrf51__gpio__set_modeE11b
 .data.nrf51__gpio__pull_resistorE17b
                0x0000000020000086        0x1 D:\programming\ada_projects\Ada_Drivers_Library\boards\MicroBit\obj\zfp_lib_Debug\libada_drivers_library.a(nrf51-gpio.o)
                0x0000000020000086                nrf51__gpio__pull_resistorE17b
 .data.nrf51__gpio__set_pull_resistorE23b
                0x0000000020000087        0x1 D:\programming\ada_projects\Ada_Drivers_Library\boards\MicroBit\obj\zfp_lib_Debug\libada_drivers_library.a(nrf51-gpio.o)
                0x0000000020000087                nrf51__gpio__set_pull_resistorE23b
 .data.nrf51__gpio__configure_ioE38b
                0x0000000020000088        0x1 D:\programming\ada_projects\Ada_Drivers_Library\boards\MicroBit\obj\zfp_lib_Debug\libada_drivers_library.a(nrf51-gpio.o)
                0x0000000020000088                nrf51__gpio__configure_ioE38b
 *fill*         0x0000000020000089        0x1 
 .data.nrf51__interrupts_E
                0x000000002000008a        0x2 D:\programming\ada_projects\Ada_Drivers_Library\boards\MicroBit\obj\zfp_lib_Debug\libada_drivers_library.a(nrf51-interrupts.o)
                0x000000002000008a                nrf51__interrupts_E
 .data.nrf51__interrupts__handlers
                0x000000002000008c       0x80 D:\programming\ada_projects\Ada_Drivers_Library\boards\MicroBit\obj\zfp_lib_Debug\libada_drivers_library.a(nrf51-interrupts.o)
 .data.nrf51__ppi_E
                0x000000002000010c        0x2 D:\programming\ada_projects\Ada_Drivers_Library\boards\MicroBit\obj\zfp_lib_Debug\libada_drivers_library.a(nrf51-ppi.o)
                0x000000002000010c                nrf51__ppi_E
 .data.nrf51__rtc_E
                0x000000002000010e        0x2 D:\programming\ada_projects\Ada_Drivers_Library\boards\MicroBit\obj\zfp_lib_Debug\libada_drivers_library.a(nrf51-rtc.o)
                0x000000002000010e                nrf51__rtc_E
 .data.nrf51__tasks_E
                0x0000000020000110        0x2 D:\programming\ada_projects\Ada_Drivers_Library\boards\MicroBit\obj\zfp_lib_Debug\libada_drivers_library.a(nrf51-tasks.o)
                0x0000000020000110                nrf51__tasks_E
 .data.nrf51__timers_E
                0x0000000020000112        0x2 D:\programming\ada_projects\Ada_Drivers_Library\boards\MicroBit\obj\zfp_lib_Debug\libada_drivers_library.a(nrf51-timers.o)
                0x0000000020000112                nrf51__timers_E
 .data.nrf51__timers__set_prescalerE4b
                0x0000000020000114        0x1 D:\programming\ada_projects\Ada_Drivers_Library\boards\MicroBit\obj\zfp_lib_Debug\libada_drivers_library.a(nrf51-timers.o)
                0x0000000020000114                nrf51__timers__set_prescalerE4b
 .data.nrf51__timers__set_modeE6b
                0x0000000020000115        0x1 D:\programming\ada_projects\Ada_Drivers_Library\boards\MicroBit\obj\zfp_lib_Debug\libada_drivers_library.a(nrf51-timers.o)
                0x0000000020000115                nrf51__timers__set_modeE6b
 .data.nrf51__timers__set_bitmodeE11b
                0x0000000020000116        0x1 D:\programming\ada_projects\Ada_Drivers_Library\boards\MicroBit\obj\zfp_lib_Debug\libada_drivers_library.a(nrf51-timers.o)
                0x0000000020000116                nrf51__timers__set_bitmodeE11b
 .data.nrf51__timers__bitmodeE19b
                0x0000000020000117        0x1 D:\programming\ada_projects\Ada_Drivers_Library\boards\MicroBit\obj\zfp_lib_Debug\libada_drivers_library.a(nrf51-timers.o)
                0x0000000020000117                nrf51__timers__bitmodeE19b
 .data.nrf51__timers__compare_interruptE26b
                0x0000000020000118        0x1 D:\programming\ada_projects\Ada_Drivers_Library\boards\MicroBit\obj\zfp_lib_Debug\libada_drivers_library.a(nrf51-timers.o)
                0x0000000020000118                nrf51__timers__compare_interruptE26b
 .data.nrf51__timers__startE1b
                0x0000000020000119        0x1 D:\programming\ada_projects\Ada_Drivers_Library\boards\MicroBit\obj\zfp_lib_Debug\libada_drivers_library.a(nrf51-timers.o)
                0x0000000020000119                nrf51__timers__startE1b
 .data.nrf51__timers__stopE2b
                0x000000002000011a        0x1 D:\programming\ada_projects\Ada_Drivers_Library\boards\MicroBit\obj\zfp_lib_Debug\libada_drivers_library.a(nrf51-timers.o)
                0x000000002000011a                nrf51__timers__stopE2b
 .data.nrf51__timers__clearE3b
                0x000000002000011b        0x1 D:\programming\ada_projects\Ada_Drivers_Library\boards\MicroBit\obj\zfp_lib_Debug\libada_drivers_library.a(nrf51-timers.o)
                0x000000002000011b                nrf51__timers__clearE3b
 .data.nrf51__timers__compare_shortcutE27b
                0x000000002000011c        0x1 D:\programming\ada_projects\Ada_Drivers_Library\boards\MicroBit\obj\zfp_lib_Debug\libada_drivers_library.a(nrf51-timers.o)
                0x000000002000011c                nrf51__timers__compare_shortcutE27b
 .data.nrf51__timers__set_compareE28b
                0x000000002000011d        0x1 D:\programming\ada_projects\Ada_Drivers_Library\boards\MicroBit\obj\zfp_lib_Debug\libada_drivers_library.a(nrf51-timers.o)
                0x000000002000011d                nrf51__timers__set_compareE28b
 .data.nrf51__timers__captureE29b
                0x000000002000011e        0x1 D:\programming\ada_projects\Ada_Drivers_Library\boards\MicroBit\obj\zfp_lib_Debug\libada_drivers_library.a(nrf51-timers.o)
                0x000000002000011e                nrf51__timers__captureE29b
 .data.nrf51__timers__captureE31b
                0x000000002000011f        0x1 D:\programming\ada_projects\Ada_Drivers_Library\boards\MicroBit\obj\zfp_lib_Debug\libada_drivers_library.a(nrf51-timers.o)
                0x000000002000011f                nrf51__timers__captureE31b
 .data.nrf51__timers__cc_registerE33b
                0x0000000020000120        0x1 D:\programming\ada_projects\Ada_Drivers_Library\boards\MicroBit\obj\zfp_lib_Debug\libada_drivers_library.a(nrf51-timers.o)
                0x0000000020000120                nrf51__timers__cc_registerE33b
 *fill*         0x0000000020000121        0x1 
 .data.nrf51__twi_E
                0x0000000020000122        0x2 D:\programming\ada_projects\Ada_Drivers_Library\boards\MicroBit\obj\zfp_lib_Debug\libada_drivers_library.a(nrf51-twi.o)
                0x0000000020000122                nrf51__twi_E
 .data.nrf51__twi__enableE1b
                0x0000000020000124        0x1 D:\programming\ada_projects\Ada_Drivers_Library\boards\MicroBit\obj\zfp_lib_Debug\libada_drivers_library.a(nrf51-twi.o)
                0x0000000020000124                nrf51__twi__enableE1b
 .data.nrf51__twi__disableE2b
                0x0000000020000125        0x1 D:\programming\ada_projects\Ada_Drivers_Library\boards\MicroBit\obj\zfp_lib_Debug\libada_drivers_library.a(nrf51-twi.o)
                0x0000000020000125                nrf51__twi__disableE2b
 .data.nrf51__twi__enabledE5b
                0x0000000020000126        0x1 D:\programming\ada_projects\Ada_Drivers_Library\boards\MicroBit\obj\zfp_lib_Debug\libada_drivers_library.a(nrf51-twi.o)
                0x0000000020000126                nrf51__twi__enabledE5b
 .data.nrf51__twi__configureE7b
                0x0000000020000127        0x1 D:\programming\ada_projects\Ada_Drivers_Library\boards\MicroBit\obj\zfp_lib_Debug\libada_drivers_library.a(nrf51-twi.o)
                0x0000000020000127                nrf51__twi__configureE7b
 .data.nrf51__twi__disconnectE8b
                0x0000000020000128        0x1 D:\programming\ada_projects\Ada_Drivers_Library\boards\MicroBit\obj\zfp_lib_Debug\libada_drivers_library.a(nrf51-twi.o)
                0x0000000020000128                nrf51__twi__disconnectE8b
 .data.nrf51__twi__master_transmitE17b
                0x0000000020000129        0x1 D:\programming\ada_projects\Ada_Drivers_Library\boards\MicroBit\obj\zfp_lib_Debug\libada_drivers_library.a(nrf51-twi.o)
                0x0000000020000129                nrf51__twi__master_transmitE17b
 .data.nrf51__twi__master_receiveE27b
                0x000000002000012a        0x1 D:\programming\ada_projects\Ada_Drivers_Library\boards\MicroBit\obj\zfp_lib_Debug\libada_drivers_library.a(nrf51-twi.o)
                0x000000002000012a                nrf51__twi__master_receiveE27b
 .data.nrf51__twi__mem_writeE41b
                0x000000002000012b        0x1 D:\programming\ada_projects\Ada_Drivers_Library\boards\MicroBit\obj\zfp_lib_Debug\libada_drivers_library.a(nrf51-twi.o)
                0x000000002000012b                nrf51__twi__mem_writeE41b
 .data.nrf51__twi__mem_readE55b
                0x000000002000012c        0x1 D:\programming\ada_projects\Ada_Drivers_Library\boards\MicroBit\obj\zfp_lib_Debug\libada_drivers_library.a(nrf51-twi.o)
                0x000000002000012c                nrf51__twi__mem_readE55b
 .data.system__text_io__initialized
                0x000000002000012d        0x1 D:\gnat\2018-arm-elf\arm-eabi\lib\gnat\zfp-microbit\adalib\libgnat.a(s-textio.o)
                0x000000002000012d                system__text_io__initialized
                0x0000000020000130                . = ALIGN (0x4)
 *fill*         0x000000002000012e        0x2 
                0x0000000020000130                __data_end = .
                0x000000000000004c                __data_words = ((__data_end - __data_start) >> 0x2)

.igot.plt       0x0000000020000130        0x0 load address 0x0000000000005cc8
 .igot.plt      0x0000000020000130        0x0 main.o

.bss            0x0000000020000130      0x828 load address 0x0000000000005cc8
                0x0000000020000130                . = ALIGN (0x8)
                0x0000000020000130                __bss_start = .
 *(.bss .bss.*)
 .bss.ada_main__sec_default_sized_stacks
                0x0000000020000130      0x210 b__main.o
 .bss.microbit__ios__points
                0x0000000020000340       0xa8 D:\programming\ada_projects\Ada_Drivers_Library\boards\MicroBit\obj\zfp_lib_Debug\libada_drivers_library.a(microbit-ios.o)
                0x0000000020000340                microbit__ios__points
 .bss.microbit__ios__pwms
                0x00000000200003e8       0x24 D:\programming\ada_projects\Ada_Drivers_Library\boards\MicroBit\obj\zfp_lib_Debug\libada_drivers_library.a(microbit-ios.o)
                0x00000000200003e8                microbit__ios__pwms
 .bss.microbit__time__delay_instance
                0x000000002000040c        0x4 D:\programming\ada_projects\Ada_Drivers_Library\boards\MicroBit\obj\zfp_lib_Debug\libada_drivers_library.a(microbit-time.o)
 .bss.nrf51__device__p00
                0x0000000020000410        0x8 D:\programming\ada_projects\Ada_Drivers_Library\boards\MicroBit\obj\zfp_lib_Debug\libada_drivers_library.a(nrf51-device.o)
                0x0000000020000410                nrf51__device( *)
 .bss.nrf51__device__p01
                0x0000000020000418        0x8 D:\programming\ada_projects\Ada_Drivers_Library\boards\MicroBit\obj\zfp_lib_Debug\libada_drivers_library.a(nrf51-device.o)
                0x0000000020000418                nrf51__device__p01
 .bss.nrf51__device__p02
                0x0000000020000420        0x8 D:\programming\ada_projects\Ada_Drivers_Library\boards\MicroBit\obj\zfp_lib_Debug\libada_drivers_library.a(nrf51-device.o)
                0x0000000020000420                nrf51__device__p02
 .bss.nrf51__device__p03
                0x0000000020000428        0x8 D:\programming\ada_projects\Ada_Drivers_Library\boards\MicroBit\obj\zfp_lib_Debug\libada_drivers_library.a(nrf51-device.o)
                0x0000000020000428                nrf51__device__p03
 .bss.nrf51__device__p04
                0x0000000020000430        0x8 D:\programming\ada_projects\Ada_Drivers_Library\boards\MicroBit\obj\zfp_lib_Debug\libada_drivers_library.a(nrf51-device.o)
                0x0000000020000430                nrf51__device__p04
 .bss.nrf51__device__p05
                0x0000000020000438        0x8 D:\programming\ada_projects\Ada_Drivers_Library\boards\MicroBit\obj\zfp_lib_Debug\libada_drivers_library.a(nrf51-device.o)
                0x0000000020000438                nrf51__device__p05
 .bss.nrf51__device__p06
                0x0000000020000440        0x8 D:\programming\ada_projects\Ada_Drivers_Library\boards\MicroBit\obj\zfp_lib_Debug\libada_drivers_library.a(nrf51-device.o)
                0x0000000020000440                nrf51__device__p06
 .bss.nrf51__device__p07
                0x0000000020000448        0x8 D:\programming\ada_projects\Ada_Drivers_Library\boards\MicroBit\obj\zfp_lib_Debug\libada_drivers_library.a(nrf51-device.o)
                0x0000000020000448                nrf51__device__p07
 .bss.nrf51__device__p08
                0x0000000020000450        0x8 D:\programming\ada_projects\Ada_Drivers_Library\boards\MicroBit\obj\zfp_lib_Debug\libada_drivers_library.a(nrf51-device.o)
                0x0000000020000450                nrf51__device__p08
 .bss.nrf51__device__p09
                0x0000000020000458        0x8 D:\programming\ada_projects\Ada_Drivers_Library\boards\MicroBit\obj\zfp_lib_Debug\libada_drivers_library.a(nrf51-device.o)
                0x0000000020000458                nrf51__device__p09
 .bss.nrf51__device__p10
                0x0000000020000460        0x8 D:\programming\ada_projects\Ada_Drivers_Library\boards\MicroBit\obj\zfp_lib_Debug\libada_drivers_library.a(nrf51-device.o)
                0x0000000020000460                nrf51__device__p10
 .bss.nrf51__device__p11
                0x0000000020000468        0x8 D:\programming\ada_projects\Ada_Drivers_Library\boards\MicroBit\obj\zfp_lib_Debug\libada_drivers_library.a(nrf51-device.o)
                0x0000000020000468                nrf51__device__p11
 .bss.nrf51__device__p12
                0x0000000020000470        0x8 D:\programming\ada_projects\Ada_Drivers_Library\boards\MicroBit\obj\zfp_lib_Debug\libada_drivers_library.a(nrf51-device.o)
                0x0000000020000470                nrf51__device__p12
 .bss.nrf51__device__p13
                0x0000000020000478        0x8 D:\programming\ada_projects\Ada_Drivers_Library\boards\MicroBit\obj\zfp_lib_Debug\libada_drivers_library.a(nrf51-device.o)
                0x0000000020000478                nrf51__device__p13
 .bss.nrf51__device__p14
                0x0000000020000480        0x8 D:\programming\ada_projects\Ada_Drivers_Library\boards\MicroBit\obj\zfp_lib_Debug\libada_drivers_library.a(nrf51-device.o)
                0x0000000020000480                nrf51__device__p14
 .bss.nrf51__device__p15
                0x0000000020000488        0x8 D:\programming\ada_projects\Ada_Drivers_Library\boards\MicroBit\obj\zfp_lib_Debug\libada_drivers_library.a(nrf51-device.o)
                0x0000000020000488                nrf51__device__p15
 .bss.nrf51__device__p16
                0x0000000020000490        0x8 D:\programming\ada_projects\Ada_Drivers_Library\boards\MicroBit\obj\zfp_lib_Debug\libada_drivers_library.a(nrf51-device.o)
                0x0000000020000490                nrf51__device__p16
 .bss.nrf51__device__p17
                0x0000000020000498        0x8 D:\programming\ada_projects\Ada_Drivers_Library\boards\MicroBit\obj\zfp_lib_Debug\libada_drivers_library.a(nrf51-device.o)
                0x0000000020000498                nrf51__device__p17
 .bss.nrf51__device__p18
                0x00000000200004a0        0x8 D:\programming\ada_projects\Ada_Drivers_Library\boards\MicroBit\obj\zfp_lib_Debug\libada_drivers_library.a(nrf51-device.o)
                0x00000000200004a0                nrf51__device__p18
 .bss.nrf51__device__p19
                0x00000000200004a8        0x8 D:\programming\ada_projects\Ada_Drivers_Library\boards\MicroBit\obj\zfp_lib_Debug\libada_drivers_library.a(nrf51-device.o)
                0x00000000200004a8                nrf51__device__p19
 .bss.nrf51__device__p20
                0x00000000200004b0        0x8 D:\programming\ada_projects\Ada_Drivers_Library\boards\MicroBit\obj\zfp_lib_Debug\libada_drivers_library.a(nrf51-device.o)
                0x00000000200004b0                nrf51__device__p20
 .bss.nrf51__device__p21
                0x00000000200004b8        0x8 D:\programming\ada_projects\Ada_Drivers_Library\boards\MicroBit\obj\zfp_lib_Debug\libada_drivers_library.a(nrf51-device.o)
                0x00000000200004b8                nrf51__device__p21
 .bss.nrf51__device__p22
                0x00000000200004c0        0x8 D:\programming\ada_projects\Ada_Drivers_Library\boards\MicroBit\obj\zfp_lib_Debug\libada_drivers_library.a(nrf51-device.o)
                0x00000000200004c0                nrf51__device__p22
 .bss.nrf51__device__p23
                0x00000000200004c8        0x8 D:\programming\ada_projects\Ada_Drivers_Library\boards\MicroBit\obj\zfp_lib_Debug\libada_drivers_library.a(nrf51-device.o)
                0x00000000200004c8                nrf51__device__p23
 .bss.nrf51__device__p24
                0x00000000200004d0        0x8 D:\programming\ada_projects\Ada_Drivers_Library\boards\MicroBit\obj\zfp_lib_Debug\libada_drivers_library.a(nrf51-device.o)
                0x00000000200004d0                nrf51__device__p24
 .bss.nrf51__device__p25
                0x00000000200004d8        0x8 D:\programming\ada_projects\Ada_Drivers_Library\boards\MicroBit\obj\zfp_lib_Debug\libada_drivers_library.a(nrf51-device.o)
                0x00000000200004d8                nrf51__device__p25
 .bss.nrf51__device__p26
                0x00000000200004e0        0x8 D:\programming\ada_projects\Ada_Drivers_Library\boards\MicroBit\obj\zfp_lib_Debug\libada_drivers_library.a(nrf51-device.o)
                0x00000000200004e0                nrf51__device__p26
 .bss.nrf51__device__p27
                0x00000000200004e8        0x8 D:\programming\ada_projects\Ada_Drivers_Library\boards\MicroBit\obj\zfp_lib_Debug\libada_drivers_library.a(nrf51-device.o)
                0x00000000200004e8                nrf51__device__p27
 .bss.nrf51__device__p28
                0x00000000200004f0        0x8 D:\programming\ada_projects\Ada_Drivers_Library\boards\MicroBit\obj\zfp_lib_Debug\libada_drivers_library.a(nrf51-device.o)
                0x00000000200004f0                nrf51__device__p28
 .bss.nrf51__device__p29
                0x00000000200004f8        0x8 D:\programming\ada_projects\Ada_Drivers_Library\boards\MicroBit\obj\zfp_lib_Debug\libada_drivers_library.a(nrf51-device.o)
                0x00000000200004f8                nrf51__device__p29
 .bss.nrf51__device__p30
                0x0000000020000500        0x8 D:\programming\ada_projects\Ada_Drivers_Library\boards\MicroBit\obj\zfp_lib_Debug\libada_drivers_library.a(nrf51-device.o)
                0x0000000020000500                nrf51__device__p30
 .bss.nrf51__device__p31
                0x0000000020000508        0x8 D:\programming\ada_projects\Ada_Drivers_Library\boards\MicroBit\obj\zfp_lib_Debug\libada_drivers_library.a(nrf51-device.o)
                0x0000000020000508                nrf51__device__p31
 .bss.nrf51__device__rtc_0
                0x0000000020000510        0x4 D:\programming\ada_projects\Ada_Drivers_Library\boards\MicroBit\obj\zfp_lib_Debug\libada_drivers_library.a(nrf51-device.o)
                0x0000000020000510                nrf51__device__rtc_0
 .bss.nrf51__device__rtc_1
                0x0000000020000514        0x4 D:\programming\ada_projects\Ada_Drivers_Library\boards\MicroBit\obj\zfp_lib_Debug\libada_drivers_library.a(nrf51-device.o)
                0x0000000020000514                nrf51__device__rtc_1
 .bss.nrf51__device__twi_0
                0x0000000020000518        0xc D:\programming\ada_projects\Ada_Drivers_Library\boards\MicroBit\obj\zfp_lib_Debug\libada_drivers_library.a(nrf51-device.o)
                0x0000000020000518                nrf51__device__twi_0
 .bss.nrf51__device__twi_1
                0x0000000020000524        0xc D:\programming\ada_projects\Ada_Drivers_Library\boards\MicroBit\obj\zfp_lib_Debug\libada_drivers_library.a(nrf51-device.o)
                0x0000000020000524                nrf51__device__twi_1
 .bss.nrf51__device__timer_0
                0x0000000020000530        0x8 D:\programming\ada_projects\Ada_Drivers_Library\boards\MicroBit\obj\zfp_lib_Debug\libada_drivers_library.a(nrf51-device.o)
                0x0000000020000530                nrf51__device__timer_0
 .bss.nrf51__device__timer_1
                0x0000000020000538        0x8 D:\programming\ada_projects\Ada_Drivers_Library\boards\MicroBit\obj\zfp_lib_Debug\libada_drivers_library.a(nrf51-device.o)
                0x0000000020000538                nrf51__device__timer_1
 .bss.nrf51__device__timer_2
                0x0000000020000540        0x8 D:\programming\ada_projects\Ada_Drivers_Library\boards\MicroBit\obj\zfp_lib_Debug\libada_drivers_library.a(nrf51-device.o)
                0x0000000020000540                nrf51__device__timer_2
 .bss.__gnat_binder_ss_count
                0x0000000020000548        0x4 D:\gnat\2018-arm-elf\arm-eabi\lib\gnat\zfp-microbit\adalib\libgnat.a(s-secsta.o)
                0x0000000020000548                __gnat_binder_ss_count
 .bss.__gnat_default_ss_pool
                0x000000002000054c        0x4 D:\gnat\2018-arm-elf\arm-eabi\lib\gnat\zfp-microbit\adalib\libgnat.a(s-secsta.o)
                0x000000002000054c                __gnat_default_ss_pool
 .bss.__gnat_default_ss_size
                0x0000000020000550        0x4 D:\gnat\2018-arm-elf\arm-eabi\lib\gnat\zfp-microbit\adalib\libgnat.a(s-secsta.o)
                0x0000000020000550                __gnat_default_ss_size
 *(COMMON)
                0x0000000020000558                . = ALIGN (0x8)
 *fill*         0x0000000020000554        0x4 
                0x0000000020000558                __bss_end = .
                0x0000000020000558                __interrupt_stack_start = .
 *(.interrupt_stacks)
                0x0000000020000558                . = ALIGN (0x8)
                0x0000000020000558                __interrupt_stack_end = .
                0x0000000020000558                __stack_start = .
                0x0000000020000958                . = (. + DEFINED (__stack_size)?__stack_size:_DEFAULT_STACK_SIZE)
 *fill*         0x0000000020000558      0x400 
                0x0000000020000958                . = ALIGN (0x8)
                0x0000000020000958                __stack_end = .
                0x0000000020000958                _end = .
                0x0000000020000958                __heap_start = .
                0x0000000020004000                __heap_end = (ORIGIN (sram_bs) + LENGTH (sram_bs))
                0x000000000000010a                __bss_words = ((__bss_end - __bss_start) >> 0x2)

.debug
 *(.debug)

.line
 *(.line)

.debug_srcinfo
 *(.debug_srcinfo)

.debug_sfnames
 *(.debug_sfnames)

.debug_aranges  0x0000000000000000      0x8d8
 *(.debug_aranges)
 .debug_aranges
                0x0000000000000000       0x20 main.o
 .debug_aranges
                0x0000000000000020       0x30 b__main.o
 .debug_aranges
                0x0000000000000050       0x50 D:\programming\ada_projects\Ada_Drivers_Library\boards\MicroBit\obj\zfp_lib_Debug\libada_drivers_library.a(cortex_m-nvic.o)
 .debug_aranges
                0x00000000000000a0       0x98 D:\programming\ada_projects\Ada_Drivers_Library\boards\MicroBit\obj\zfp_lib_Debug\libada_drivers_library.a(microbit-ios.o)
 .debug_aranges
                0x0000000000000138       0x30 D:\programming\ada_projects\Ada_Drivers_Library\boards\MicroBit\obj\zfp_lib_Debug\libada_drivers_library.a(microbit-servos.o)
 .debug_aranges
                0x0000000000000168       0x98 D:\programming\ada_projects\Ada_Drivers_Library\boards\MicroBit\obj\zfp_lib_Debug\libada_drivers_library.a(microbit-time.o)
 .debug_aranges
                0x0000000000000200       0x48 D:\programming\ada_projects\Ada_Drivers_Library\boards\MicroBit\obj\zfp_lib_Debug\libada_drivers_library.a(nrf51-adc.o)
 .debug_aranges
                0x0000000000000248       0x70 D:\programming\ada_projects\Ada_Drivers_Library\boards\MicroBit\obj\zfp_lib_Debug\libada_drivers_library.a(nrf51-clock.o)
 .debug_aranges
                0x00000000000002b8       0x20 D:\programming\ada_projects\Ada_Drivers_Library\boards\MicroBit\obj\zfp_lib_Debug\libada_drivers_library.a(nrf51-device.o)
 .debug_aranges
                0x00000000000002d8       0x48 D:\programming\ada_projects\Ada_Drivers_Library\boards\MicroBit\obj\zfp_lib_Debug\libada_drivers_library.a(nrf51-events.o)
 .debug_aranges
                0x0000000000000320       0x40 D:\programming\ada_projects\Ada_Drivers_Library\boards\MicroBit\obj\zfp_lib_Debug\libada_drivers_library.a(nrf51-gpio-tasks_and_events.o)
 .debug_aranges
                0x0000000000000360       0x70 D:\programming\ada_projects\Ada_Drivers_Library\boards\MicroBit\obj\zfp_lib_Debug\libada_drivers_library.a(nrf51-gpio.o)
 .debug_aranges
                0x00000000000003d0       0x48 D:\programming\ada_projects\Ada_Drivers_Library\boards\MicroBit\obj\zfp_lib_Debug\libada_drivers_library.a(nrf51-interrupts.o)
 .debug_aranges
                0x0000000000000418       0x50 D:\programming\ada_projects\Ada_Drivers_Library\boards\MicroBit\obj\zfp_lib_Debug\libada_drivers_library.a(nrf51-ppi.o)
 .debug_aranges
                0x0000000000000468       0x60 D:\programming\ada_projects\Ada_Drivers_Library\boards\MicroBit\obj\zfp_lib_Debug\libada_drivers_library.a(nrf51-rtc.o)
 .debug_aranges
                0x00000000000004c8       0x30 D:\programming\ada_projects\Ada_Drivers_Library\boards\MicroBit\obj\zfp_lib_Debug\libada_drivers_library.a(nrf51-tasks.o)
 .debug_aranges
                0x00000000000004f8       0xc0 D:\programming\ada_projects\Ada_Drivers_Library\boards\MicroBit\obj\zfp_lib_Debug\libada_drivers_library.a(nrf51-timers.o)
 .debug_aranges
                0x00000000000005b8       0x70 D:\programming\ada_projects\Ada_Drivers_Library\boards\MicroBit\obj\zfp_lib_Debug\libada_drivers_library.a(nrf51-twi.o)
 .debug_aranges
                0x0000000000000628       0x18 D:\programming\ada_projects\Ada_Drivers_Library\boards\MicroBit\obj\zfp_lib_Debug\libada_drivers_library.a(nrf51_svd-gpio.o)
 .debug_aranges
                0x0000000000000640       0x18 D:\programming\ada_projects\Ada_Drivers_Library\boards\MicroBit\obj\zfp_lib_Debug\libada_drivers_library.a(nrf51_svd-twi.o)
 .debug_aranges
                0x0000000000000658       0x18 D:\programming\ada_projects\Ada_Drivers_Library\boards\MicroBit\obj\zfp_lib_Debug\libada_drivers_library.a(hal-gpio.o)
 .debug_aranges
                0x0000000000000670       0x18 D:\programming\ada_projects\Ada_Drivers_Library\boards\MicroBit\obj\zfp_lib_Debug\libada_drivers_library.a(hal-i2c.o)
 .debug_aranges
                0x0000000000000688       0x18 D:\programming\ada_projects\Ada_Drivers_Library\boards\MicroBit\obj\zfp_lib_Debug\libada_drivers_library.a(hal-time.o)
 .debug_aranges
                0x00000000000006a0       0x18 D:\gnat\2018-arm-elf\arm-eabi\lib\gnat\zfp-microbit\adalib\libgnat.a(a-except.o)
 .debug_aranges
                0x00000000000006b8       0x20 D:\gnat\2018-arm-elf\arm-eabi\lib\gnat\zfp-microbit\adalib\libgnat.a(s-assert.o)
 .debug_aranges
                0x00000000000006d8       0x20 d:/gnat/2018-arm-elf/bin/../lib/gcc/arm-eabi/7.3.1/thumb/v6-m\libgcc.a(_divsi3.o)
 .debug_aranges
                0x00000000000006f8       0x20 d:/gnat/2018-arm-elf/bin/../lib/gcc/arm-eabi/7.3.1/thumb/v6-m\libgcc.a(_dvmd_tls.o)
 .debug_aranges
                0x0000000000000718       0x20 d:/gnat/2018-arm-elf/bin/../lib/gcc/arm-eabi/7.3.1/thumb/v6-m\libgcc.a(_arm_cmpsf2.o)
 .debug_aranges
                0x0000000000000738       0x20 d:/gnat/2018-arm-elf/bin/../lib/gcc/arm-eabi/7.3.1/thumb/v6-m\libgcc.a(_fixunssfsi.o)
 .debug_aranges
                0x0000000000000758       0x20 d:/gnat/2018-arm-elf/bin/../lib/gcc/arm-eabi/7.3.1/thumb/v6-m\libgcc.a(addsf3.o)
 .debug_aranges
                0x0000000000000778       0x20 d:/gnat/2018-arm-elf/bin/../lib/gcc/arm-eabi/7.3.1/thumb/v6-m\libgcc.a(divsf3.o)
 .debug_aranges
                0x0000000000000798       0x20 d:/gnat/2018-arm-elf/bin/../lib/gcc/arm-eabi/7.3.1/thumb/v6-m\libgcc.a(eqsf2.o)
 .debug_aranges
                0x00000000000007b8       0x20 d:/gnat/2018-arm-elf/bin/../lib/gcc/arm-eabi/7.3.1/thumb/v6-m\libgcc.a(gesf2.o)
 .debug_aranges
                0x00000000000007d8       0x20 d:/gnat/2018-arm-elf/bin/../lib/gcc/arm-eabi/7.3.1/thumb/v6-m\libgcc.a(lesf2.o)
 .debug_aranges
                0x00000000000007f8       0x20 d:/gnat/2018-arm-elf/bin/../lib/gcc/arm-eabi/7.3.1/thumb/v6-m\libgcc.a(mulsf3.o)
 .debug_aranges
                0x0000000000000818       0x20 d:/gnat/2018-arm-elf/bin/../lib/gcc/arm-eabi/7.3.1/thumb/v6-m\libgcc.a(subsf3.o)
 .debug_aranges
                0x0000000000000838       0x20 d:/gnat/2018-arm-elf/bin/../lib/gcc/arm-eabi/7.3.1/thumb/v6-m\libgcc.a(unordsf2.o)
 .debug_aranges
                0x0000000000000858       0x20 d:/gnat/2018-arm-elf/bin/../lib/gcc/arm-eabi/7.3.1/thumb/v6-m\libgcc.a(fixsfsi.o)
 .debug_aranges
                0x0000000000000878       0x20 d:/gnat/2018-arm-elf/bin/../lib/gcc/arm-eabi/7.3.1/thumb/v6-m\libgcc.a(floatsisf.o)
 .debug_aranges
                0x0000000000000898       0x20 d:/gnat/2018-arm-elf/bin/../lib/gcc/arm-eabi/7.3.1/thumb/v6-m\libgcc.a(floatunsisf.o)
 .debug_aranges
                0x00000000000008b8       0x20 d:/gnat/2018-arm-elf/bin/../lib/gcc/arm-eabi/7.3.1/thumb/v6-m\libgcc.a(_clzsi2.o)

.debug_pubnames
 *(.debug_pubnames)

.debug_info     0x0000000000000000     0xc346
 *(.debug_info .gnu.linkonce.wi.*)
 .debug_info    0x0000000000000000       0x61 main.o
 .debug_info    0x0000000000000061      0x4d3 b__main.o
 .debug_info    0x0000000000000534      0x2e7 D:\programming\ada_projects\Ada_Drivers_Library\boards\MicroBit\obj\zfp_lib_Debug\libada_drivers_library.a(cortex_m-nvic.o)
 .debug_info    0x000000000000081b     0x10fc D:\programming\ada_projects\Ada_Drivers_Library\boards\MicroBit\obj\zfp_lib_Debug\libada_drivers_library.a(microbit-ios.o)
 .debug_info    0x0000000000001917       0xf9 D:\programming\ada_projects\Ada_Drivers_Library\boards\MicroBit\obj\zfp_lib_Debug\libada_drivers_library.a(microbit-servos.o)
 .debug_info    0x0000000000001a10      0x549 D:\programming\ada_projects\Ada_Drivers_Library\boards\MicroBit\obj\zfp_lib_Debug\libada_drivers_library.a(microbit-time.o)
 .debug_info    0x0000000000001f59      0x225 D:\programming\ada_projects\Ada_Drivers_Library\boards\MicroBit\obj\zfp_lib_Debug\libada_drivers_library.a(nrf51-adc.o)
 .debug_info    0x000000000000217e      0x1e4 D:\programming\ada_projects\Ada_Drivers_Library\boards\MicroBit\obj\zfp_lib_Debug\libada_drivers_library.a(nrf51-clock.o)
 .debug_info    0x0000000000002362     0x1dd1 D:\programming\ada_projects\Ada_Drivers_Library\boards\MicroBit\obj\zfp_lib_Debug\libada_drivers_library.a(nrf51-device.o)
 .debug_info    0x0000000000004133      0x807 D:\programming\ada_projects\Ada_Drivers_Library\boards\MicroBit\obj\zfp_lib_Debug\libada_drivers_library.a(nrf51-events.o)
 .debug_info    0x000000000000493a      0x369 D:\programming\ada_projects\Ada_Drivers_Library\boards\MicroBit\obj\zfp_lib_Debug\libada_drivers_library.a(nrf51-gpio-tasks_and_events.o)
 .debug_info    0x0000000000004ca3      0x66b D:\programming\ada_projects\Ada_Drivers_Library\boards\MicroBit\obj\zfp_lib_Debug\libada_drivers_library.a(nrf51-gpio.o)
 .debug_info    0x000000000000530e      0x29f D:\programming\ada_projects\Ada_Drivers_Library\boards\MicroBit\obj\zfp_lib_Debug\libada_drivers_library.a(nrf51-interrupts.o)
 .debug_info    0x00000000000055ad      0x2bc D:\programming\ada_projects\Ada_Drivers_Library\boards\MicroBit\obj\zfp_lib_Debug\libada_drivers_library.a(nrf51-ppi.o)
 .debug_info    0x0000000000005869      0xce6 D:\programming\ada_projects\Ada_Drivers_Library\boards\MicroBit\obj\zfp_lib_Debug\libada_drivers_library.a(nrf51-rtc.o)
 .debug_info    0x000000000000654f      0x834 D:\programming\ada_projects\Ada_Drivers_Library\boards\MicroBit\obj\zfp_lib_Debug\libada_drivers_library.a(nrf51-tasks.o)
 .debug_info    0x0000000000006d83      0xc89 D:\programming\ada_projects\Ada_Drivers_Library\boards\MicroBit\obj\zfp_lib_Debug\libada_drivers_library.a(nrf51-timers.o)
 .debug_info    0x0000000000007a0c      0xf68 D:\programming\ada_projects\Ada_Drivers_Library\boards\MicroBit\obj\zfp_lib_Debug\libada_drivers_library.a(nrf51-twi.o)
 .debug_info    0x0000000000008974      0x6c6 D:\programming\ada_projects\Ada_Drivers_Library\boards\MicroBit\obj\zfp_lib_Debug\libada_drivers_library.a(nrf51_svd-gpio.o)
 .debug_info    0x000000000000903a      0x889 D:\programming\ada_projects\Ada_Drivers_Library\boards\MicroBit\obj\zfp_lib_Debug\libada_drivers_library.a(nrf51_svd-twi.o)
 .debug_info    0x00000000000098c3       0x3a D:\programming\ada_projects\Ada_Drivers_Library\boards\MicroBit\obj\zfp_lib_Debug\libada_drivers_library.a(hal-gpio.o)
 .debug_info    0x00000000000098fd       0x5d D:\programming\ada_projects\Ada_Drivers_Library\boards\MicroBit\obj\zfp_lib_Debug\libada_drivers_library.a(hal-i2c.o)
 .debug_info    0x000000000000995a       0x3a D:\programming\ada_projects\Ada_Drivers_Library\boards\MicroBit\obj\zfp_lib_Debug\libada_drivers_library.a(hal-time.o)
 .debug_info    0x0000000000009994      0x149 D:\gnat\2018-arm-elf\arm-eabi\lib\gnat\zfp-microbit\adalib\libgnat.a(a-except.o)
 .debug_info    0x0000000000009add      0x1cd D:\gnat\2018-arm-elf\arm-eabi\lib\gnat\zfp-microbit\adalib\libgnat.a(s-assert.o)
 .debug_info    0x0000000000009caa       0x26 d:/gnat/2018-arm-elf/bin/../lib/gcc/arm-eabi/7.3.1/thumb/v6-m\libgcc.a(_divsi3.o)
 .debug_info    0x0000000000009cd0       0x26 d:/gnat/2018-arm-elf/bin/../lib/gcc/arm-eabi/7.3.1/thumb/v6-m\libgcc.a(_dvmd_tls.o)
 .debug_info    0x0000000000009cf6       0x26 d:/gnat/2018-arm-elf/bin/../lib/gcc/arm-eabi/7.3.1/thumb/v6-m\libgcc.a(_arm_cmpsf2.o)
 .debug_info    0x0000000000009d1c      0x9e4 d:/gnat/2018-arm-elf/bin/../lib/gcc/arm-eabi/7.3.1/thumb/v6-m\libgcc.a(_fixunssfsi.o)
 .debug_info    0x000000000000a700      0x32c d:/gnat/2018-arm-elf/bin/../lib/gcc/arm-eabi/7.3.1/thumb/v6-m\libgcc.a(addsf3.o)
 .debug_info    0x000000000000aa2c      0x32d d:/gnat/2018-arm-elf/bin/../lib/gcc/arm-eabi/7.3.1/thumb/v6-m\libgcc.a(divsf3.o)
 .debug_info    0x000000000000ad59      0x228 d:/gnat/2018-arm-elf/bin/../lib/gcc/arm-eabi/7.3.1/thumb/v6-m\libgcc.a(eqsf2.o)
 .debug_info    0x000000000000af81      0x234 d:/gnat/2018-arm-elf/bin/../lib/gcc/arm-eabi/7.3.1/thumb/v6-m\libgcc.a(gesf2.o)
 .debug_info    0x000000000000b1b5      0x237 d:/gnat/2018-arm-elf/bin/../lib/gcc/arm-eabi/7.3.1/thumb/v6-m\libgcc.a(lesf2.o)
 .debug_info    0x000000000000b3ec      0x393 d:/gnat/2018-arm-elf/bin/../lib/gcc/arm-eabi/7.3.1/thumb/v6-m\libgcc.a(mulsf3.o)
 .debug_info    0x000000000000b77f      0x32c d:/gnat/2018-arm-elf/bin/../lib/gcc/arm-eabi/7.3.1/thumb/v6-m\libgcc.a(subsf3.o)
 .debug_info    0x000000000000baab      0x21d d:/gnat/2018-arm-elf/bin/../lib/gcc/arm-eabi/7.3.1/thumb/v6-m\libgcc.a(unordsf2.o)
 .debug_info    0x000000000000bcc8      0x1d0 d:/gnat/2018-arm-elf/bin/../lib/gcc/arm-eabi/7.3.1/thumb/v6-m\libgcc.a(fixsfsi.o)
 .debug_info    0x000000000000be98      0x24a d:/gnat/2018-arm-elf/bin/../lib/gcc/arm-eabi/7.3.1/thumb/v6-m\libgcc.a(floatsisf.o)
 .debug_info    0x000000000000c0e2      0x23e d:/gnat/2018-arm-elf/bin/../lib/gcc/arm-eabi/7.3.1/thumb/v6-m\libgcc.a(floatunsisf.o)
 .debug_info    0x000000000000c320       0x26 d:/gnat/2018-arm-elf/bin/../lib/gcc/arm-eabi/7.3.1/thumb/v6-m\libgcc.a(_clzsi2.o)

.debug_abbrev   0x0000000000000000     0x3729
 *(.debug_abbrev)
 .debug_abbrev  0x0000000000000000       0x4d main.o
 .debug_abbrev  0x000000000000004d      0x202 b__main.o
 .debug_abbrev  0x000000000000024f      0x1af D:\programming\ada_projects\Ada_Drivers_Library\boards\MicroBit\obj\zfp_lib_Debug\libada_drivers_library.a(cortex_m-nvic.o)
 .debug_abbrev  0x00000000000003fe      0x3f4 D:\programming\ada_projects\Ada_Drivers_Library\boards\MicroBit\obj\zfp_lib_Debug\libada_drivers_library.a(microbit-ios.o)
 .debug_abbrev  0x00000000000007f2       0xb5 D:\programming\ada_projects\Ada_Drivers_Library\boards\MicroBit\obj\zfp_lib_Debug\libada_drivers_library.a(microbit-servos.o)
 .debug_abbrev  0x00000000000008a7      0x202 D:\programming\ada_projects\Ada_Drivers_Library\boards\MicroBit\obj\zfp_lib_Debug\libada_drivers_library.a(microbit-time.o)
 .debug_abbrev  0x0000000000000aa9      0x102 D:\programming\ada_projects\Ada_Drivers_Library\boards\MicroBit\obj\zfp_lib_Debug\libada_drivers_library.a(nrf51-adc.o)
 .debug_abbrev  0x0000000000000bab       0xdf D:\programming\ada_projects\Ada_Drivers_Library\boards\MicroBit\obj\zfp_lib_Debug\libada_drivers_library.a(nrf51-clock.o)
 .debug_abbrev  0x0000000000000c8a      0x2dd D:\programming\ada_projects\Ada_Drivers_Library\boards\MicroBit\obj\zfp_lib_Debug\libada_drivers_library.a(nrf51-device.o)
 .debug_abbrev  0x0000000000000f67       0xf6 D:\programming\ada_projects\Ada_Drivers_Library\boards\MicroBit\obj\zfp_lib_Debug\libada_drivers_library.a(nrf51-events.o)
 .debug_abbrev  0x000000000000105d      0x12a D:\programming\ada_projects\Ada_Drivers_Library\boards\MicroBit\obj\zfp_lib_Debug\libada_drivers_library.a(nrf51-gpio-tasks_and_events.o)
 .debug_abbrev  0x0000000000001187      0x1f4 D:\programming\ada_projects\Ada_Drivers_Library\boards\MicroBit\obj\zfp_lib_Debug\libada_drivers_library.a(nrf51-gpio.o)
 .debug_abbrev  0x000000000000137b      0x159 D:\programming\ada_projects\Ada_Drivers_Library\boards\MicroBit\obj\zfp_lib_Debug\libada_drivers_library.a(nrf51-interrupts.o)
 .debug_abbrev  0x00000000000014d4      0x147 D:\programming\ada_projects\Ada_Drivers_Library\boards\MicroBit\obj\zfp_lib_Debug\libada_drivers_library.a(nrf51-ppi.o)
 .debug_abbrev  0x000000000000161b      0x2eb D:\programming\ada_projects\Ada_Drivers_Library\boards\MicroBit\obj\zfp_lib_Debug\libada_drivers_library.a(nrf51-rtc.o)
 .debug_abbrev  0x0000000000001906       0xc2 D:\programming\ada_projects\Ada_Drivers_Library\boards\MicroBit\obj\zfp_lib_Debug\libada_drivers_library.a(nrf51-tasks.o)
 .debug_abbrev  0x00000000000019c8      0x34a D:\programming\ada_projects\Ada_Drivers_Library\boards\MicroBit\obj\zfp_lib_Debug\libada_drivers_library.a(nrf51-timers.o)
 .debug_abbrev  0x0000000000001d12      0x329 D:\programming\ada_projects\Ada_Drivers_Library\boards\MicroBit\obj\zfp_lib_Debug\libada_drivers_library.a(nrf51-twi.o)
 .debug_abbrev  0x000000000000203b      0x1c1 D:\programming\ada_projects\Ada_Drivers_Library\boards\MicroBit\obj\zfp_lib_Debug\libada_drivers_library.a(nrf51_svd-gpio.o)
 .debug_abbrev  0x00000000000021fc      0x190 D:\programming\ada_projects\Ada_Drivers_Library\boards\MicroBit\obj\zfp_lib_Debug\libada_drivers_library.a(nrf51_svd-twi.o)
 .debug_abbrev  0x000000000000238c       0x1b D:\programming\ada_projects\Ada_Drivers_Library\boards\MicroBit\obj\zfp_lib_Debug\libada_drivers_library.a(hal-gpio.o)
 .debug_abbrev  0x00000000000023a7       0x28 D:\programming\ada_projects\Ada_Drivers_Library\boards\MicroBit\obj\zfp_lib_Debug\libada_drivers_library.a(hal-i2c.o)
 .debug_abbrev  0x00000000000023cf       0x1b D:\programming\ada_projects\Ada_Drivers_Library\boards\MicroBit\obj\zfp_lib_Debug\libada_drivers_library.a(hal-time.o)
 .debug_abbrev  0x00000000000023ea       0xc6 D:\gnat\2018-arm-elf\arm-eabi\lib\gnat\zfp-microbit\adalib\libgnat.a(a-except.o)
 .debug_abbrev  0x00000000000024b0      0x100 D:\gnat\2018-arm-elf\arm-eabi\lib\gnat\zfp-microbit\adalib\libgnat.a(s-assert.o)
 .debug_abbrev  0x00000000000025b0       0x14 d:/gnat/2018-arm-elf/bin/../lib/gcc/arm-eabi/7.3.1/thumb/v6-m\libgcc.a(_divsi3.o)
 .debug_abbrev  0x00000000000025c4       0x14 d:/gnat/2018-arm-elf/bin/../lib/gcc/arm-eabi/7.3.1/thumb/v6-m\libgcc.a(_dvmd_tls.o)
 .debug_abbrev  0x00000000000025d8       0x14 d:/gnat/2018-arm-elf/bin/../lib/gcc/arm-eabi/7.3.1/thumb/v6-m\libgcc.a(_arm_cmpsf2.o)
 .debug_abbrev  0x00000000000025ec      0x140 d:/gnat/2018-arm-elf/bin/../lib/gcc/arm-eabi/7.3.1/thumb/v6-m\libgcc.a(_fixunssfsi.o)
 .debug_abbrev  0x000000000000272c      0x18e d:/gnat/2018-arm-elf/bin/../lib/gcc/arm-eabi/7.3.1/thumb/v6-m\libgcc.a(addsf3.o)
 .debug_abbrev  0x00000000000028ba      0x16d d:/gnat/2018-arm-elf/bin/../lib/gcc/arm-eabi/7.3.1/thumb/v6-m\libgcc.a(divsf3.o)
 .debug_abbrev  0x0000000000002a27      0x155 d:/gnat/2018-arm-elf/bin/../lib/gcc/arm-eabi/7.3.1/thumb/v6-m\libgcc.a(eqsf2.o)
 .debug_abbrev  0x0000000000002b7c      0x175 d:/gnat/2018-arm-elf/bin/../lib/gcc/arm-eabi/7.3.1/thumb/v6-m\libgcc.a(gesf2.o)
 .debug_abbrev  0x0000000000002cf1      0x166 d:/gnat/2018-arm-elf/bin/../lib/gcc/arm-eabi/7.3.1/thumb/v6-m\libgcc.a(lesf2.o)
 .debug_abbrev  0x0000000000002e57      0x174 d:/gnat/2018-arm-elf/bin/../lib/gcc/arm-eabi/7.3.1/thumb/v6-m\libgcc.a(mulsf3.o)
 .debug_abbrev  0x0000000000002fcb      0x18e d:/gnat/2018-arm-elf/bin/../lib/gcc/arm-eabi/7.3.1/thumb/v6-m\libgcc.a(subsf3.o)
 .debug_abbrev  0x0000000000003159      0x155 d:/gnat/2018-arm-elf/bin/../lib/gcc/arm-eabi/7.3.1/thumb/v6-m\libgcc.a(unordsf2.o)
 .debug_abbrev  0x00000000000032ae      0x159 d:/gnat/2018-arm-elf/bin/../lib/gcc/arm-eabi/7.3.1/thumb/v6-m\libgcc.a(fixsfsi.o)
 .debug_abbrev  0x0000000000003407      0x187 d:/gnat/2018-arm-elf/bin/../lib/gcc/arm-eabi/7.3.1/thumb/v6-m\libgcc.a(floatsisf.o)
 .debug_abbrev  0x000000000000358e      0x187 d:/gnat/2018-arm-elf/bin/../lib/gcc/arm-eabi/7.3.1/thumb/v6-m\libgcc.a(floatunsisf.o)
 .debug_abbrev  0x0000000000003715       0x14 d:/gnat/2018-arm-elf/bin/../lib/gcc/arm-eabi/7.3.1/thumb/v6-m\libgcc.a(_clzsi2.o)

.debug_line     0x0000000000000000     0x4113
 *(.debug_line)
 .debug_line    0x0000000000000000       0x7d main.o
 .debug_line    0x000000000000007d       0xf9 b__main.o
 .debug_line    0x0000000000000176      0x18e D:\programming\ada_projects\Ada_Drivers_Library\boards\MicroBit\obj\zfp_lib_Debug\libada_drivers_library.a(cortex_m-nvic.o)
 .debug_line    0x0000000000000304      0x69e D:\programming\ada_projects\Ada_Drivers_Library\boards\MicroBit\obj\zfp_lib_Debug\libada_drivers_library.a(microbit-ios.o)
 .debug_line    0x00000000000009a2       0xeb D:\programming\ada_projects\Ada_Drivers_Library\boards\MicroBit\obj\zfp_lib_Debug\libada_drivers_library.a(microbit-servos.o)
 .debug_line    0x0000000000000a8d      0x38c D:\programming\ada_projects\Ada_Drivers_Library\boards\MicroBit\obj\zfp_lib_Debug\libada_drivers_library.a(microbit-time.o)
 .debug_line    0x0000000000000e19      0x198 D:\programming\ada_projects\Ada_Drivers_Library\boards\MicroBit\obj\zfp_lib_Debug\libada_drivers_library.a(nrf51-adc.o)
 .debug_line    0x0000000000000fb1      0x19f D:\programming\ada_projects\Ada_Drivers_Library\boards\MicroBit\obj\zfp_lib_Debug\libada_drivers_library.a(nrf51-clock.o)
 .debug_line    0x0000000000001150      0x284 D:\programming\ada_projects\Ada_Drivers_Library\boards\MicroBit\obj\zfp_lib_Debug\libada_drivers_library.a(nrf51-device.o)
 .debug_line    0x00000000000013d4      0x172 D:\programming\ada_projects\Ada_Drivers_Library\boards\MicroBit\obj\zfp_lib_Debug\libada_drivers_library.a(nrf51-events.o)
 .debug_line    0x0000000000001546      0x1ea D:\programming\ada_projects\Ada_Drivers_Library\boards\MicroBit\obj\zfp_lib_Debug\libada_drivers_library.a(nrf51-gpio-tasks_and_events.o)
 .debug_line    0x0000000000001730      0x409 D:\programming\ada_projects\Ada_Drivers_Library\boards\MicroBit\obj\zfp_lib_Debug\libada_drivers_library.a(nrf51-gpio.o)
 .debug_line    0x0000000000001b39      0x12f D:\programming\ada_projects\Ada_Drivers_Library\boards\MicroBit\obj\zfp_lib_Debug\libada_drivers_library.a(nrf51-interrupts.o)
 .debug_line    0x0000000000001c68      0x209 D:\programming\ada_projects\Ada_Drivers_Library\boards\MicroBit\obj\zfp_lib_Debug\libada_drivers_library.a(nrf51-ppi.o)
 .debug_line    0x0000000000001e71      0x29f D:\programming\ada_projects\Ada_Drivers_Library\boards\MicroBit\obj\zfp_lib_Debug\libada_drivers_library.a(nrf51-rtc.o)
 .debug_line    0x0000000000002110       0xc6 D:\programming\ada_projects\Ada_Drivers_Library\boards\MicroBit\obj\zfp_lib_Debug\libada_drivers_library.a(nrf51-tasks.o)
 .debug_line    0x00000000000021d6      0x4bb D:\programming\ada_projects\Ada_Drivers_Library\boards\MicroBit\obj\zfp_lib_Debug\libada_drivers_library.a(nrf51-timers.o)
 .debug_line    0x0000000000002691      0x471 D:\programming\ada_projects\Ada_Drivers_Library\boards\MicroBit\obj\zfp_lib_Debug\libada_drivers_library.a(nrf51-twi.o)
 .debug_line    0x0000000000002b02       0xc0 D:\programming\ada_projects\Ada_Drivers_Library\boards\MicroBit\obj\zfp_lib_Debug\libada_drivers_library.a(nrf51_svd-gpio.o)
 .debug_line    0x0000000000002bc2      0x108 D:\programming\ada_projects\Ada_Drivers_Library\boards\MicroBit\obj\zfp_lib_Debug\libada_drivers_library.a(nrf51_svd-twi.o)
 .debug_line    0x0000000000002cca       0x1d D:\programming\ada_projects\Ada_Drivers_Library\boards\MicroBit\obj\zfp_lib_Debug\libada_drivers_library.a(hal-gpio.o)
 .debug_line    0x0000000000002ce7       0x1d D:\programming\ada_projects\Ada_Drivers_Library\boards\MicroBit\obj\zfp_lib_Debug\libada_drivers_library.a(hal-i2c.o)
 .debug_line    0x0000000000002d04       0x1d D:\programming\ada_projects\Ada_Drivers_Library\boards\MicroBit\obj\zfp_lib_Debug\libada_drivers_library.a(hal-time.o)
 .debug_line    0x0000000000002d21       0xbc D:\gnat\2018-arm-elf\arm-eabi\lib\gnat\zfp-microbit\adalib\libgnat.a(a-except.o)
 .debug_line    0x0000000000002ddd      0x15d D:\gnat\2018-arm-elf\arm-eabi\lib\gnat\zfp-microbit\adalib\libgnat.a(s-assert.o)
 .debug_line    0x0000000000002f3a       0x74 d:/gnat/2018-arm-elf/bin/../lib/gcc/arm-eabi/7.3.1/thumb/v6-m\libgcc.a(_divsi3.o)
 .debug_line    0x0000000000002fae       0x61 d:/gnat/2018-arm-elf/bin/../lib/gcc/arm-eabi/7.3.1/thumb/v6-m\libgcc.a(_dvmd_tls.o)
 .debug_line    0x000000000000300f       0x76 d:/gnat/2018-arm-elf/bin/../lib/gcc/arm-eabi/7.3.1/thumb/v6-m\libgcc.a(_arm_cmpsf2.o)
 .debug_line    0x0000000000003085      0x110 d:/gnat/2018-arm-elf/bin/../lib/gcc/arm-eabi/7.3.1/thumb/v6-m\libgcc.a(_fixunssfsi.o)
 .debug_line    0x0000000000003195      0x2c3 d:/gnat/2018-arm-elf/bin/../lib/gcc/arm-eabi/7.3.1/thumb/v6-m\libgcc.a(addsf3.o)
 .debug_line    0x0000000000003458      0x184 d:/gnat/2018-arm-elf/bin/../lib/gcc/arm-eabi/7.3.1/thumb/v6-m\libgcc.a(divsf3.o)
 .debug_line    0x00000000000035dc       0xee d:/gnat/2018-arm-elf/bin/../lib/gcc/arm-eabi/7.3.1/thumb/v6-m\libgcc.a(eqsf2.o)
 .debug_line    0x00000000000036ca      0x112 d:/gnat/2018-arm-elf/bin/../lib/gcc/arm-eabi/7.3.1/thumb/v6-m\libgcc.a(gesf2.o)
 .debug_line    0x00000000000037dc      0x112 d:/gnat/2018-arm-elf/bin/../lib/gcc/arm-eabi/7.3.1/thumb/v6-m\libgcc.a(lesf2.o)
 .debug_line    0x00000000000038ee      0x175 d:/gnat/2018-arm-elf/bin/../lib/gcc/arm-eabi/7.3.1/thumb/v6-m\libgcc.a(mulsf3.o)
 .debug_line    0x0000000000003a63      0x2d6 d:/gnat/2018-arm-elf/bin/../lib/gcc/arm-eabi/7.3.1/thumb/v6-m\libgcc.a(subsf3.o)
 .debug_line    0x0000000000003d39       0xce d:/gnat/2018-arm-elf/bin/../lib/gcc/arm-eabi/7.3.1/thumb/v6-m\libgcc.a(unordsf2.o)
 .debug_line    0x0000000000003e07       0xcb d:/gnat/2018-arm-elf/bin/../lib/gcc/arm-eabi/7.3.1/thumb/v6-m\libgcc.a(fixsfsi.o)
 .debug_line    0x0000000000003ed2       0xe5 d:/gnat/2018-arm-elf/bin/../lib/gcc/arm-eabi/7.3.1/thumb/v6-m\libgcc.a(floatsisf.o)
 .debug_line    0x0000000000003fb7       0xe7 d:/gnat/2018-arm-elf/bin/../lib/gcc/arm-eabi/7.3.1/thumb/v6-m\libgcc.a(floatunsisf.o)
 .debug_line    0x000000000000409e       0x75 d:/gnat/2018-arm-elf/bin/../lib/gcc/arm-eabi/7.3.1/thumb/v6-m\libgcc.a(_clzsi2.o)

.debug_frame    0x0000000000000000     0x1e44
 *(.debug_frame)
 .debug_frame   0x0000000000000000       0x34 main.o
 .debug_frame   0x0000000000000034       0x8c b__main.o
 .debug_frame   0x00000000000000c0      0x110 D:\programming\ada_projects\Ada_Drivers_Library\boards\MicroBit\obj\zfp_lib_Debug\libada_drivers_library.a(cortex_m-nvic.o)
 .debug_frame   0x00000000000001d0      0x270 D:\programming\ada_projects\Ada_Drivers_Library\boards\MicroBit\obj\zfp_lib_Debug\libada_drivers_library.a(microbit-ios.o)
 .debug_frame   0x0000000000000440       0x90 D:\programming\ada_projects\Ada_Drivers_Library\boards\MicroBit\obj\zfp_lib_Debug\libada_drivers_library.a(microbit-servos.o)
 .debug_frame   0x00000000000004d0      0x294 D:\programming\ada_projects\Ada_Drivers_Library\boards\MicroBit\obj\zfp_lib_Debug\libada_drivers_library.a(microbit-time.o)
 .debug_frame   0x0000000000000764       0xcc D:\programming\ada_projects\Ada_Drivers_Library\boards\MicroBit\obj\zfp_lib_Debug\libada_drivers_library.a(nrf51-adc.o)
 .debug_frame   0x0000000000000830      0x150 D:\programming\ada_projects\Ada_Drivers_Library\boards\MicroBit\obj\zfp_lib_Debug\libada_drivers_library.a(nrf51-clock.o)
 .debug_frame   0x0000000000000980       0x2c D:\programming\ada_projects\Ada_Drivers_Library\boards\MicroBit\obj\zfp_lib_Debug\libada_drivers_library.a(nrf51-device.o)
 .debug_frame   0x00000000000009ac       0xd0 D:\programming\ada_projects\Ada_Drivers_Library\boards\MicroBit\obj\zfp_lib_Debug\libada_drivers_library.a(nrf51-events.o)
 .debug_frame   0x0000000000000a7c       0xb0 D:\programming\ada_projects\Ada_Drivers_Library\boards\MicroBit\obj\zfp_lib_Debug\libada_drivers_library.a(nrf51-gpio-tasks_and_events.o)
 .debug_frame   0x0000000000000b2c      0x218 D:\programming\ada_projects\Ada_Drivers_Library\boards\MicroBit\obj\zfp_lib_Debug\libada_drivers_library.a(nrf51-gpio.o)
 .debug_frame   0x0000000000000d44       0xd0 D:\programming\ada_projects\Ada_Drivers_Library\boards\MicroBit\obj\zfp_lib_Debug\libada_drivers_library.a(nrf51-interrupts.o)
 .debug_frame   0x0000000000000e14       0xf4 D:\programming\ada_projects\Ada_Drivers_Library\boards\MicroBit\obj\zfp_lib_Debug\libada_drivers_library.a(nrf51-ppi.o)
 .debug_frame   0x0000000000000f08      0x150 D:\programming\ada_projects\Ada_Drivers_Library\boards\MicroBit\obj\zfp_lib_Debug\libada_drivers_library.a(nrf51-rtc.o)
 .debug_frame   0x0000000000001058       0x70 D:\programming\ada_projects\Ada_Drivers_Library\boards\MicroBit\obj\zfp_lib_Debug\libada_drivers_library.a(nrf51-tasks.o)
 .debug_frame   0x00000000000010c8      0x334 D:\programming\ada_projects\Ada_Drivers_Library\boards\MicroBit\obj\zfp_lib_Debug\libada_drivers_library.a(nrf51-timers.o)
 .debug_frame   0x00000000000013fc      0x200 D:\programming\ada_projects\Ada_Drivers_Library\boards\MicroBit\obj\zfp_lib_Debug\libada_drivers_library.a(nrf51-twi.o)
 .debug_frame   0x00000000000015fc      0x458 D:\programming\ada_projects\Ada_Drivers_Library\boards\MicroBit\obj\zfp_lib_Debug\libada_drivers_library.a(nrf51_svd-gpio.o)
 .debug_frame   0x0000000000001a54      0x170 D:\programming\ada_projects\Ada_Drivers_Library\boards\MicroBit\obj\zfp_lib_Debug\libada_drivers_library.a(nrf51_svd-twi.o)
 .debug_frame   0x0000000000001bc4       0x34 D:\gnat\2018-arm-elf\arm-eabi\lib\gnat\zfp-microbit\adalib\libgnat.a(s-assert.o)
 .debug_frame   0x0000000000001bf8       0x20 d:/gnat/2018-arm-elf/bin/../lib/gcc/arm-eabi/7.3.1/thumb/v6-m\libgcc.a(_divsi3.o)
 .debug_frame   0x0000000000001c18       0x28 d:/gnat/2018-arm-elf/bin/../lib/gcc/arm-eabi/7.3.1/thumb/v6-m\libgcc.a(_fixunssfsi.o)
 .debug_frame   0x0000000000001c40       0x38 d:/gnat/2018-arm-elf/bin/../lib/gcc/arm-eabi/7.3.1/thumb/v6-m\libgcc.a(addsf3.o)
 .debug_frame   0x0000000000001c78       0x3c d:/gnat/2018-arm-elf/bin/../lib/gcc/arm-eabi/7.3.1/thumb/v6-m\libgcc.a(divsf3.o)
 .debug_frame   0x0000000000001cb4       0x2c d:/gnat/2018-arm-elf/bin/../lib/gcc/arm-eabi/7.3.1/thumb/v6-m\libgcc.a(eqsf2.o)
 .debug_frame   0x0000000000001ce0       0x2c d:/gnat/2018-arm-elf/bin/../lib/gcc/arm-eabi/7.3.1/thumb/v6-m\libgcc.a(gesf2.o)
 .debug_frame   0x0000000000001d0c       0x2c d:/gnat/2018-arm-elf/bin/../lib/gcc/arm-eabi/7.3.1/thumb/v6-m\libgcc.a(lesf2.o)
 .debug_frame   0x0000000000001d38       0x3c d:/gnat/2018-arm-elf/bin/../lib/gcc/arm-eabi/7.3.1/thumb/v6-m\libgcc.a(mulsf3.o)
 .debug_frame   0x0000000000001d74       0x38 d:/gnat/2018-arm-elf/bin/../lib/gcc/arm-eabi/7.3.1/thumb/v6-m\libgcc.a(subsf3.o)
 .debug_frame   0x0000000000001dac       0x20 d:/gnat/2018-arm-elf/bin/../lib/gcc/arm-eabi/7.3.1/thumb/v6-m\libgcc.a(unordsf2.o)
 .debug_frame   0x0000000000001dcc       0x20 d:/gnat/2018-arm-elf/bin/../lib/gcc/arm-eabi/7.3.1/thumb/v6-m\libgcc.a(fixsfsi.o)
 .debug_frame   0x0000000000001dec       0x2c d:/gnat/2018-arm-elf/bin/../lib/gcc/arm-eabi/7.3.1/thumb/v6-m\libgcc.a(floatsisf.o)
 .debug_frame   0x0000000000001e18       0x2c d:/gnat/2018-arm-elf/bin/../lib/gcc/arm-eabi/7.3.1/thumb/v6-m\libgcc.a(floatunsisf.o)

.debug_str      0x0000000000000000     0xa506
 *(.debug_str)
 .debug_str     0x0000000000000000      0x27a main.o
                                        0x27f (size before relaxing)
 .debug_str     0x000000000000027a      0x866 b__main.o
                                        0x8d3 (size before relaxing)
 .debug_str     0x0000000000000ae0      0x498 D:\programming\ada_projects\Ada_Drivers_Library\boards\MicroBit\obj\zfp_lib_Debug\libada_drivers_library.a(cortex_m-nvic.o)
                                        0x4e7 (size before relaxing)
 .debug_str     0x0000000000000f78     0x1af7 D:\programming\ada_projects\Ada_Drivers_Library\boards\MicroBit\obj\zfp_lib_Debug\libada_drivers_library.a(microbit-ios.o)
                                       0x1de6 (size before relaxing)
 .debug_str     0x0000000000002a6f      0x126 D:\programming\ada_projects\Ada_Drivers_Library\boards\MicroBit\obj\zfp_lib_Debug\libada_drivers_library.a(microbit-servos.o)
                                        0x3a6 (size before relaxing)
 .debug_str     0x0000000000002b95      0x42e D:\programming\ada_projects\Ada_Drivers_Library\boards\MicroBit\obj\zfp_lib_Debug\libada_drivers_library.a(microbit-time.o)
                                        0x823 (size before relaxing)
 .debug_str     0x0000000000002fc3      0x2d1 D:\programming\ada_projects\Ada_Drivers_Library\boards\MicroBit\obj\zfp_lib_Debug\libada_drivers_library.a(nrf51-adc.o)
                                        0x587 (size before relaxing)
 .debug_str     0x0000000000003294      0x319 D:\programming\ada_projects\Ada_Drivers_Library\boards\MicroBit\obj\zfp_lib_Debug\libada_drivers_library.a(nrf51-clock.o)
                                        0x5a6 (size before relaxing)
 .debug_str     0x00000000000035ad     0x1b3c D:\programming\ada_projects\Ada_Drivers_Library\boards\MicroBit\obj\zfp_lib_Debug\libada_drivers_library.a(nrf51-device.o)
                                       0x2ab9 (size before relaxing)
 .debug_str     0x00000000000050e9      0xa7b D:\programming\ada_projects\Ada_Drivers_Library\boards\MicroBit\obj\zfp_lib_Debug\libada_drivers_library.a(nrf51-events.o)
                                        0xe8d (size before relaxing)
 .debug_str     0x0000000000005b64      0x535 D:\programming\ada_projects\Ada_Drivers_Library\boards\MicroBit\obj\zfp_lib_Debug\libada_drivers_library.a(nrf51-gpio-tasks_and_events.o)
                                        0x88c (size before relaxing)
 .debug_str     0x0000000000006099      0x518 D:\programming\ada_projects\Ada_Drivers_Library\boards\MicroBit\obj\zfp_lib_Debug\libada_drivers_library.a(nrf51-gpio.o)
                                        0xb92 (size before relaxing)
 .debug_str     0x00000000000065b1      0x1c5 D:\programming\ada_projects\Ada_Drivers_Library\boards\MicroBit\obj\zfp_lib_Debug\libada_drivers_library.a(nrf51-interrupts.o)
                                        0x8b8 (size before relaxing)
 .debug_str     0x0000000000006776      0x2d5 D:\programming\ada_projects\Ada_Drivers_Library\boards\MicroBit\obj\zfp_lib_Debug\libada_drivers_library.a(nrf51-ppi.o)
                                        0x5bc (size before relaxing)
 .debug_str     0x0000000000006a4b      0x1f7 D:\programming\ada_projects\Ada_Drivers_Library\boards\MicroBit\obj\zfp_lib_Debug\libada_drivers_library.a(nrf51-rtc.o)
                                       0x114d (size before relaxing)
 .debug_str     0x0000000000006c42      0xaae D:\programming\ada_projects\Ada_Drivers_Library\boards\MicroBit\obj\zfp_lib_Debug\libada_drivers_library.a(nrf51-tasks.o)
                                        0xf73 (size before relaxing)
 .debug_str     0x00000000000076f0      0x368 D:\programming\ada_projects\Ada_Drivers_Library\boards\MicroBit\obj\zfp_lib_Debug\libada_drivers_library.a(nrf51-timers.o)
                                       0x11e8 (size before relaxing)
 .debug_str     0x0000000000007a58      0x2ec D:\programming\ada_projects\Ada_Drivers_Library\boards\MicroBit\obj\zfp_lib_Debug\libada_drivers_library.a(nrf51-twi.o)
                                       0x14b2 (size before relaxing)
 .debug_str     0x0000000000007d44      0x690 D:\programming\ada_projects\Ada_Drivers_Library\boards\MicroBit\obj\zfp_lib_Debug\libada_drivers_library.a(nrf51_svd-gpio.o)
                                        0xbf7 (size before relaxing)
 .debug_str     0x00000000000083d4       0x94 D:\programming\ada_projects\Ada_Drivers_Library\boards\MicroBit\obj\zfp_lib_Debug\libada_drivers_library.a(nrf51_svd-twi.o)
                                        0xee1 (size before relaxing)
 .debug_str     0x0000000000008468       0x45 D:\programming\ada_projects\Ada_Drivers_Library\boards\MicroBit\obj\zfp_lib_Debug\libada_drivers_library.a(hal-gpio.o)
                                        0x262 (size before relaxing)
 .debug_str     0x00000000000084ad       0x44 D:\programming\ada_projects\Ada_Drivers_Library\boards\MicroBit\obj\zfp_lib_Debug\libada_drivers_library.a(hal-i2c.o)
                                        0x2bd (size before relaxing)
 .debug_str     0x00000000000084f1       0x45 D:\programming\ada_projects\Ada_Drivers_Library\boards\MicroBit\obj\zfp_lib_Debug\libada_drivers_library.a(hal-time.o)
                                        0x262 (size before relaxing)
 .debug_str     0x0000000000008536      0x43b D:\gnat\2018-arm-elf\arm-eabi\lib\gnat\zfp-microbit\adalib\libgnat.a(a-except.o)
                                        0x46a (size before relaxing)
 .debug_str     0x0000000000008971      0x3ef D:\gnat\2018-arm-elf\arm-eabi\lib\gnat\zfp-microbit\adalib\libgnat.a(s-assert.o)
                                        0x4e0 (size before relaxing)
 .debug_str     0x0000000000008d60       0x93 d:/gnat/2018-arm-elf/bin/../lib/gcc/arm-eabi/7.3.1/thumb/v6-m\libgcc.a(_divsi3.o)
 .debug_str     0x0000000000008df3       0x93 d:/gnat/2018-arm-elf/bin/../lib/gcc/arm-eabi/7.3.1/thumb/v6-m\libgcc.a(_dvmd_tls.o)
 .debug_str     0x0000000000008df3       0x31 d:/gnat/2018-arm-elf/bin/../lib/gcc/arm-eabi/7.3.1/thumb/v6-m\libgcc.a(_arm_cmpsf2.o)
                                         0x93 (size before relaxing)
 .debug_str     0x0000000000008e24     0x131c d:/gnat/2018-arm-elf/bin/../lib/gcc/arm-eabi/7.3.1/thumb/v6-m\libgcc.a(_fixunssfsi.o)
                                       0x13a6 (size before relaxing)
 .debug_str     0x000000000000a140      0x131 d:/gnat/2018-arm-elf/bin/../lib/gcc/arm-eabi/7.3.1/thumb/v6-m\libgcc.a(addsf3.o)
                                        0x2d0 (size before relaxing)
 .debug_str     0x000000000000a271      0x10a d:/gnat/2018-arm-elf/bin/../lib/gcc/arm-eabi/7.3.1/thumb/v6-m\libgcc.a(divsf3.o)
                                        0x2f5 (size before relaxing)
 .debug_str     0x000000000000a37b       0x2f d:/gnat/2018-arm-elf/bin/../lib/gcc/arm-eabi/7.3.1/thumb/v6-m\libgcc.a(eqsf2.o)
                                        0x1fe (size before relaxing)
 .debug_str     0x000000000000a3aa       0x34 d:/gnat/2018-arm-elf/bin/../lib/gcc/arm-eabi/7.3.1/thumb/v6-m\libgcc.a(gesf2.o)
                                        0x222 (size before relaxing)
 .debug_str     0x000000000000a3de       0x10 d:/gnat/2018-arm-elf/bin/../lib/gcc/arm-eabi/7.3.1/thumb/v6-m\libgcc.a(lesf2.o)
                                        0x222 (size before relaxing)
 .debug_str     0x000000000000a3ee       0x78 d:/gnat/2018-arm-elf/bin/../lib/gcc/arm-eabi/7.3.1/thumb/v6-m\libgcc.a(mulsf3.o)
                                        0x2f5 (size before relaxing)
 .debug_str     0x000000000000a466        0x9 d:/gnat/2018-arm-elf/bin/../lib/gcc/arm-eabi/7.3.1/thumb/v6-m\libgcc.a(subsf3.o)
                                        0x2d0 (size before relaxing)
 .debug_str     0x000000000000a46f       0x1a d:/gnat/2018-arm-elf/bin/../lib/gcc/arm-eabi/7.3.1/thumb/v6-m\libgcc.a(unordsf2.o)
                                        0x208 (size before relaxing)
 .debug_str     0x000000000000a489       0x1d d:/gnat/2018-arm-elf/bin/../lib/gcc/arm-eabi/7.3.1/thumb/v6-m\libgcc.a(fixsfsi.o)
                                        0x208 (size before relaxing)
 .debug_str     0x000000000000a4a6       0x45 d:/gnat/2018-arm-elf/bin/../lib/gcc/arm-eabi/7.3.1/thumb/v6-m\libgcc.a(floatsisf.o)
                                        0x297 (size before relaxing)
 .debug_str     0x000000000000a4eb       0x1b d:/gnat/2018-arm-elf/bin/../lib/gcc/arm-eabi/7.3.1/thumb/v6-m\libgcc.a(floatunsisf.o)
                                        0x293 (size before relaxing)
 .debug_str     0x000000000000a506       0x93 d:/gnat/2018-arm-elf/bin/../lib/gcc/arm-eabi/7.3.1/thumb/v6-m\libgcc.a(_clzsi2.o)

.debug_loc      0x0000000000000000     0x3545
 *(.debug_loc)
 .debug_loc     0x0000000000000000       0x48 D:\gnat\2018-arm-elf\arm-eabi\lib\gnat\zfp-microbit\adalib\libgnat.a(s-assert.o)
 .debug_loc     0x0000000000000048       0x39 d:/gnat/2018-arm-elf/bin/../lib/gcc/arm-eabi/7.3.1/thumb/v6-m\libgcc.a(_fixunssfsi.o)
 .debug_loc     0x0000000000000081      0xd8f d:/gnat/2018-arm-elf/bin/../lib/gcc/arm-eabi/7.3.1/thumb/v6-m\libgcc.a(addsf3.o)
 .debug_loc     0x0000000000000e10      0x794 d:/gnat/2018-arm-elf/bin/../lib/gcc/arm-eabi/7.3.1/thumb/v6-m\libgcc.a(divsf3.o)
 .debug_loc     0x00000000000015a4       0xc7 d:/gnat/2018-arm-elf/bin/../lib/gcc/arm-eabi/7.3.1/thumb/v6-m\libgcc.a(eqsf2.o)
 .debug_loc     0x000000000000166b      0x172 d:/gnat/2018-arm-elf/bin/../lib/gcc/arm-eabi/7.3.1/thumb/v6-m\libgcc.a(gesf2.o)
 .debug_loc     0x00000000000017dd      0x192 d:/gnat/2018-arm-elf/bin/../lib/gcc/arm-eabi/7.3.1/thumb/v6-m\libgcc.a(lesf2.o)
 .debug_loc     0x000000000000196f      0x916 d:/gnat/2018-arm-elf/bin/../lib/gcc/arm-eabi/7.3.1/thumb/v6-m\libgcc.a(mulsf3.o)
 .debug_loc     0x0000000000002285      0xd96 d:/gnat/2018-arm-elf/bin/../lib/gcc/arm-eabi/7.3.1/thumb/v6-m\libgcc.a(subsf3.o)
 .debug_loc     0x000000000000301b       0x64 d:/gnat/2018-arm-elf/bin/../lib/gcc/arm-eabi/7.3.1/thumb/v6-m\libgcc.a(unordsf2.o)
 .debug_loc     0x000000000000307f       0xb3 d:/gnat/2018-arm-elf/bin/../lib/gcc/arm-eabi/7.3.1/thumb/v6-m\libgcc.a(fixsfsi.o)
 .debug_loc     0x0000000000003132      0x209 d:/gnat/2018-arm-elf/bin/../lib/gcc/arm-eabi/7.3.1/thumb/v6-m\libgcc.a(floatsisf.o)
 .debug_loc     0x000000000000333b      0x20a d:/gnat/2018-arm-elf/bin/../lib/gcc/arm-eabi/7.3.1/thumb/v6-m\libgcc.a(floatunsisf.o)

.debug_macinfo
 *(.debug_macinfo)

.debug_pubtypes
 *(.debug_pubtypes)

.debug_ranges   0x0000000000000000      0xa68
 *(.debug_ranges)
 .debug_ranges  0x0000000000000000       0x10 main.o
 .debug_ranges  0x0000000000000010       0x20 b__main.o
 .debug_ranges  0x0000000000000030       0x40 D:\programming\ada_projects\Ada_Drivers_Library\boards\MicroBit\obj\zfp_lib_Debug\libada_drivers_library.a(cortex_m-nvic.o)
 .debug_ranges  0x0000000000000070       0x88 D:\programming\ada_projects\Ada_Drivers_Library\boards\MicroBit\obj\zfp_lib_Debug\libada_drivers_library.a(microbit-ios.o)
 .debug_ranges  0x00000000000000f8       0x20 D:\programming\ada_projects\Ada_Drivers_Library\boards\MicroBit\obj\zfp_lib_Debug\libada_drivers_library.a(microbit-servos.o)
 .debug_ranges  0x0000000000000118       0x88 D:\programming\ada_projects\Ada_Drivers_Library\boards\MicroBit\obj\zfp_lib_Debug\libada_drivers_library.a(microbit-time.o)
 .debug_ranges  0x00000000000001a0       0x38 D:\programming\ada_projects\Ada_Drivers_Library\boards\MicroBit\obj\zfp_lib_Debug\libada_drivers_library.a(nrf51-adc.o)
 .debug_ranges  0x00000000000001d8       0x60 D:\programming\ada_projects\Ada_Drivers_Library\boards\MicroBit\obj\zfp_lib_Debug\libada_drivers_library.a(nrf51-clock.o)
 .debug_ranges  0x0000000000000238       0x10 D:\programming\ada_projects\Ada_Drivers_Library\boards\MicroBit\obj\zfp_lib_Debug\libada_drivers_library.a(nrf51-device.o)
 .debug_ranges  0x0000000000000248       0x38 D:\programming\ada_projects\Ada_Drivers_Library\boards\MicroBit\obj\zfp_lib_Debug\libada_drivers_library.a(nrf51-events.o)
 .debug_ranges  0x0000000000000280       0x30 D:\programming\ada_projects\Ada_Drivers_Library\boards\MicroBit\obj\zfp_lib_Debug\libada_drivers_library.a(nrf51-gpio-tasks_and_events.o)
 .debug_ranges  0x00000000000002b0       0x60 D:\programming\ada_projects\Ada_Drivers_Library\boards\MicroBit\obj\zfp_lib_Debug\libada_drivers_library.a(nrf51-gpio.o)
 .debug_ranges  0x0000000000000310       0x38 D:\programming\ada_projects\Ada_Drivers_Library\boards\MicroBit\obj\zfp_lib_Debug\libada_drivers_library.a(nrf51-interrupts.o)
 .debug_ranges  0x0000000000000348       0x40 D:\programming\ada_projects\Ada_Drivers_Library\boards\MicroBit\obj\zfp_lib_Debug\libada_drivers_library.a(nrf51-ppi.o)
 .debug_ranges  0x0000000000000388       0x50 D:\programming\ada_projects\Ada_Drivers_Library\boards\MicroBit\obj\zfp_lib_Debug\libada_drivers_library.a(nrf51-rtc.o)
 .debug_ranges  0x00000000000003d8       0x20 D:\programming\ada_projects\Ada_Drivers_Library\boards\MicroBit\obj\zfp_lib_Debug\libada_drivers_library.a(nrf51-tasks.o)
 .debug_ranges  0x00000000000003f8       0xb0 D:\programming\ada_projects\Ada_Drivers_Library\boards\MicroBit\obj\zfp_lib_Debug\libada_drivers_library.a(nrf51-timers.o)
 .debug_ranges  0x00000000000004a8       0x60 D:\programming\ada_projects\Ada_Drivers_Library\boards\MicroBit\obj\zfp_lib_Debug\libada_drivers_library.a(nrf51-twi.o)
 .debug_ranges  0x0000000000000508       0x10 D:\gnat\2018-arm-elf\arm-eabi\lib\gnat\zfp-microbit\adalib\libgnat.a(s-assert.o)
 .debug_ranges  0x0000000000000518      0x170 d:/gnat/2018-arm-elf/bin/../lib/gcc/arm-eabi/7.3.1/thumb/v6-m\libgcc.a(addsf3.o)
 .debug_ranges  0x0000000000000688       0x80 d:/gnat/2018-arm-elf/bin/../lib/gcc/arm-eabi/7.3.1/thumb/v6-m\libgcc.a(divsf3.o)
 .debug_ranges  0x0000000000000708       0x30 d:/gnat/2018-arm-elf/bin/../lib/gcc/arm-eabi/7.3.1/thumb/v6-m\libgcc.a(eqsf2.o)
 .debug_ranges  0x0000000000000738       0x60 d:/gnat/2018-arm-elf/bin/../lib/gcc/arm-eabi/7.3.1/thumb/v6-m\libgcc.a(gesf2.o)
 .debug_ranges  0x0000000000000798       0x70 d:/gnat/2018-arm-elf/bin/../lib/gcc/arm-eabi/7.3.1/thumb/v6-m\libgcc.a(lesf2.o)
 .debug_ranges  0x0000000000000808       0x68 d:/gnat/2018-arm-elf/bin/../lib/gcc/arm-eabi/7.3.1/thumb/v6-m\libgcc.a(mulsf3.o)
 .debug_ranges  0x0000000000000870      0x180 d:/gnat/2018-arm-elf/bin/../lib/gcc/arm-eabi/7.3.1/thumb/v6-m\libgcc.a(subsf3.o)
 .debug_ranges  0x00000000000009f0       0x30 d:/gnat/2018-arm-elf/bin/../lib/gcc/arm-eabi/7.3.1/thumb/v6-m\libgcc.a(unordsf2.o)
 .debug_ranges  0x0000000000000a20       0x18 d:/gnat/2018-arm-elf/bin/../lib/gcc/arm-eabi/7.3.1/thumb/v6-m\libgcc.a(fixsfsi.o)
 .debug_ranges  0x0000000000000a38       0x18 d:/gnat/2018-arm-elf/bin/../lib/gcc/arm-eabi/7.3.1/thumb/v6-m\libgcc.a(floatsisf.o)
 .debug_ranges  0x0000000000000a50       0x18 d:/gnat/2018-arm-elf/bin/../lib/gcc/arm-eabi/7.3.1/thumb/v6-m\libgcc.a(floatunsisf.o)

.comment        0x0000000000000000       0x3d
 .comment       0x0000000000000000       0x3d main.o
                                         0x3e (size before relaxing)
 .comment       0x000000000000003d       0x3e b__main.o
 .comment       0x000000000000003d       0x3e D:\programming\ada_projects\Ada_Drivers_Library\boards\MicroBit\obj\zfp_lib_Debug\libada_drivers_library.a(cortex_m-nvic.o)
 .comment       0x000000000000003d       0x3e D:\programming\ada_projects\Ada_Drivers_Library\boards\MicroBit\obj\zfp_lib_Debug\libada_drivers_library.a(microbit-ios.o)
 .comment       0x000000000000003d       0x3e D:\programming\ada_projects\Ada_Drivers_Library\boards\MicroBit\obj\zfp_lib_Debug\libada_drivers_library.a(microbit-servos.o)
 .comment       0x000000000000003d       0x3e D:\programming\ada_projects\Ada_Drivers_Library\boards\MicroBit\obj\zfp_lib_Debug\libada_drivers_library.a(microbit-time.o)
 .comment       0x000000000000003d       0x3e D:\programming\ada_projects\Ada_Drivers_Library\boards\MicroBit\obj\zfp_lib_Debug\libada_drivers_library.a(nrf51-adc.o)
 .comment       0x000000000000003d       0x3e D:\programming\ada_projects\Ada_Drivers_Library\boards\MicroBit\obj\zfp_lib_Debug\libada_drivers_library.a(nrf51-clock.o)
 .comment       0x000000000000003d       0x3e D:\programming\ada_projects\Ada_Drivers_Library\boards\MicroBit\obj\zfp_lib_Debug\libada_drivers_library.a(nrf51-device.o)
 .comment       0x000000000000003d       0x3e D:\programming\ada_projects\Ada_Drivers_Library\boards\MicroBit\obj\zfp_lib_Debug\libada_drivers_library.a(nrf51-events.o)
 .comment       0x000000000000003d       0x3e D:\programming\ada_projects\Ada_Drivers_Library\boards\MicroBit\obj\zfp_lib_Debug\libada_drivers_library.a(nrf51-gpio-tasks_and_events.o)
 .comment       0x000000000000003d       0x3e D:\programming\ada_projects\Ada_Drivers_Library\boards\MicroBit\obj\zfp_lib_Debug\libada_drivers_library.a(nrf51-gpio.o)
 .comment       0x000000000000003d       0x3e D:\programming\ada_projects\Ada_Drivers_Library\boards\MicroBit\obj\zfp_lib_Debug\libada_drivers_library.a(nrf51-interrupts.o)
 .comment       0x000000000000003d       0x3e D:\programming\ada_projects\Ada_Drivers_Library\boards\MicroBit\obj\zfp_lib_Debug\libada_drivers_library.a(nrf51-ppi.o)
 .comment       0x000000000000003d       0x3e D:\programming\ada_projects\Ada_Drivers_Library\boards\MicroBit\obj\zfp_lib_Debug\libada_drivers_library.a(nrf51-rtc.o)
 .comment       0x000000000000003d       0x3e D:\programming\ada_projects\Ada_Drivers_Library\boards\MicroBit\obj\zfp_lib_Debug\libada_drivers_library.a(nrf51-tasks.o)
 .comment       0x000000000000003d       0x3e D:\programming\ada_projects\Ada_Drivers_Library\boards\MicroBit\obj\zfp_lib_Debug\libada_drivers_library.a(nrf51-timers.o)
 .comment       0x000000000000003d       0x3e D:\programming\ada_projects\Ada_Drivers_Library\boards\MicroBit\obj\zfp_lib_Debug\libada_drivers_library.a(nrf51-twi.o)
 .comment       0x000000000000003d       0x3e D:\programming\ada_projects\Ada_Drivers_Library\boards\MicroBit\obj\zfp_lib_Debug\libada_drivers_library.a(nrf51_svd-gpio.o)
 .comment       0x000000000000003d       0x3e D:\programming\ada_projects\Ada_Drivers_Library\boards\MicroBit\obj\zfp_lib_Debug\libada_drivers_library.a(nrf51_svd-twi.o)
 .comment       0x000000000000003d       0x3e D:\programming\ada_projects\Ada_Drivers_Library\boards\MicroBit\obj\zfp_lib_Debug\libada_drivers_library.a(hal-gpio.o)
 .comment       0x000000000000003d       0x3e D:\programming\ada_projects\Ada_Drivers_Library\boards\MicroBit\obj\zfp_lib_Debug\libada_drivers_library.a(hal-i2c.o)
 .comment       0x000000000000003d       0x3e D:\programming\ada_projects\Ada_Drivers_Library\boards\MicroBit\obj\zfp_lib_Debug\libada_drivers_library.a(hal-time.o)
 .comment       0x000000000000003d       0x3e D:\gnat\2018-arm-elf\arm-eabi\lib\gnat\zfp-microbit\adalib\libgnat.a(a-elchha.o)
 .comment       0x000000000000003d       0x3e D:\gnat\2018-arm-elf\arm-eabi\lib\gnat\zfp-microbit\adalib\libgnat.a(a-except.o)
 .comment       0x000000000000003d       0x3e D:\gnat\2018-arm-elf\arm-eabi\lib\gnat\zfp-microbit\adalib\libgnat.a(g-io.o)
 .comment       0x000000000000003d       0x3e D:\gnat\2018-arm-elf\arm-eabi\lib\gnat\zfp-microbit\adalib\libgnat.a(s-assert.o)
 .comment       0x000000000000003d       0x3e D:\gnat\2018-arm-elf\arm-eabi\lib\gnat\zfp-microbit\adalib\libgnat.a(s-macres.o)
 .comment       0x000000000000003d       0x3e D:\gnat\2018-arm-elf\arm-eabi\lib\gnat\zfp-microbit\adalib\libgnat.a(s-memcop.o)
 .comment       0x000000000000003d       0x3e D:\gnat\2018-arm-elf\arm-eabi\lib\gnat\zfp-microbit\adalib\libgnat.a(s-secsta.o)
 .comment       0x000000000000003d       0x3e D:\gnat\2018-arm-elf\arm-eabi\lib\gnat\zfp-microbit\adalib\libgnat.a(s-textio.o)
 .comment       0x000000000000003d       0x3e d:/gnat/2018-arm-elf/bin/../lib/gcc/arm-eabi/7.3.1/thumb/v6-m\libgcc.a(_fixunssfsi.o)
 .comment       0x000000000000003d       0x3e d:/gnat/2018-arm-elf/bin/../lib/gcc/arm-eabi/7.3.1/thumb/v6-m\libgcc.a(addsf3.o)
 .comment       0x000000000000003d       0x3e d:/gnat/2018-arm-elf/bin/../lib/gcc/arm-eabi/7.3.1/thumb/v6-m\libgcc.a(divsf3.o)
 .comment       0x000000000000003d       0x3e d:/gnat/2018-arm-elf/bin/../lib/gcc/arm-eabi/7.3.1/thumb/v6-m\libgcc.a(eqsf2.o)
 .comment       0x000000000000003d       0x3e d:/gnat/2018-arm-elf/bin/../lib/gcc/arm-eabi/7.3.1/thumb/v6-m\libgcc.a(gesf2.o)
 .comment       0x000000000000003d       0x3e d:/gnat/2018-arm-elf/bin/../lib/gcc/arm-eabi/7.3.1/thumb/v6-m\libgcc.a(lesf2.o)
 .comment       0x000000000000003d       0x3e d:/gnat/2018-arm-elf/bin/../lib/gcc/arm-eabi/7.3.1/thumb/v6-m\libgcc.a(mulsf3.o)
 .comment       0x000000000000003d       0x3e d:/gnat/2018-arm-elf/bin/../lib/gcc/arm-eabi/7.3.1/thumb/v6-m\libgcc.a(subsf3.o)
 .comment       0x000000000000003d       0x3e d:/gnat/2018-arm-elf/bin/../lib/gcc/arm-eabi/7.3.1/thumb/v6-m\libgcc.a(unordsf2.o)
 .comment       0x000000000000003d       0x3e d:/gnat/2018-arm-elf/bin/../lib/gcc/arm-eabi/7.3.1/thumb/v6-m\libgcc.a(fixsfsi.o)
 .comment       0x000000000000003d       0x3e d:/gnat/2018-arm-elf/bin/../lib/gcc/arm-eabi/7.3.1/thumb/v6-m\libgcc.a(floatsisf.o)
 .comment       0x000000000000003d       0x3e d:/gnat/2018-arm-elf/bin/../lib/gcc/arm-eabi/7.3.1/thumb/v6-m\libgcc.a(floatunsisf.o)

.ARM.attributes
                0x0000000000000000       0x2f
 .ARM.attributes
                0x0000000000000000       0x2f main.o
 .ARM.attributes
                0x000000000000002f       0x2f b__main.o
 .ARM.attributes
                0x000000000000005e       0x2f D:\programming\ada_projects\Ada_Drivers_Library\boards\MicroBit\obj\zfp_lib_Debug\libada_drivers_library.a(cortex_m-nvic.o)
 .ARM.attributes
                0x000000000000008d       0x2f D:\programming\ada_projects\Ada_Drivers_Library\boards\MicroBit\obj\zfp_lib_Debug\libada_drivers_library.a(microbit-ios.o)
 .ARM.attributes
                0x00000000000000bc       0x2f D:\programming\ada_projects\Ada_Drivers_Library\boards\MicroBit\obj\zfp_lib_Debug\libada_drivers_library.a(microbit-servos.o)
 .ARM.attributes
                0x00000000000000eb       0x2f D:\programming\ada_projects\Ada_Drivers_Library\boards\MicroBit\obj\zfp_lib_Debug\libada_drivers_library.a(microbit-time.o)
 .ARM.attributes
                0x000000000000011a       0x2f D:\programming\ada_projects\Ada_Drivers_Library\boards\MicroBit\obj\zfp_lib_Debug\libada_drivers_library.a(nrf51-adc.o)
 .ARM.attributes
                0x0000000000000149       0x2f D:\programming\ada_projects\Ada_Drivers_Library\boards\MicroBit\obj\zfp_lib_Debug\libada_drivers_library.a(nrf51-clock.o)
 .ARM.attributes
                0x0000000000000178       0x2f D:\programming\ada_projects\Ada_Drivers_Library\boards\MicroBit\obj\zfp_lib_Debug\libada_drivers_library.a(nrf51-device.o)
 .ARM.attributes
                0x00000000000001a7       0x2f D:\programming\ada_projects\Ada_Drivers_Library\boards\MicroBit\obj\zfp_lib_Debug\libada_drivers_library.a(nrf51-events.o)
 .ARM.attributes
                0x00000000000001d6       0x2f D:\programming\ada_projects\Ada_Drivers_Library\boards\MicroBit\obj\zfp_lib_Debug\libada_drivers_library.a(nrf51-gpio-tasks_and_events.o)
 .ARM.attributes
                0x0000000000000205       0x2f D:\programming\ada_projects\Ada_Drivers_Library\boards\MicroBit\obj\zfp_lib_Debug\libada_drivers_library.a(nrf51-gpio.o)
 .ARM.attributes
                0x0000000000000234       0x2f D:\programming\ada_projects\Ada_Drivers_Library\boards\MicroBit\obj\zfp_lib_Debug\libada_drivers_library.a(nrf51-interrupts.o)
 .ARM.attributes
                0x0000000000000263       0x2f D:\programming\ada_projects\Ada_Drivers_Library\boards\MicroBit\obj\zfp_lib_Debug\libada_drivers_library.a(nrf51-ppi.o)
 .ARM.attributes
                0x0000000000000292       0x2f D:\programming\ada_projects\Ada_Drivers_Library\boards\MicroBit\obj\zfp_lib_Debug\libada_drivers_library.a(nrf51-rtc.o)
 .ARM.attributes
                0x00000000000002c1       0x2f D:\programming\ada_projects\Ada_Drivers_Library\boards\MicroBit\obj\zfp_lib_Debug\libada_drivers_library.a(nrf51-tasks.o)
 .ARM.attributes
                0x00000000000002f0       0x2f D:\programming\ada_projects\Ada_Drivers_Library\boards\MicroBit\obj\zfp_lib_Debug\libada_drivers_library.a(nrf51-timers.o)
 .ARM.attributes
                0x000000000000031f       0x2f D:\programming\ada_projects\Ada_Drivers_Library\boards\MicroBit\obj\zfp_lib_Debug\libada_drivers_library.a(nrf51-twi.o)
 .ARM.attributes
                0x000000000000034e       0x2f D:\programming\ada_projects\Ada_Drivers_Library\boards\MicroBit\obj\zfp_lib_Debug\libada_drivers_library.a(nrf51_svd-gpio.o)
 .ARM.attributes
                0x000000000000037d       0x2f D:\programming\ada_projects\Ada_Drivers_Library\boards\MicroBit\obj\zfp_lib_Debug\libada_drivers_library.a(nrf51_svd-twi.o)
 .ARM.attributes
                0x00000000000003ac       0x2f D:\programming\ada_projects\Ada_Drivers_Library\boards\MicroBit\obj\zfp_lib_Debug\libada_drivers_library.a(hal-gpio.o)
 .ARM.attributes
                0x00000000000003db       0x2f D:\programming\ada_projects\Ada_Drivers_Library\boards\MicroBit\obj\zfp_lib_Debug\libada_drivers_library.a(hal-i2c.o)
 .ARM.attributes
                0x000000000000040a       0x2f D:\programming\ada_projects\Ada_Drivers_Library\boards\MicroBit\obj\zfp_lib_Debug\libada_drivers_library.a(hal-time.o)
 .ARM.attributes
                0x0000000000000439       0x2f D:\gnat\2018-arm-elf\arm-eabi\lib\gnat\zfp-microbit\adalib\libgnat.a(a-elchha.o)
 .ARM.attributes
                0x0000000000000468       0x2f D:\gnat\2018-arm-elf\arm-eabi\lib\gnat\zfp-microbit\adalib\libgnat.a(a-except.o)
 .ARM.attributes
                0x0000000000000497       0x2f D:\gnat\2018-arm-elf\arm-eabi\lib\gnat\zfp-microbit\adalib\libgnat.a(g-io.o)
 .ARM.attributes
                0x00000000000004c6       0x2f D:\gnat\2018-arm-elf\arm-eabi\lib\gnat\zfp-microbit\adalib\libgnat.a(s-assert.o)
 .ARM.attributes
                0x00000000000004f5       0x2f D:\gnat\2018-arm-elf\arm-eabi\lib\gnat\zfp-microbit\adalib\libgnat.a(s-macres.o)
 .ARM.attributes
                0x0000000000000524       0x2f D:\gnat\2018-arm-elf\arm-eabi\lib\gnat\zfp-microbit\adalib\libgnat.a(s-memcop.o)
 .ARM.attributes
                0x0000000000000553       0x2f D:\gnat\2018-arm-elf\arm-eabi\lib\gnat\zfp-microbit\adalib\libgnat.a(s-secsta.o)
 .ARM.attributes
                0x0000000000000582       0x2f D:\gnat\2018-arm-elf\arm-eabi\lib\gnat\zfp-microbit\adalib\libgnat.a(s-textio.o)
 .ARM.attributes
                0x00000000000005b1       0x21 D:\gnat\2018-arm-elf\arm-eabi\lib\gnat\zfp-microbit\adalib\libgnat.a(start-rom.o)
 .ARM.attributes
                0x00000000000005d2       0x21 D:\gnat\2018-arm-elf\arm-eabi\lib\gnat\zfp-microbit\adalib\libgnat.a(handler.o)
 .ARM.attributes
                0x00000000000005f3       0x21 D:\gnat\2018-arm-elf\arm-eabi\lib\gnat\zfp-microbit\adalib\libgnat.a(breakpoint_handler-cortexm.o)
 .ARM.attributes
                0x0000000000000614       0x1e d:/gnat/2018-arm-elf/bin/../lib/gcc/arm-eabi/7.3.1/thumb/v6-m\libgcc.a(_divsi3.o)
 .ARM.attributes
                0x0000000000000632       0x1e d:/gnat/2018-arm-elf/bin/../lib/gcc/arm-eabi/7.3.1/thumb/v6-m\libgcc.a(_dvmd_tls.o)
 .ARM.attributes
                0x0000000000000650       0x1e d:/gnat/2018-arm-elf/bin/../lib/gcc/arm-eabi/7.3.1/thumb/v6-m\libgcc.a(_arm_cmpsf2.o)
 .ARM.attributes
                0x000000000000066e       0x2c d:/gnat/2018-arm-elf/bin/../lib/gcc/arm-eabi/7.3.1/thumb/v6-m\libgcc.a(_fixunssfsi.o)
 .ARM.attributes
                0x000000000000069a       0x2c d:/gnat/2018-arm-elf/bin/../lib/gcc/arm-eabi/7.3.1/thumb/v6-m\libgcc.a(addsf3.o)
 .ARM.attributes
                0x00000000000006c6       0x2c d:/gnat/2018-arm-elf/bin/../lib/gcc/arm-eabi/7.3.1/thumb/v6-m\libgcc.a(divsf3.o)
 .ARM.attributes
                0x00000000000006f2       0x2c d:/gnat/2018-arm-elf/bin/../lib/gcc/arm-eabi/7.3.1/thumb/v6-m\libgcc.a(eqsf2.o)
 .ARM.attributes
                0x000000000000071e       0x2c d:/gnat/2018-arm-elf/bin/../lib/gcc/arm-eabi/7.3.1/thumb/v6-m\libgcc.a(gesf2.o)
 .ARM.attributes
                0x000000000000074a       0x2c d:/gnat/2018-arm-elf/bin/../lib/gcc/arm-eabi/7.3.1/thumb/v6-m\libgcc.a(lesf2.o)
 .ARM.attributes
                0x0000000000000776       0x2c d:/gnat/2018-arm-elf/bin/../lib/gcc/arm-eabi/7.3.1/thumb/v6-m\libgcc.a(mulsf3.o)
 .ARM.attributes
                0x00000000000007a2       0x2c d:/gnat/2018-arm-elf/bin/../lib/gcc/arm-eabi/7.3.1/thumb/v6-m\libgcc.a(subsf3.o)
 .ARM.attributes
                0x00000000000007ce       0x2c d:/gnat/2018-arm-elf/bin/../lib/gcc/arm-eabi/7.3.1/thumb/v6-m\libgcc.a(unordsf2.o)
 .ARM.attributes
                0x00000000000007fa       0x2c d:/gnat/2018-arm-elf/bin/../lib/gcc/arm-eabi/7.3.1/thumb/v6-m\libgcc.a(fixsfsi.o)
 .ARM.attributes
                0x0000000000000826       0x2c d:/gnat/2018-arm-elf/bin/../lib/gcc/arm-eabi/7.3.1/thumb/v6-m\libgcc.a(floatsisf.o)
 .ARM.attributes
                0x0000000000000852       0x2c d:/gnat/2018-arm-elf/bin/../lib/gcc/arm-eabi/7.3.1/thumb/v6-m\libgcc.a(floatunsisf.o)
 .ARM.attributes
                0x000000000000087e       0x1e d:/gnat/2018-arm-elf/bin/../lib/gcc/arm-eabi/7.3.1/thumb/v6-m\libgcc.a(_clzsi2.o)

.gnu.attributes
 *(.gnu.attributes)

/DISCARD/
 *(.note.GNU-stack)
 *(.gnu_debuglink)
 *(.gnu.lto_*)
OUTPUT(main elf32-littlearm)
